 CourseworkBase2020

 Timestamp is 5ec3daab (Tue May 19 14:10:03 2020)

 Preferred load address is 00400000

 Start         Length     Name                   Class
 0001:00000000 0000c7f0H .text$di                CODE
 0001:0000c7f0 000846d0H .text$mn                CODE
 0001:00090ec0 00008290H .text$x                 CODE
 0001:00099150 0000152bH .text$yd                CODE
 0002:00000000 00000104H .CRT$XCA                DATA
 0002:00000104 00000104H .CRT$XCAA               DATA
 0002:00000208 00000104H .CRT$XCL                DATA
 0002:0000030c 0000022cH .CRT$XCU                DATA
 0002:00000538 00000104H .CRT$XCZ                DATA
 0002:0000063c 00000104H .CRT$XIA                DATA
 0002:00000740 00000104H .CRT$XIAA               DATA
 0002:00000844 00000104H .CRT$XIAC               DATA
 0002:00000948 00000104H .CRT$XIC                DATA
 0002:00000a4c 00000104H .CRT$XIZ                DATA
 0002:00000b50 00000004H .CRT$XLA                DATA
 0002:00000b54 00000004H .CRT$XLZ                DATA
 0002:00000b58 00000104H .CRT$XPA                DATA
 0002:00000c5c 00000104H .CRT$XPZ                DATA
 0002:00000d60 00000104H .CRT$XTA                DATA
 0002:00000e64 0000010cH .CRT$XTZ                DATA
 0002:00000f70 0000cdc4H .rdata                  DATA
 0002:0000dd34 0000011cH .rdata$T                DATA
 0002:0000de50 00002a10H .rdata$r                DATA
 0002:00010860 000008e4H .rdata$sxdata           DATA
 0002:00011144 0000019cH .rdata$zzzdbg           DATA
 0002:000112e0 00000104H .rtc$IAA                DATA
 0002:000113e4 00000104H .rtc$IZZ                DATA
 0002:000114e8 00000104H .rtc$TAA                DATA
 0002:000115ec 00000104H .rtc$TZZ                DATA
 0002:000116f0 0000700dH .xdata$x                DATA
 0002:000186fd 00000000H .edata                  DATA
 0003:00000000 00000bb8H .data                   DATA
 0003:00000bb8 00001ab8H .data$r                 DATA
 0003:00002670 00000df4H .bss                    DATA
 0004:00000000 000005b0H .idata$5                DATA
 0004:000005b0 0000008cH .idata$2                DATA
 0004:0000063c 00000014H .idata$3                DATA
 0004:00000650 000005b0H .idata$4                DATA
 0004:00000c00 0000204aH .idata$6                DATA
 0005:00000000 00000104H .tls                    DATA
 0005:00000104 00000104H .tls$                   DATA
 0005:00000208 00000101H .tls$ZZZ                DATA
 0006:00000000 00000104H .00cfg                  DATA
 0007:00000000 00000170H .rsrc$01                DATA
 0007:00000170 000002ccH .rsrc$02                DATA

  Address         Publics by Value              Rva+Base       Lib:Object

 0000:00000000       ___guard_longjmp_table     00000000     <absolute>
 0000:00000000       ___volatile_metadata       00000000     <absolute>
 0000:00000000       ___guard_iat_table         00000000     <absolute>
 0000:00000000       ___hybrid_auxiliary_iat    00000000     <absolute>
 0000:00000000       ___guard_fids_table        00000000     <absolute>
 0000:00000000       ___enclave_config          00000000     <absolute>
 0000:00000000       ___guard_longjmp_count     00000000     <absolute>
 0000:00000000       ___dynamic_value_reloc_table 00000000     <absolute>
 0000:00000000       ___guard_iat_count         00000000     <absolute>
 0000:00000000       ___hybrid_code_map_count   00000000     <absolute>
 0000:00000000       ___guard_fids_count        00000000     <absolute>
 0000:00000000       ___hybrid_code_map         00000000     <absolute>
 0000:0000002c       __tls_array                0000002c     <absolute>
 0000:00000100       ___guard_flags             00000100     <absolute>
 0000:000001a5       ___safe_se_handler_count   000001a5     <absolute>
 0000:00000000       ___ImageBase               00400000     <linker-defined>
 0001:0000c7f0       ??0BasicSpacecraft@@QAE@PAVKSP2D@@V?$basic_string@DU?$char_traits@D@std@@V?$allocator@D@2@@std@@ABVVec2D@@2OPAV4@@Z 0040d7f0 f   BasicSpacecraft.obj
 0001:0000cce0       ?virtDraw@BasicSpacecraft@@UAEXXZ 0040dce0 f   BasicSpacecraft.obj
 0001:0000d060       ?getKSPEngine@BasicSpacecraft@@QAEPAVKSP2D@@XZ 0040e060 f   BasicSpacecraft.obj
 0001:0000d080       ?virtDoUpdate@BasicSpacecraft@@UAEXH@Z 0040e080 f   BasicSpacecraft.obj
 0001:0000d0c0       ?isOnScreen@BasicSpacecraft@@SA_NAAVVec2D@@OO@Z 0040e0c0 f   BasicSpacecraft.obj
 0001:0000d170       ?rotate@BasicSpacecraft@@QAEXN@Z 0040e170 f   BasicSpacecraft.obj
 0001:0000d1c0       ?applyThrust@BasicSpacecraft@@QAEXXZ 0040e1c0 f   BasicSpacecraft.obj
 0001:0000d230       ?checkProximityChange@BasicSpacecraft@@QAE_NPAVCelestialBody@@@Z 0040e230 f   BasicSpacecraft.obj
 0001:0000d5c0       ?checkSurfaceCollision@BasicSpacecraft@@QAEXPAVCelestialBody@@@Z 0040e5c0 f   BasicSpacecraft.obj
 0001:0000daf0       ??$?0$$V@?$_Compressed_pair@V?$allocator@D@std@@V?$_String_val@U?$_Simple_types@D@std@@@2@$00@std@@QAE@U_Zero_then_variadic_args_t@1@@Z 0040eaf0 f i BasicSpacecraft.obj
 0001:0000db20       ??$?0$$V@?$_Compressed_pair@V?$allocator@U?$_Tree_node@U?$pair@$$CBV?$basic_string@DU?$char_traits@D@std@@V?$allocator@D@2@@std@@V?$shared_ptr@VRawImageData@@@2@@std@@PAX@std@@@std@@V?$_Tree_val@U?$_Tree_simple_types@U?$pair@$$CBV?$basic_string@DU?$char_traits@D@std@@V?$allocator@D@2@@std@@V?$shared_ptr@VRawImageData@@@2@@std@@@std@@@2@$00@std@@QAE@U_Zero_then_variadic_args_t@1@@Z 0040eb20 f i BasicSpacecraft.obj
 0001:0000db50       ??$?0$$V@?$_Compressed_pair@V?$allocator@U?$_Tree_node@U?$pair@$$CBV?$basic_string@DU?$char_traits@D@std@@V?$allocator@D@2@@std@@V?$weak_ptr@USpriteData@@@2@@std@@PAX@std@@@std@@V?$_Tree_val@U?$_Tree_simple_types@U?$pair@$$CBV?$basic_string@DU?$char_traits@D@std@@V?$allocator@D@2@@std@@V?$weak_ptr@USpriteData@@@2@@std@@@std@@@2@$00@std@@QAE@U_Zero_then_variadic_args_t@1@@Z 0040eb50 f i BasicSpacecraft.obj
 0001:0000db80       ??$?0$$V@?$_Compressed_pair@V?$allocator@U?$_Tree_node@U?$pair@$$CBV?$basic_string@DU?$char_traits@D@std@@V?$allocator@D@2@@std@@V?$weak_ptr@VRawImageData@@@2@@std@@PAX@std@@@std@@V?$_Tree_val@U?$_Tree_simple_types@U?$pair@$$CBV?$basic_string@DU?$char_traits@D@std@@V?$allocator@D@2@@std@@V?$weak_ptr@VRawImageData@@@2@@std@@@std@@@2@$00@std@@QAE@U_Zero_then_variadic_args_t@1@@Z 0040eb80 f i BasicSpacecraft.obj
 0001:0000dbb0       ??$?0AAV?$_Tree_iterator@V?$_Tree_val@U?$_Tree_simple_types@U?$pair@$$CBV?$basic_string@DU?$char_traits@D@std@@V?$allocator@D@2@@std@@V?$shared_ptr@VRawImageData@@@2@@std@@@std@@@std@@@std@@_N$0A@@?$pair@V?$_Tree_iterator@V?$_Tree_val@U?$_Tree_simple_types@U?$pair@$$CBV?$basic_string@DU?$char_traits@D@std@@V?$allocator@D@2@@std@@V?$shared_ptr@VRawImageData@@@2@@std@@@std@@@std@@@std@@_N@std@@QAE@AAV?$_Tree_iterator@V?$_Tree_val@U?$_Tree_simple_types@U?$pair@$$CBV?$basic_string@DU?$char_traits@D@std@@V?$allocator@D@2@@std@@V?$shared_ptr@VRawImageData@@@2@@std@@@std@@@std@@@1@$$QA_N@Z 0040ebb0 f i BasicSpacecraft.obj
 0001:0000dc00       ??$?0AAV?$_Tree_iterator@V?$_Tree_val@U?$_Tree_simple_types@U?$pair@$$CBV?$basic_string@DU?$char_traits@D@std@@V?$allocator@D@2@@std@@V?$weak_ptr@USpriteData@@@2@@std@@@std@@@std@@@std@@_N$0A@@?$pair@V?$_Tree_iterator@V?$_Tree_val@U?$_Tree_simple_types@U?$pair@$$CBV?$basic_string@DU?$char_traits@D@std@@V?$allocator@D@2@@std@@V?$weak_ptr@USpriteData@@@2@@std@@@std@@@std@@@std@@_N@std@@QAE@AAV?$_Tree_iterator@V?$_Tree_val@U?$_Tree_simple_types@U?$pair@$$CBV?$basic_string@DU?$char_traits@D@std@@V?$allocator@D@2@@std@@V?$weak_ptr@USpriteData@@@2@@std@@@std@@@std@@@1@$$QA_N@Z 0040ec00 f i BasicSpacecraft.obj
 0001:0000dc50       ??$?0AAV?$_Tree_iterator@V?$_Tree_val@U?$_Tree_simple_types@U?$pair@$$CBV?$basic_string@DU?$char_traits@D@std@@V?$allocator@D@2@@std@@V?$weak_ptr@VRawImageData@@@2@@std@@@std@@@std@@@std@@_N$0A@@?$pair@V?$_Tree_iterator@V?$_Tree_val@U?$_Tree_simple_types@U?$pair@$$CBV?$basic_string@DU?$char_traits@D@std@@V?$allocator@D@2@@std@@V?$weak_ptr@VRawImageData@@@2@@std@@@std@@@std@@@std@@_N@std@@QAE@AAV?$_Tree_iterator@V?$_Tree_val@U?$_Tree_simple_types@U?$pair@$$CBV?$basic_string@DU?$char_traits@D@std@@V?$allocator@D@2@@std@@V?$weak_ptr@VRawImageData@@@2@@std@@@std@@@std@@@1@$$QA_N@Z 0040ec50 f i BasicSpacecraft.obj
 0001:0000dca0       ??$?0AAV?$basic_string@DU?$char_traits@D@std@@V?$allocator@D@2@@std@@AAV?$shared_ptr@VRawImageData@@@1@$0A@@?$pair@V?$basic_string@DU?$char_traits@D@std@@V?$allocator@D@2@@std@@V?$shared_ptr@VRawImageData@@@2@@std@@QAE@AAV?$basic_string@DU?$char_traits@D@std@@V?$allocator@D@2@@1@AAV?$shared_ptr@VRawImageData@@@1@@Z 0040eca0 f i BasicSpacecraft.obj
 0001:0000dcf0       ??$?0AAV?$basic_string@DU?$char_traits@D@std@@V?$allocator@D@2@@std@@AAV?$weak_ptr@USpriteData@@@1@$0A@@?$pair@V?$basic_string@DU?$char_traits@D@std@@V?$allocator@D@2@@std@@V?$weak_ptr@USpriteData@@@2@@std@@QAE@AAV?$basic_string@DU?$char_traits@D@std@@V?$allocator@D@2@@1@AAV?$weak_ptr@USpriteData@@@1@@Z 0040ecf0 f i BasicSpacecraft.obj
 0001:0000dd40       ??$?0AAV?$basic_string@DU?$char_traits@D@std@@V?$allocator@D@2@@std@@AAV?$weak_ptr@VRawImageData@@@1@$0A@@?$pair@V?$basic_string@DU?$char_traits@D@std@@V?$allocator@D@2@@std@@V?$weak_ptr@VRawImageData@@@2@@std@@QAE@AAV?$basic_string@DU?$char_traits@D@std@@V?$allocator@D@2@@1@AAV?$weak_ptr@VRawImageData@@@1@@Z 0040ed40 f i BasicSpacecraft.obj
 0001:0000dd90       ??$?0ABU?$less@V?$basic_string@DU?$char_traits@D@std@@V?$allocator@D@2@@std@@@std@@U_Zero_then_variadic_args_t@1@@?$_Compressed_pair@U?$less@V?$basic_string@DU?$char_traits@D@std@@V?$allocator@D@2@@std@@@std@@V?$_Compressed_pair@V?$allocator@U?$_Tree_node@U?$pair@$$CBV?$basic_string@DU?$char_traits@D@std@@V?$allocator@D@2@@std@@V?$shared_ptr@VRawImageData@@@2@@std@@PAX@std@@@std@@V?$_Tree_val@U?$_Tree_simple_types@U?$pair@$$CBV?$basic_string@DU?$char_traits@D@std@@V?$allocator@D@2@@std@@V?$shared_ptr@VRawImageData@@@2@@std@@@std@@@2@$00@2@$00@std@@QAE@U_One_then_variadic_args_t@1@ABU?$less@V?$basic_string@DU?$char_traits@D@std@@V?$allocator@D@2@@std@@@1@$$QAU_Zero_then_variadic_args_t@1@@Z 0040ed90 f i BasicSpacecraft.obj
 0001:0000dde0       ??$?0ABU?$less@V?$basic_string@DU?$char_traits@D@std@@V?$allocator@D@2@@std@@@std@@U_Zero_then_variadic_args_t@1@@?$_Compressed_pair@U?$less@V?$basic_string@DU?$char_traits@D@std@@V?$allocator@D@2@@std@@@std@@V?$_Compressed_pair@V?$allocator@U?$_Tree_node@U?$pair@$$CBV?$basic_string@DU?$char_traits@D@std@@V?$allocator@D@2@@std@@V?$weak_ptr@USpriteData@@@2@@std@@PAX@std@@@std@@V?$_Tree_val@U?$_Tree_simple_types@U?$pair@$$CBV?$basic_string@DU?$char_traits@D@std@@V?$allocator@D@2@@std@@V?$weak_ptr@USpriteData@@@2@@std@@@std@@@2@$00@2@$00@std@@QAE@U_One_then_variadic_args_t@1@ABU?$less@V?$basic_string@DU?$char_traits@D@std@@V?$allocator@D@2@@std@@@1@$$QAU_Zero_then_variadic_args_t@1@@Z 0040ede0 f i BasicSpacecraft.obj
 0001:0000de30       ??$?0ABU?$less@V?$basic_string@DU?$char_traits@D@std@@V?$allocator@D@2@@std@@@std@@U_Zero_then_variadic_args_t@1@@?$_Compressed_pair@U?$less@V?$basic_string@DU?$char_traits@D@std@@V?$allocator@D@2@@std@@@std@@V?$_Compressed_pair@V?$allocator@U?$_Tree_node@U?$pair@$$CBV?$basic_string@DU?$char_traits@D@std@@V?$allocator@D@2@@std@@V?$weak_ptr@VRawImageData@@@2@@std@@PAX@std@@@std@@V?$_Tree_val@U?$_Tree_simple_types@U?$pair@$$CBV?$basic_string@DU?$char_traits@D@std@@V?$allocator@D@2@@std@@V?$weak_ptr@VRawImageData@@@2@@std@@@std@@@2@$00@2@$00@std@@QAE@U_One_then_variadic_args_t@1@ABU?$less@V?$basic_string@DU?$char_traits@D@std@@V?$allocator@D@2@@std@@@1@$$QAU_Zero_then_variadic_args_t@1@@Z 0040ee30 f i BasicSpacecraft.obj
 0001:0000de80       ??$?0D@?$allocator@U_Container_proxy@std@@@std@@QAE@ABV?$allocator@D@1@@Z 0040ee80 f i BasicSpacecraft.obj
 0001:0000dea0       ??$?0U?$_Tree_node@U?$pair@$$CBV?$basic_string@DU?$char_traits@D@std@@V?$allocator@D@2@@std@@V?$shared_ptr@VRawImageData@@@2@@std@@PAX@std@@@?$allocator@U_Container_proxy@std@@@std@@QAE@ABV?$allocator@U?$_Tree_node@U?$pair@$$CBV?$basic_string@DU?$char_traits@D@std@@V?$allocator@D@2@@std@@V?$shared_ptr@VRawImageData@@@2@@std@@PAX@std@@@1@@Z 0040eea0 f i BasicSpacecraft.obj
 0001:0000dec0       ??$?0U?$_Tree_node@U?$pair@$$CBV?$basic_string@DU?$char_traits@D@std@@V?$allocator@D@2@@std@@V?$weak_ptr@USpriteData@@@2@@std@@PAX@std@@@?$allocator@U_Container_proxy@std@@@std@@QAE@ABV?$allocator@U?$_Tree_node@U?$pair@$$CBV?$basic_string@DU?$char_traits@D@std@@V?$allocator@D@2@@std@@V?$weak_ptr@USpriteData@@@2@@std@@PAX@std@@@1@@Z 0040eec0 f i BasicSpacecraft.obj
 0001:0000dee0       ??$?0U?$_Tree_node@U?$pair@$$CBV?$basic_string@DU?$char_traits@D@std@@V?$allocator@D@2@@std@@V?$weak_ptr@VRawImageData@@@2@@std@@PAX@std@@@?$allocator@U_Container_proxy@std@@@std@@QAE@ABV?$allocator@U?$_Tree_node@U?$pair@$$CBV?$basic_string@DU?$char_traits@D@std@@V?$allocator@D@2@@std@@V?$weak_ptr@VRawImageData@@@2@@std@@PAX@std@@@1@@Z 0040eee0 f i BasicSpacecraft.obj
 0001:0000df00       ??$?0USpriteData@@$0A@@?$shared_ptr@USpriteData@@@std@@QAE@PAUSpriteData@@@Z 0040ef00 f i BasicSpacecraft.obj
 0001:0000df40       ??$?0USpriteData@@$0A@@?$weak_ptr@USpriteData@@@std@@QAE@ABV?$shared_ptr@USpriteData@@@1@@Z 0040ef40 f i BasicSpacecraft.obj
 0001:0000dfb0       ??$?0V?$_Tree_iterator@V?$_Tree_val@U?$_Tree_simple_types@U?$pair@$$CBV?$basic_string@DU?$char_traits@D@std@@V?$allocator@D@2@@std@@V?$shared_ptr@VRawImageData@@@2@@std@@@std@@@std@@@std@@_N$0A@@?$pair@V?$_Tree_iterator@V?$_Tree_val@U?$_Tree_simple_types@U?$pair@$$CBV?$basic_string@DU?$char_traits@D@std@@V?$allocator@D@2@@std@@V?$shared_ptr@VRawImageData@@@2@@std@@@std@@@std@@@std@@_N@std@@QAE@$$QAV?$_Tree_iterator@V?$_Tree_val@U?$_Tree_simple_types@U?$pair@$$CBV?$basic_string@DU?$char_traits@D@std@@V?$allocator@D@2@@std@@V?$shared_ptr@VRawImageData@@@2@@std@@@std@@@std@@@1@$$QA_N@Z 0040efb0 f i BasicSpacecraft.obj
 0001:0000e000       ??$?0V?$_Tree_iterator@V?$_Tree_val@U?$_Tree_simple_types@U?$pair@$$CBV?$basic_string@DU?$char_traits@D@std@@V?$allocator@D@2@@std@@V?$weak_ptr@USpriteData@@@2@@std@@@std@@@std@@@std@@_N$0A@@?$pair@V?$_Tree_iterator@V?$_Tree_val@U?$_Tree_simple_types@U?$pair@$$CBV?$basic_string@DU?$char_traits@D@std@@V?$allocator@D@2@@std@@V?$weak_ptr@USpriteData@@@2@@std@@@std@@@std@@@std@@_N@std@@QAE@$$QAV?$_Tree_iterator@V?$_Tree_val@U?$_Tree_simple_types@U?$pair@$$CBV?$basic_string@DU?$char_traits@D@std@@V?$allocator@D@2@@std@@V?$weak_ptr@USpriteData@@@2@@std@@@std@@@std@@@1@$$QA_N@Z 0040f000 f i BasicSpacecraft.obj
 0001:0000e050       ??$?0V?$_Tree_iterator@V?$_Tree_val@U?$_Tree_simple_types@U?$pair@$$CBV?$basic_string@DU?$char_traits@D@std@@V?$allocator@D@2@@std@@V?$weak_ptr@VRawImageData@@@2@@std@@@std@@@std@@@std@@_N$0A@@?$pair@V?$_Tree_iterator@V?$_Tree_val@U?$_Tree_simple_types@U?$pair@$$CBV?$basic_string@DU?$char_traits@D@std@@V?$allocator@D@2@@std@@V?$weak_ptr@VRawImageData@@@2@@std@@@std@@@std@@@std@@_N@std@@QAE@$$QAV?$_Tree_iterator@V?$_Tree_val@U?$_Tree_simple_types@U?$pair@$$CBV?$basic_string@DU?$char_traits@D@std@@V?$allocator@D@2@@std@@V?$weak_ptr@VRawImageData@@@2@@std@@@std@@@std@@@1@$$QA_N@Z 0040f050 f i BasicSpacecraft.obj
 0001:0000e0a0       ??$?0V?$allocator@D@std@@$$V@?$_Compressed_pair@V?$allocator@D@std@@V?$_String_val@U?$_Simple_types@D@std@@@2@$00@std@@QAE@U_One_then_variadic_args_t@1@$$QAV?$allocator@D@1@@Z 0040f0a0 f i BasicSpacecraft.obj
 0001:0000e0d0       ??$?0V?$allocator@D@std@@X@?$_String_alloc@U?$_String_base_types@DV?$allocator@D@std@@@std@@@std@@QAE@$$QAV?$allocator@D@1@@Z 0040f0d0 f i BasicSpacecraft.obj
 0001:0000e160       ??$?0V?$basic_string@DU?$char_traits@D@std@@V?$allocator@D@2@@std@@V?$shared_ptr@VRawImageData@@@1@$0A@@?$pair@$$CBV?$basic_string@DU?$char_traits@D@std@@V?$allocator@D@2@@std@@V?$shared_ptr@VRawImageData@@@2@@std@@QAE@$$QAU?$pair@V?$basic_string@DU?$char_traits@D@std@@V?$allocator@D@2@@std@@V?$shared_ptr@VRawImageData@@@2@@1@@Z 0040f160 f i BasicSpacecraft.obj
 0001:0000e1b0       ??$?0V?$basic_string@DU?$char_traits@D@std@@V?$allocator@D@2@@std@@V?$weak_ptr@USpriteData@@@1@$0A@@?$pair@$$CBV?$basic_string@DU?$char_traits@D@std@@V?$allocator@D@2@@std@@V?$weak_ptr@USpriteData@@@2@@std@@QAE@$$QAU?$pair@V?$basic_string@DU?$char_traits@D@std@@V?$allocator@D@2@@std@@V?$weak_ptr@USpriteData@@@2@@1@@Z 0040f1b0 f i BasicSpacecraft.obj
 0001:0000e200       ??$?0V?$basic_string@DU?$char_traits@D@std@@V?$allocator@D@2@@std@@V?$weak_ptr@VRawImageData@@@1@$0A@@?$pair@$$CBV?$basic_string@DU?$char_traits@D@std@@V?$allocator@D@2@@std@@V?$weak_ptr@VRawImageData@@@2@@std@@QAE@$$QAU?$pair@V?$basic_string@DU?$char_traits@D@std@@V?$allocator@D@2@@std@@V?$weak_ptr@VRawImageData@@@2@@1@@Z 0040f200 f i BasicSpacecraft.obj
 0001:0000e250       ??$?0VRawImageData@@$0A@@?$shared_ptr@VRawImageData@@@std@@QAE@PAVRawImageData@@@Z 0040f250 f i BasicSpacecraft.obj
 0001:0000e290       ??$?0VRawImageData@@$0A@@?$weak_ptr@VRawImageData@@@std@@QAE@ABV?$shared_ptr@VRawImageData@@@1@@Z 0040f290 f i BasicSpacecraft.obj
 0001:0000e300       ??$?0_N@?$GenericValue@U?$UTF8@D@rapidjson@@V?$MemoryPoolAllocator@VCrtAllocator@rapidjson@@@2@@rapidjson@@QAE@_NPAX@Z 0040f300 f i BasicSpacecraft.obj
 0001:0000e360       ??$?6DU?$char_traits@D@std@@V?$allocator@D@1@@std@@YAAAV?$basic_ostream@DU?$char_traits@D@std@@@0@AAV10@ABV?$basic_string@DU?$char_traits@D@std@@V?$allocator@D@2@@0@@Z 0040f360 f i BasicSpacecraft.obj
 0001:0000e390       ??$?6U?$char_traits@D@std@@@std@@YAAAV?$basic_ostream@DU?$char_traits@D@std@@@0@AAV10@PBD@Z 0040f390 f i BasicSpacecraft.obj
 0001:0000e790       ??$?9VRawImageData@@@std@@YA_NABV?$shared_ptr@VRawImageData@@@0@$$T@Z 0040f790 f i BasicSpacecraft.obj
 0001:0000e7c0       ??$?A$$CBD@?$GenericValue@U?$UTF8@D@rapidjson@@V?$MemoryPoolAllocator@VCrtAllocator@rapidjson@@@2@@rapidjson@@QAEAAV01@PBD@Z 0040f7c0 f i BasicSpacecraft.obj
 0001:0000e870       ??$?AV?$MemoryPoolAllocator@VCrtAllocator@rapidjson@@@rapidjson@@@?$GenericValue@U?$UTF8@D@rapidjson@@V?$MemoryPoolAllocator@VCrtAllocator@rapidjson@@@2@@rapidjson@@QAEAAV01@ABV01@@Z 0040f870 f i BasicSpacecraft.obj
 0001:0000e920       ??$?CUSpriteData@@$0A@@?$shared_ptr@USpriteData@@@std@@QBEPAUSpriteData@@XZ 0040f920 f i BasicSpacecraft.obj
 0001:0000e940       ??$?CVRawImageData@@$0A@@?$shared_ptr@VRawImageData@@@std@@QBEPAVRawImageData@@XZ 0040f940 f i BasicSpacecraft.obj
 0001:0000e960       ??$?MDU?$char_traits@D@std@@V?$allocator@D@1@@std@@YA_NABV?$basic_string@DU?$char_traits@D@std@@V?$allocator@D@2@@0@0@Z 0040f960 f i BasicSpacecraft.obj
 0001:0000e9a0       ??$Consume@V?$NumberStream@VFileReadStream@rapidjson@@$0A@$0A@@?$GenericReader@U?$UTF8@D@rapidjson@@U12@VCrtAllocator@2@@rapidjson@@@?$GenericReader@U?$UTF8@D@rapidjson@@U12@VCrtAllocator@2@@rapidjson@@CA_NAAV?$NumberStream@VFileReadStream@rapidjson@@$0A@$0A@@01@D@Z 0040f9a0 f i BasicSpacecraft.obj
 0001:0000e9e0       ??$Consume@VFileReadStream@rapidjson@@@?$GenericReader@U?$UTF8@D@rapidjson@@U12@VCrtAllocator@2@@rapidjson@@CA_NAAVFileReadStream@1@D@Z 0040f9e0 f i BasicSpacecraft.obj
 0001:0000ea20       ??$Encode@V?$StackStream@D@?$GenericReader@U?$UTF8@D@rapidjson@@U12@VCrtAllocator@2@@rapidjson@@@?$UTF8@D@rapidjson@@SAXAAV?$StackStream@D@?$GenericReader@U?$UTF8@D@rapidjson@@U12@VCrtAllocator@2@@1@I@Z 0040fa20 f i BasicSpacecraft.obj
 0001:0000eba0       ??$Encode@VFileReadStream@rapidjson@@@?$UTF8@D@rapidjson@@SAXAAVFileReadStream@1@I@Z 0040fba0 f i BasicSpacecraft.obj
 0001:0000ed20       ??$Expand@D@?$Stack@VCrtAllocator@rapidjson@@@internal@rapidjson@@AAEXI@Z 0040fd20 f i BasicSpacecraft.obj
 0001:0000edf0       ??$Expand@I@?$Stack@VCrtAllocator@rapidjson@@@internal@rapidjson@@AAEXI@Z 0040fdf0 f i BasicSpacecraft.obj
 0001:0000eec0       ??$Expand@V?$GenericValue@U?$UTF8@D@rapidjson@@V?$MemoryPoolAllocator@VCrtAllocator@rapidjson@@@2@@rapidjson@@@?$Stack@VCrtAllocator@rapidjson@@@internal@rapidjson@@AAEXI@Z 0040fec0 f i BasicSpacecraft.obj
 0001:0000ef90       ??$FindMember@V?$MemoryPoolAllocator@VCrtAllocator@rapidjson@@@rapidjson@@@?$GenericValue@U?$UTF8@D@rapidjson@@V?$MemoryPoolAllocator@VCrtAllocator@rapidjson@@@2@@rapidjson@@QAE?AV?$GenericMemberIterator@$0A@U?$UTF8@D@rapidjson@@V?$MemoryPoolAllocator@VCrtAllocator@rapidjson@@@2@@1@ABV01@@Z 0040ff90 f i BasicSpacecraft.obj
 0001:0000f090       ??$HandleError@VFileReadStream@rapidjson@@@?$GenericReader@U?$UTF8@D@rapidjson@@U12@VCrtAllocator@2@@rapidjson@@AAEXW4IterativeParsingState@01@AAVFileReadStream@1@@Z 00410090 f i BasicSpacecraft.obj
 0001:0000f470       ??$IterativeParse@$0A@VFileReadStream@rapidjson@@V?$GenericDocument@U?$UTF8@D@rapidjson@@V?$MemoryPoolAllocator@VCrtAllocator@rapidjson@@@2@VCrtAllocator@2@@2@@?$GenericReader@U?$UTF8@D@rapidjson@@U12@VCrtAllocator@2@@rapidjson@@AAE?AUParseResult@1@AAVFileReadStream@1@AAV?$GenericDocument@U?$UTF8@D@rapidjson@@V?$MemoryPoolAllocator@VCrtAllocator@rapidjson@@@2@VCrtAllocator@2@@1@@Z 00410470 f i BasicSpacecraft.obj
 0001:0000f680       ??$Min3@H@internal@rapidjson@@YAHHHH@Z 00410680 f i BasicSpacecraft.obj
 0001:0000f6c0       ??$Parse@$0A@VFileReadStream@rapidjson@@V?$GenericDocument@U?$UTF8@D@rapidjson@@V?$MemoryPoolAllocator@VCrtAllocator@rapidjson@@@2@VCrtAllocator@2@@2@@?$GenericReader@U?$UTF8@D@rapidjson@@U12@VCrtAllocator@2@@rapidjson@@QAE?AUParseResult@1@AAVFileReadStream@1@AAV?$GenericDocument@U?$UTF8@D@rapidjson@@V?$MemoryPoolAllocator@VCrtAllocator@rapidjson@@@2@VCrtAllocator@2@@1@@Z 004106c0 f i BasicSpacecraft.obj
 0001:0000fa00       ??$ParseArray@$0A@VFileReadStream@rapidjson@@V?$GenericDocument@U?$UTF8@D@rapidjson@@V?$MemoryPoolAllocator@VCrtAllocator@rapidjson@@@2@VCrtAllocator@2@@2@@?$GenericReader@U?$UTF8@D@rapidjson@@U12@VCrtAllocator@2@@rapidjson@@AAEXAAVFileReadStream@1@AAV?$GenericDocument@U?$UTF8@D@rapidjson@@V?$MemoryPoolAllocator@VCrtAllocator@rapidjson@@@2@VCrtAllocator@2@@1@@Z 00410a00 f i BasicSpacecraft.obj
 0001:0000fe40       ??$ParseFalse@$0A@VFileReadStream@rapidjson@@V?$GenericDocument@U?$UTF8@D@rapidjson@@V?$MemoryPoolAllocator@VCrtAllocator@rapidjson@@@2@VCrtAllocator@2@@2@@?$GenericReader@U?$UTF8@D@rapidjson@@U12@VCrtAllocator@2@@rapidjson@@AAEXAAVFileReadStream@1@AAV?$GenericDocument@U?$UTF8@D@rapidjson@@V?$MemoryPoolAllocator@VCrtAllocator@rapidjson@@@2@VCrtAllocator@2@@1@@Z 00410e40 f i BasicSpacecraft.obj
 0001:0000fff0       ??$ParseHex4@VFileReadStream@rapidjson@@@?$GenericReader@U?$UTF8@D@rapidjson@@U12@VCrtAllocator@2@@rapidjson@@AAEIAAVFileReadStream@1@I@Z 00410ff0 f i BasicSpacecraft.obj
 0001:00010140       ??$ParseNull@$0A@VFileReadStream@rapidjson@@V?$GenericDocument@U?$UTF8@D@rapidjson@@V?$MemoryPoolAllocator@VCrtAllocator@rapidjson@@@2@VCrtAllocator@2@@2@@?$GenericReader@U?$UTF8@D@rapidjson@@U12@VCrtAllocator@2@@rapidjson@@AAEXAAVFileReadStream@1@AAV?$GenericDocument@U?$UTF8@D@rapidjson@@V?$MemoryPoolAllocator@VCrtAllocator@rapidjson@@@2@VCrtAllocator@2@@1@@Z 00411140 f i BasicSpacecraft.obj
 0001:000102d0       ??$ParseNumber@$0A@VFileReadStream@rapidjson@@V?$GenericDocument@U?$UTF8@D@rapidjson@@V?$MemoryPoolAllocator@VCrtAllocator@rapidjson@@@2@VCrtAllocator@2@@2@@?$GenericReader@U?$UTF8@D@rapidjson@@U12@VCrtAllocator@2@@rapidjson@@AAEXAAVFileReadStream@1@AAV?$GenericDocument@U?$UTF8@D@rapidjson@@V?$MemoryPoolAllocator@VCrtAllocator@rapidjson@@@2@VCrtAllocator@2@@1@@Z 004112d0 f i BasicSpacecraft.obj
 0001:000113b0       ??$ParseObject@$0A@VFileReadStream@rapidjson@@V?$GenericDocument@U?$UTF8@D@rapidjson@@V?$MemoryPoolAllocator@VCrtAllocator@rapidjson@@@2@VCrtAllocator@2@@2@@?$GenericReader@U?$UTF8@D@rapidjson@@U12@VCrtAllocator@2@@rapidjson@@AAEXAAVFileReadStream@1@AAV?$GenericDocument@U?$UTF8@D@rapidjson@@V?$MemoryPoolAllocator@VCrtAllocator@rapidjson@@@2@VCrtAllocator@2@@1@@Z 004123b0 f i BasicSpacecraft.obj
 0001:00011990       ??$ParseStream@$0A@U?$UTF8@D@rapidjson@@VFileReadStream@2@@?$GenericDocument@U?$UTF8@D@rapidjson@@V?$MemoryPoolAllocator@VCrtAllocator@rapidjson@@@2@VCrtAllocator@2@@rapidjson@@QAEAAV01@AAVFileReadStream@1@@Z 00412990 f i BasicSpacecraft.obj
 0001:00011b00       ??$ParseStream@VFileReadStream@rapidjson@@@?$GenericDocument@U?$UTF8@D@rapidjson@@V?$MemoryPoolAllocator@VCrtAllocator@rapidjson@@@2@VCrtAllocator@2@@rapidjson@@QAEAAV01@AAVFileReadStream@1@@Z 00412b00 f i BasicSpacecraft.obj
 0001:00011b20       ??$ParseString@$0A@VFileReadStream@rapidjson@@V?$GenericDocument@U?$UTF8@D@rapidjson@@V?$MemoryPoolAllocator@VCrtAllocator@rapidjson@@@2@VCrtAllocator@2@@2@@?$GenericReader@U?$UTF8@D@rapidjson@@U12@VCrtAllocator@2@@rapidjson@@AAEXAAVFileReadStream@1@AAV?$GenericDocument@U?$UTF8@D@rapidjson@@V?$MemoryPoolAllocator@VCrtAllocator@rapidjson@@@2@VCrtAllocator@2@@1@_N@Z 00412b20 f i BasicSpacecraft.obj
 0001:00011d90       ??$ParseStringToStream@$0A@U?$UTF8@D@rapidjson@@U12@VFileReadStream@2@V32@@?$GenericReader@U?$UTF8@D@rapidjson@@U12@VCrtAllocator@2@@rapidjson@@AAEXAAVFileReadStream@1@0@Z 00412d90 f i BasicSpacecraft.obj
 0001:00012310       ??$ParseStringToStream@$0A@U?$UTF8@D@rapidjson@@U12@VFileReadStream@2@V?$StackStream@D@?$GenericReader@U?$UTF8@D@rapidjson@@U12@VCrtAllocator@2@@2@@?$GenericReader@U?$UTF8@D@rapidjson@@U12@VCrtAllocator@2@@rapidjson@@AAEXAAVFileReadStream@1@AAV?$StackStream@D@01@@Z 00413310 f i BasicSpacecraft.obj
 0001:00012890       ??$ParseTrue@$0A@VFileReadStream@rapidjson@@V?$GenericDocument@U?$UTF8@D@rapidjson@@V?$MemoryPoolAllocator@VCrtAllocator@rapidjson@@@2@VCrtAllocator@2@@2@@?$GenericReader@U?$UTF8@D@rapidjson@@U12@VCrtAllocator@2@@rapidjson@@AAEXAAVFileReadStream@1@AAV?$GenericDocument@U?$UTF8@D@rapidjson@@V?$MemoryPoolAllocator@VCrtAllocator@rapidjson@@@2@VCrtAllocator@2@@1@@Z 00413890 f i BasicSpacecraft.obj
 0001:00012a30       ??$ParseValue@$0A@VFileReadStream@rapidjson@@V?$GenericDocument@U?$UTF8@D@rapidjson@@V?$MemoryPoolAllocator@VCrtAllocator@rapidjson@@@2@VCrtAllocator@2@@2@@?$GenericReader@U?$UTF8@D@rapidjson@@U12@VCrtAllocator@2@@rapidjson@@AAEXAAVFileReadStream@1@AAV?$GenericDocument@U?$UTF8@D@rapidjson@@V?$MemoryPoolAllocator@VCrtAllocator@rapidjson@@@2@VCrtAllocator@2@@1@@Z 00413a30 f i BasicSpacecraft.obj
 0001:00012bb0       ??$Pop@D@?$Stack@VCrtAllocator@rapidjson@@@internal@rapidjson@@QAEPADI@Z 00413bb0 f i BasicSpacecraft.obj
 0001:00012c10       ??$Pop@I@?$Stack@VCrtAllocator@rapidjson@@@internal@rapidjson@@QAEPAII@Z 00413c10 f i BasicSpacecraft.obj
 0001:00012c80       ??$Pop@V?$GenericMember@U?$UTF8@D@rapidjson@@V?$MemoryPoolAllocator@VCrtAllocator@rapidjson@@@2@@rapidjson@@@?$Stack@VCrtAllocator@rapidjson@@@internal@rapidjson@@QAEPAV?$GenericMember@U?$UTF8@D@rapidjson@@V?$MemoryPoolAllocator@VCrtAllocator@rapidjson@@@2@@2@I@Z 00413c80 f i BasicSpacecraft.obj
 0001:00012cf0       ??$Pop@V?$GenericValue@U?$UTF8@D@rapidjson@@V?$MemoryPoolAllocator@VCrtAllocator@rapidjson@@@2@@rapidjson@@@?$Stack@VCrtAllocator@rapidjson@@@internal@rapidjson@@QAEPAV?$GenericValue@U?$UTF8@D@rapidjson@@V?$MemoryPoolAllocator@VCrtAllocator@rapidjson@@@2@@2@I@Z 00413cf0 f i BasicSpacecraft.obj
 0001:00012d60       ??$Push@D@?$Stack@VCrtAllocator@rapidjson@@@internal@rapidjson@@QAEPADI@Z 00413d60 f i BasicSpacecraft.obj
 0001:00012d90       ??$Push@I@?$Stack@VCrtAllocator@rapidjson@@@internal@rapidjson@@QAEPAII@Z 00413d90 f i BasicSpacecraft.obj
 0001:00012dc0       ??$Push@V?$GenericValue@U?$UTF8@D@rapidjson@@V?$MemoryPoolAllocator@VCrtAllocator@rapidjson@@@2@@rapidjson@@@?$Stack@VCrtAllocator@rapidjson@@@internal@rapidjson@@QAEPAV?$GenericValue@U?$UTF8@D@rapidjson@@V?$MemoryPoolAllocator@VCrtAllocator@rapidjson@@@2@@2@I@Z 00413dc0 f i BasicSpacecraft.obj
 0001:00012df0       ??$PushUnsafe@D@?$Stack@VCrtAllocator@rapidjson@@@internal@rapidjson@@QAEPADI@Z 00413df0 f i BasicSpacecraft.obj
 0001:00012e90       ??$PushUnsafe@I@?$Stack@VCrtAllocator@rapidjson@@@internal@rapidjson@@QAEPAII@Z 00413e90 f i BasicSpacecraft.obj
 0001:00012f30       ??$PushUnsafe@V?$GenericValue@U?$UTF8@D@rapidjson@@V?$MemoryPoolAllocator@VCrtAllocator@rapidjson@@@2@@rapidjson@@@?$Stack@VCrtAllocator@rapidjson@@@internal@rapidjson@@QAEPAV?$GenericValue@U?$UTF8@D@rapidjson@@V?$MemoryPoolAllocator@VCrtAllocator@rapidjson@@@2@@2@I@Z 00413f30 f i BasicSpacecraft.obj
 0001:00012fd0       ??$Reserve@D@?$Stack@VCrtAllocator@rapidjson@@@internal@rapidjson@@QAEXI@Z 00413fd0 f i BasicSpacecraft.obj
 0001:00013010       ??$Reserve@I@?$Stack@VCrtAllocator@rapidjson@@@internal@rapidjson@@QAEXI@Z 00414010 f i BasicSpacecraft.obj
 0001:00013050       ??$Reserve@V?$GenericValue@U?$UTF8@D@rapidjson@@V?$MemoryPoolAllocator@VCrtAllocator@rapidjson@@@2@@rapidjson@@@?$Stack@VCrtAllocator@rapidjson@@@internal@rapidjson@@QAEXI@Z 00414050 f i BasicSpacecraft.obj
 0001:00013090       ??$ScanCopyUnescapedString@VFileReadStream@rapidjson@@V12@@?$GenericReader@U?$UTF8@D@rapidjson@@U12@VCrtAllocator@2@@rapidjson@@CAXAAVFileReadStream@1@0@Z 00414090 f i BasicSpacecraft.obj
 0001:000130a0       ??$ScanCopyUnescapedString@VFileReadStream@rapidjson@@V?$StackStream@D@?$GenericReader@U?$UTF8@D@rapidjson@@U12@VCrtAllocator@2@@2@@?$GenericReader@U?$UTF8@D@rapidjson@@U12@VCrtAllocator@2@@rapidjson@@CAXAAVFileReadStream@1@AAV?$StackStream@D@01@@Z 004140a0 f i BasicSpacecraft.obj
 0001:000130b0       ??$SkipWhitespace@VFileReadStream@rapidjson@@@rapidjson@@YAXAAVFileReadStream@0@@Z 004140b0 f i BasicSpacecraft.obj
 0001:00013120       ??$SkipWhitespaceAndComments@$0A@VFileReadStream@rapidjson@@@?$GenericReader@U?$UTF8@D@rapidjson@@U12@VCrtAllocator@2@@rapidjson@@AAEXAAVFileReadStream@1@@Z 00414120 f i BasicSpacecraft.obj
 0001:00013340       ??$StrLen@D@internal@rapidjson@@YAIPBD@Z 00414340 f i BasicSpacecraft.obj
 0001:00013360       ??$StringEqual@V?$MemoryPoolAllocator@VCrtAllocator@rapidjson@@@rapidjson@@@?$GenericValue@U?$UTF8@D@rapidjson@@V?$MemoryPoolAllocator@VCrtAllocator@rapidjson@@@2@@rapidjson@@ABE_NABV01@@Z 00414360 f i BasicSpacecraft.obj
 0001:00013460       ??$StringRef@D@rapidjson@@YA?AU?$GenericStringRef@D@0@PBD@Z 00414460 f i BasicSpacecraft.obj
 0001:00013480       ??$StringRef@D@rapidjson@@YA?AU?$GenericStringRef@D@0@PBDI@Z 00414480 f i BasicSpacecraft.obj
 0001:000134a0       ??$Top@I@?$Stack@VCrtAllocator@rapidjson@@@internal@rapidjson@@QAEPAIXZ 004144a0 f i BasicSpacecraft.obj
 0001:000134f0       ??$Top@V?$GenericValue@U?$UTF8@D@rapidjson@@V?$MemoryPoolAllocator@VCrtAllocator@rapidjson@@@2@@rapidjson@@@?$Stack@VCrtAllocator@rapidjson@@@internal@rapidjson@@QAEPAV?$GenericValue@U?$UTF8@D@rapidjson@@V?$MemoryPoolAllocator@VCrtAllocator@rapidjson@@@2@@2@XZ 004144f0 f i BasicSpacecraft.obj
 0001:00013540       ??$Transcode@U?$GenericStringStream@U?$UTF8@D@rapidjson@@@rapidjson@@V?$StackStream@D@?$GenericReader@U?$UTF8@D@rapidjson@@U12@VCrtAllocator@2@@2@@?$Transcoder@U?$UTF8@D@rapidjson@@U12@@rapidjson@@SA_NAAU?$GenericStringStream@U?$UTF8@D@rapidjson@@@1@AAV?$StackStream@D@?$GenericReader@U?$UTF8@D@rapidjson@@U12@VCrtAllocator@2@@1@@Z 00414540 f i BasicSpacecraft.obj
 0001:00013570       ??$Transcode@VFileReadStream@rapidjson@@V12@@?$Transcoder@U?$UTF8@D@rapidjson@@U12@@rapidjson@@SA_NAAVFileReadStream@1@0@Z 00414570 f i BasicSpacecraft.obj
 0001:000135a0       ??$Transcode@VFileReadStream@rapidjson@@V?$StackStream@D@?$GenericReader@U?$UTF8@D@rapidjson@@U12@VCrtAllocator@2@@2@@?$Transcoder@U?$UTF8@D@rapidjson@@U12@@rapidjson@@SA_NAAVFileReadStream@1@AAV?$StackStream@D@?$GenericReader@U?$UTF8@D@rapidjson@@U12@VCrtAllocator@2@@1@@Z 004145a0 f i BasicSpacecraft.obj
 0001:000135d0       ??$Transit@$0A@VFileReadStream@rapidjson@@V?$GenericDocument@U?$UTF8@D@rapidjson@@V?$MemoryPoolAllocator@VCrtAllocator@rapidjson@@@2@VCrtAllocator@2@@2@@?$GenericReader@U?$UTF8@D@rapidjson@@U12@VCrtAllocator@2@@rapidjson@@AAE?AW4IterativeParsingState@01@W4201@W4Token@01@0AAVFileReadStream@1@AAV?$GenericDocument@U?$UTF8@D@rapidjson@@V?$MemoryPoolAllocator@VCrtAllocator@rapidjson@@@2@VCrtAllocator@2@@1@@Z 004145d0 f i BasicSpacecraft.obj
 0001:00013b60       ??$Validate@VFileReadStream@rapidjson@@V12@@?$Transcoder@U?$UTF8@D@rapidjson@@U12@@rapidjson@@SA_NAAVFileReadStream@1@0@Z 00414b60 f i BasicSpacecraft.obj
 0001:00013b80       ??$Validate@VFileReadStream@rapidjson@@V12@@?$UTF8@D@rapidjson@@SA_NAAVFileReadStream@1@0@Z 00414b80 f i BasicSpacecraft.obj
 0001:00014210       ??$Validate@VFileReadStream@rapidjson@@V?$StackStream@D@?$GenericReader@U?$UTF8@D@rapidjson@@U12@VCrtAllocator@2@@2@@?$Transcoder@U?$UTF8@D@rapidjson@@U12@@rapidjson@@SA_NAAVFileReadStream@1@AAV?$StackStream@D@?$GenericReader@U?$UTF8@D@rapidjson@@U12@VCrtAllocator@2@@1@@Z 00415210 f i BasicSpacecraft.obj
 0001:00014230       ??$Validate@VFileReadStream@rapidjson@@V?$StackStream@D@?$GenericReader@U?$UTF8@D@rapidjson@@U12@VCrtAllocator@2@@2@@?$UTF8@D@rapidjson@@SA_NAAVFileReadStream@1@AAV?$StackStream@D@?$GenericReader@U?$UTF8@D@rapidjson@@U12@VCrtAllocator@2@@1@@Z 00415230 f i BasicSpacecraft.obj
 0001:000148c0       ??$_Allocate@$07U_Default_allocate_traits@std@@$0A@@std@@YAPAXI@Z 004158c0 f i BasicSpacecraft.obj
 0001:00014900       ??$_Allocate_manually_vector_aligned@U_Default_allocate_traits@std@@@std@@YAPAXI@Z 00415900 f i BasicSpacecraft.obj
 0001:000149e0       ??$_Buy_if_not_node@AAU?$pair@$$CBV?$basic_string@DU?$char_traits@D@std@@V?$allocator@D@2@@std@@V?$shared_ptr@VRawImageData@@@2@@std@@@?$_Tree@V?$_Tmap_traits@V?$basic_string@DU?$char_traits@D@std@@V?$allocator@D@2@@std@@V?$shared_ptr@VRawImageData@@@2@U?$less@V?$basic_string@DU?$char_traits@D@std@@V?$allocator@D@2@@std@@@2@V?$allocator@U?$pair@$$CBV?$basic_string@DU?$char_traits@D@std@@V?$allocator@D@2@@std@@V?$shared_ptr@VRawImageData@@@2@@std@@@2@$0A@@std@@@std@@IAEPAU?$_Tree_node@U?$pair@$$CBV?$basic_string@DU?$char_traits@D@std@@V?$allocator@D@2@@std@@V?$shared_ptr@VRawImageData@@@2@@std@@PAX@1@PAU21@AAU?$pair@$$CBV?$basic_string@DU?$char_traits@D@std@@V?$allocator@D@2@@std@@V?$shared_ptr@VRawImageData@@@2@@1@@Z 004159e0 f i BasicSpacecraft.obj
 0001:00014a00       ??$_Buy_if_not_node@AAU?$pair@$$CBV?$basic_string@DU?$char_traits@D@std@@V?$allocator@D@2@@std@@V?$weak_ptr@USpriteData@@@2@@std@@@?$_Tree@V?$_Tmap_traits@V?$basic_string@DU?$char_traits@D@std@@V?$allocator@D@2@@std@@V?$weak_ptr@USpriteData@@@2@U?$less@V?$basic_string@DU?$char_traits@D@std@@V?$allocator@D@2@@std@@@2@V?$allocator@U?$pair@$$CBV?$basic_string@DU?$char_traits@D@std@@V?$allocator@D@2@@std@@V?$weak_ptr@USpriteData@@@2@@std@@@2@$0A@@std@@@std@@IAEPAU?$_Tree_node@U?$pair@$$CBV?$basic_string@DU?$char_traits@D@std@@V?$allocator@D@2@@std@@V?$weak_ptr@USpriteData@@@2@@std@@PAX@1@PAU21@AAU?$pair@$$CBV?$basic_string@DU?$char_traits@D@std@@V?$allocator@D@2@@std@@V?$weak_ptr@USpriteData@@@2@@1@@Z 00415a00 f i BasicSpacecraft.obj
 0001:00014a20       ??$_Buy_if_not_node@AAU?$pair@$$CBV?$basic_string@DU?$char_traits@D@std@@V?$allocator@D@2@@std@@V?$weak_ptr@VRawImageData@@@2@@std@@@?$_Tree@V?$_Tmap_traits@V?$basic_string@DU?$char_traits@D@std@@V?$allocator@D@2@@std@@V?$weak_ptr@VRawImageData@@@2@U?$less@V?$basic_string@DU?$char_traits@D@std@@V?$allocator@D@2@@std@@@2@V?$allocator@U?$pair@$$CBV?$basic_string@DU?$char_traits@D@std@@V?$allocator@D@2@@std@@V?$weak_ptr@VRawImageData@@@2@@std@@@2@$0A@@std@@@std@@IAEPAU?$_Tree_node@U?$pair@$$CBV?$basic_string@DU?$char_traits@D@std@@V?$allocator@D@2@@std@@V?$weak_ptr@VRawImageData@@@2@@std@@PAX@1@PAU21@AAU?$pair@$$CBV?$basic_string@DU?$char_traits@D@std@@V?$allocator@D@2@@std@@V?$weak_ptr@VRawImageData@@@2@@1@@Z 00415a20 f i BasicSpacecraft.obj
 0001:00014a40       ??$_Buynode@U?$pair@V?$basic_string@DU?$char_traits@D@std@@V?$allocator@D@2@@std@@V?$shared_ptr@VRawImageData@@@2@@std@@@?$_Tree_comp_alloc@V?$_Tmap_traits@V?$basic_string@DU?$char_traits@D@std@@V?$allocator@D@2@@std@@V?$shared_ptr@VRawImageData@@@2@U?$less@V?$basic_string@DU?$char_traits@D@std@@V?$allocator@D@2@@std@@@2@V?$allocator@U?$pair@$$CBV?$basic_string@DU?$char_traits@D@std@@V?$allocator@D@2@@std@@V?$shared_ptr@VRawImageData@@@2@@std@@@2@$0A@@std@@@std@@QAEPAU?$_Tree_node@U?$pair@$$CBV?$basic_string@DU?$char_traits@D@std@@V?$allocator@D@2@@std@@V?$shared_ptr@VRawImageData@@@2@@std@@PAX@1@$$QAU?$pair@V?$basic_string@DU?$char_traits@D@std@@V?$allocator@D@2@@std@@V?$shared_ptr@VRawImageData@@@2@@1@@Z 00415a40 f i BasicSpacecraft.obj
 0001:00014b40       ??$_Buynode@U?$pair@V?$basic_string@DU?$char_traits@D@std@@V?$allocator@D@2@@std@@V?$weak_ptr@USpriteData@@@2@@std@@@?$_Tree_comp_alloc@V?$_Tmap_traits@V?$basic_string@DU?$char_traits@D@std@@V?$allocator@D@2@@std@@V?$weak_ptr@USpriteData@@@2@U?$less@V?$basic_string@DU?$char_traits@D@std@@V?$allocator@D@2@@std@@@2@V?$allocator@U?$pair@$$CBV?$basic_string@DU?$char_traits@D@std@@V?$allocator@D@2@@std@@V?$weak_ptr@USpriteData@@@2@@std@@@2@$0A@@std@@@std@@QAEPAU?$_Tree_node@U?$pair@$$CBV?$basic_string@DU?$char_traits@D@std@@V?$allocator@D@2@@std@@V?$weak_ptr@USpriteData@@@2@@std@@PAX@1@$$QAU?$pair@V?$basic_string@DU?$char_traits@D@std@@V?$allocator@D@2@@std@@V?$weak_ptr@USpriteData@@@2@@1@@Z 00415b40 f i BasicSpacecraft.obj
 0001:00014c40       ??$_Buynode@U?$pair@V?$basic_string@DU?$char_traits@D@std@@V?$allocator@D@2@@std@@V?$weak_ptr@VRawImageData@@@2@@std@@@?$_Tree_comp_alloc@V?$_Tmap_traits@V?$basic_string@DU?$char_traits@D@std@@V?$allocator@D@2@@std@@V?$weak_ptr@VRawImageData@@@2@U?$less@V?$basic_string@DU?$char_traits@D@std@@V?$allocator@D@2@@std@@@2@V?$allocator@U?$pair@$$CBV?$basic_string@DU?$char_traits@D@std@@V?$allocator@D@2@@std@@V?$weak_ptr@VRawImageData@@@2@@std@@@2@$0A@@std@@@std@@QAEPAU?$_Tree_node@U?$pair@$$CBV?$basic_string@DU?$char_traits@D@std@@V?$allocator@D@2@@std@@V?$weak_ptr@VRawImageData@@@2@@std@@PAX@1@$$QAU?$pair@V?$basic_string@DU?$char_traits@D@std@@V?$allocator@D@2@@std@@V?$weak_ptr@VRawImageData@@@2@@1@@Z 00415c40 f i BasicSpacecraft.obj
 0001:00014d40       ??$_Construct_from_weak@USpriteData@@@?$_Ptr_base@USpriteData@@@std@@IAE_NABV?$weak_ptr@USpriteData@@@1@@Z 00415d40 f i BasicSpacecraft.obj
 0001:00014da0       ??$_Construct_from_weak@VRawImageData@@@?$_Ptr_base@VRawImageData@@@std@@IAE_NABV?$weak_ptr@VRawImageData@@@1@@Z 00415da0 f i BasicSpacecraft.obj
 0001:00014e00       ??$_Convert_size@I@std@@YAII@Z 00415e00 f i BasicSpacecraft.obj
 0001:00014e10       ??$_Copy_construct_from@USpriteData@@@?$_Ptr_base@USpriteData@@@std@@IAEXABV?$shared_ptr@USpriteData@@@1@@Z 00415e10 f i BasicSpacecraft.obj
 0001:00014e60       ??$_Copy_construct_from@VRawImageData@@@?$_Ptr_base@VRawImageData@@@std@@IAEXABV?$shared_ptr@VRawImageData@@@1@@Z 00415e60 f i BasicSpacecraft.obj
 0001:00014eb0       ??$_Deallocate@$07$0A@@std@@YAXPAXI@Z 00415eb0 f i BasicSpacecraft.obj
 0001:00014ef0       ??$_Deallocate_plain@V?$allocator@U_Container_proxy@std@@@std@@$0A@@std@@YAXAAV?$allocator@U_Container_proxy@std@@@0@QAU_Container_proxy@0@@Z 00415ef0 f i BasicSpacecraft.obj
 0001:00014f10       ??$_Debug_lt_pred@AAU?$less@V?$basic_string@DU?$char_traits@D@std@@V?$allocator@D@2@@std@@@std@@ABV?$basic_string@DU?$char_traits@D@std@@V?$allocator@D@2@@2@ABV32@@std@@YA_NAAU?$less@V?$basic_string@DU?$char_traits@D@std@@V?$allocator@D@2@@std@@@0@ABV?$basic_string@DU?$char_traits@D@std@@V?$allocator@D@2@@0@1@Z 00415f10 f i BasicSpacecraft.obj
 0001:00014fc0       ??$_Debug_lt_pred@ABU?$less@V?$basic_string@DU?$char_traits@D@std@@V?$allocator@D@2@@std@@@std@@ABV?$basic_string@DU?$char_traits@D@std@@V?$allocator@D@2@@2@ABV32@@std@@YA_NABU?$less@V?$basic_string@DU?$char_traits@D@std@@V?$allocator@D@2@@std@@@0@ABV?$basic_string@DU?$char_traits@D@std@@V?$allocator@D@2@@0@1@Z 00415fc0 f i BasicSpacecraft.obj
 0001:00015070       ??$_Enable_shared_from_this1@USpriteData@@U1@@std@@YAXABV?$shared_ptr@USpriteData@@@0@PAUSpriteData@@U?$integral_constant@_N$0A@@0@@Z 00416070 f i BasicSpacecraft.obj
 0001:00015080       ??$_Enable_shared_from_this1@VRawImageData@@V1@@std@@YAXABV?$shared_ptr@VRawImageData@@@0@PAVRawImageData@@U?$integral_constant@_N$0A@@0@@Z 00416080 f i BasicSpacecraft.obj
 0001:00015090       ??$_Enable_shared_from_this@USpriteData@@U1@@std@@YAXABV?$shared_ptr@USpriteData@@@0@PAUSpriteData@@@Z 00416090 f i BasicSpacecraft.obj
 0001:000150c0       ??$_Enable_shared_from_this@VRawImageData@@V1@@std@@YAXABV?$shared_ptr@VRawImageData@@@0@PAVRawImageData@@@Z 004160c0 f i BasicSpacecraft.obj
 0001:000150f0       ??$_Freenode0@V?$allocator@U?$_Tree_node@U?$pair@$$CBV?$basic_string@DU?$char_traits@D@std@@V?$allocator@D@2@@std@@V?$shared_ptr@VRawImageData@@@2@@std@@PAX@std@@@std@@@?$_Tree_node@U?$pair@$$CBV?$basic_string@DU?$char_traits@D@std@@V?$allocator@D@2@@std@@V?$shared_ptr@VRawImageData@@@2@@std@@PAX@std@@SAXAAV?$allocator@U?$_Tree_node@U?$pair@$$CBV?$basic_string@DU?$char_traits@D@std@@V?$allocator@D@2@@std@@V?$shared_ptr@VRawImageData@@@2@@std@@PAX@std@@@1@PAU01@@Z 004160f0 f i BasicSpacecraft.obj
 0001:000151b0       ??$_Freenode0@V?$allocator@U?$_Tree_node@U?$pair@$$CBV?$basic_string@DU?$char_traits@D@std@@V?$allocator@D@2@@std@@V?$weak_ptr@USpriteData@@@2@@std@@PAX@std@@@std@@@?$_Tree_node@U?$pair@$$CBV?$basic_string@DU?$char_traits@D@std@@V?$allocator@D@2@@std@@V?$weak_ptr@USpriteData@@@2@@std@@PAX@std@@SAXAAV?$allocator@U?$_Tree_node@U?$pair@$$CBV?$basic_string@DU?$char_traits@D@std@@V?$allocator@D@2@@std@@V?$weak_ptr@USpriteData@@@2@@std@@PAX@std@@@1@PAU01@@Z 004161b0 f i BasicSpacecraft.obj
 0001:00015270       ??$_Freenode0@V?$allocator@U?$_Tree_node@U?$pair@$$CBV?$basic_string@DU?$char_traits@D@std@@V?$allocator@D@2@@std@@V?$weak_ptr@VRawImageData@@@2@@std@@PAX@std@@@std@@@?$_Tree_node@U?$pair@$$CBV?$basic_string@DU?$char_traits@D@std@@V?$allocator@D@2@@std@@V?$weak_ptr@VRawImageData@@@2@@std@@PAX@std@@SAXAAV?$allocator@U?$_Tree_node@U?$pair@$$CBV?$basic_string@DU?$char_traits@D@std@@V?$allocator@D@2@@std@@V?$weak_ptr@VRawImageData@@@2@@std@@PAX@std@@@1@PAU01@@Z 00416270 f i BasicSpacecraft.obj
 0001:00015330       ??$_Get_size_of_n@$00@std@@YAII@Z 00416330 f i BasicSpacecraft.obj
 0001:00015340       ??$_Get_size_of_n@$07@std@@YAII@Z 00416340 f i BasicSpacecraft.obj
 0001:00015380       ??$_Get_size_of_n@$0DE@@std@@YAII@Z 00416380 f i BasicSpacecraft.obj
 0001:000153c0       ??$_Insert_at@AAU?$pair@$$CBV?$basic_string@DU?$char_traits@D@std@@V?$allocator@D@2@@std@@V?$shared_ptr@VRawImageData@@@2@@std@@PAU?$_Tree_node@U?$pair@$$CBV?$basic_string@DU?$char_traits@D@std@@V?$allocator@D@2@@std@@V?$shared_ptr@VRawImageData@@@2@@std@@PAX@2@@?$_Tree@V?$_Tmap_traits@V?$basic_string@DU?$char_traits@D@std@@V?$allocator@D@2@@std@@V?$shared_ptr@VRawImageData@@@2@U?$less@V?$basic_string@DU?$char_traits@D@std@@V?$allocator@D@2@@std@@@2@V?$allocator@U?$pair@$$CBV?$basic_string@DU?$char_traits@D@std@@V?$allocator@D@2@@std@@V?$shared_ptr@VRawImageData@@@2@@std@@@2@$0A@@std@@@std@@IAE?AV?$_Tree_iterator@V?$_Tree_val@U?$_Tree_simple_types@U?$pair@$$CBV?$basic_string@DU?$char_traits@D@std@@V?$allocator@D@2@@std@@V?$shared_ptr@VRawImageData@@@2@@std@@@std@@@std@@@1@_NPAU?$_Tree_node@U?$pair@$$CBV?$basic_string@DU?$char_traits@D@std@@V?$allocator@D@2@@std@@V?$shared_ptr@VRawImageData@@@2@@std@@PAX@1@AAU?$pair@$$CBV?$basic_string@DU?$char_traits@D@std@@V?$allocator@D@2@@std@@V?$shared_ptr@VRawImageData@@@2@@1@1@Z 004163c0 f i BasicSpacecraft.obj
 0001:00015700       ??$_Insert_at@AAU?$pair@$$CBV?$basic_string@DU?$char_traits@D@std@@V?$allocator@D@2@@std@@V?$weak_ptr@USpriteData@@@2@@std@@PAU?$_Tree_node@U?$pair@$$CBV?$basic_string@DU?$char_traits@D@std@@V?$allocator@D@2@@std@@V?$weak_ptr@USpriteData@@@2@@std@@PAX@2@@?$_Tree@V?$_Tmap_traits@V?$basic_string@DU?$char_traits@D@std@@V?$allocator@D@2@@std@@V?$weak_ptr@USpriteData@@@2@U?$less@V?$basic_string@DU?$char_traits@D@std@@V?$allocator@D@2@@std@@@2@V?$allocator@U?$pair@$$CBV?$basic_string@DU?$char_traits@D@std@@V?$allocator@D@2@@std@@V?$weak_ptr@USpriteData@@@2@@std@@@2@$0A@@std@@@std@@IAE?AV?$_Tree_iterator@V?$_Tree_val@U?$_Tree_simple_types@U?$pair@$$CBV?$basic_string@DU?$char_traits@D@std@@V?$allocator@D@2@@std@@V?$weak_ptr@USpriteData@@@2@@std@@@std@@@std@@@1@_NPAU?$_Tree_node@U?$pair@$$CBV?$basic_string@DU?$char_traits@D@std@@V?$allocator@D@2@@std@@V?$weak_ptr@USpriteData@@@2@@std@@PAX@1@AAU?$pair@$$CBV?$basic_string@DU?$char_traits@D@std@@V?$allocator@D@2@@std@@V?$weak_ptr@USpriteData@@@2@@1@1@Z 00416700 f i BasicSpacecraft.obj
 0001:00015a40       ??$_Insert_at@AAU?$pair@$$CBV?$basic_string@DU?$char_traits@D@std@@V?$allocator@D@2@@std@@V?$weak_ptr@VRawImageData@@@2@@std@@PAU?$_Tree_node@U?$pair@$$CBV?$basic_string@DU?$char_traits@D@std@@V?$allocator@D@2@@std@@V?$weak_ptr@VRawImageData@@@2@@std@@PAX@2@@?$_Tree@V?$_Tmap_traits@V?$basic_string@DU?$char_traits@D@std@@V?$allocator@D@2@@std@@V?$weak_ptr@VRawImageData@@@2@U?$less@V?$basic_string@DU?$char_traits@D@std@@V?$allocator@D@2@@std@@@2@V?$allocator@U?$pair@$$CBV?$basic_string@DU?$char_traits@D@std@@V?$allocator@D@2@@std@@V?$weak_ptr@VRawImageData@@@2@@std@@@2@$0A@@std@@@std@@IAE?AV?$_Tree_iterator@V?$_Tree_val@U?$_Tree_simple_types@U?$pair@$$CBV?$basic_string@DU?$char_traits@D@std@@V?$allocator@D@2@@std@@V?$weak_ptr@VRawImageData@@@2@@std@@@std@@@std@@@1@_NPAU?$_Tree_node@U?$pair@$$CBV?$basic_string@DU?$char_traits@D@std@@V?$allocator@D@2@@std@@V?$weak_ptr@VRawImageData@@@2@@std@@PAX@1@AAU?$pair@$$CBV?$basic_string@DU?$char_traits@D@std@@V?$allocator@D@2@@std@@V?$weak_ptr@VRawImageData@@@2@@1@1@Z 00416a40 f i BasicSpacecraft.obj
 0001:00015d80       ??$_Insert_nohint@AAU?$pair@$$CBV?$basic_string@DU?$char_traits@D@std@@V?$allocator@D@2@@std@@V?$shared_ptr@VRawImageData@@@2@@std@@PAU?$_Tree_node@U?$pair@$$CBV?$basic_string@DU?$char_traits@D@std@@V?$allocator@D@2@@std@@V?$shared_ptr@VRawImageData@@@2@@std@@PAX@2@@?$_Tree@V?$_Tmap_traits@V?$basic_string@DU?$char_traits@D@std@@V?$allocator@D@2@@std@@V?$shared_ptr@VRawImageData@@@2@U?$less@V?$basic_string@DU?$char_traits@D@std@@V?$allocator@D@2@@std@@@2@V?$allocator@U?$pair@$$CBV?$basic_string@DU?$char_traits@D@std@@V?$allocator@D@2@@std@@V?$shared_ptr@VRawImageData@@@2@@std@@@2@$0A@@std@@@std@@IAE?AU?$pair@V?$_Tree_iterator@V?$_Tree_val@U?$_Tree_simple_types@U?$pair@$$CBV?$basic_string@DU?$char_traits@D@std@@V?$allocator@D@2@@std@@V?$shared_ptr@VRawImageData@@@2@@std@@@std@@@std@@@std@@_N@1@_NAAU?$pair@$$CBV?$basic_string@DU?$char_traits@D@std@@V?$allocator@D@2@@std@@V?$shared_ptr@VRawImageData@@@2@@1@PAU?$_Tree_node@U?$pair@$$CBV?$basic_string@DU?$char_traits@D@std@@V?$allocator@D@2@@std@@V?$shared_ptr@VRawImageData@@@2@@std@@PAX@1@@Z 00416d80 f i BasicSpacecraft.obj
 0001:00016230       ??$_Insert_nohint@AAU?$pair@$$CBV?$basic_string@DU?$char_traits@D@std@@V?$allocator@D@2@@std@@V?$weak_ptr@USpriteData@@@2@@std@@PAU?$_Tree_node@U?$pair@$$CBV?$basic_string@DU?$char_traits@D@std@@V?$allocator@D@2@@std@@V?$weak_ptr@USpriteData@@@2@@std@@PAX@2@@?$_Tree@V?$_Tmap_traits@V?$basic_string@DU?$char_traits@D@std@@V?$allocator@D@2@@std@@V?$weak_ptr@USpriteData@@@2@U?$less@V?$basic_string@DU?$char_traits@D@std@@V?$allocator@D@2@@std@@@2@V?$allocator@U?$pair@$$CBV?$basic_string@DU?$char_traits@D@std@@V?$allocator@D@2@@std@@V?$weak_ptr@USpriteData@@@2@@std@@@2@$0A@@std@@@std@@IAE?AU?$pair@V?$_Tree_iterator@V?$_Tree_val@U?$_Tree_simple_types@U?$pair@$$CBV?$basic_string@DU?$char_traits@D@std@@V?$allocator@D@2@@std@@V?$weak_ptr@USpriteData@@@2@@std@@@std@@@std@@@std@@_N@1@_NAAU?$pair@$$CBV?$basic_string@DU?$char_traits@D@std@@V?$allocator@D@2@@std@@V?$weak_ptr@USpriteData@@@2@@1@PAU?$_Tree_node@U?$pair@$$CBV?$basic_string@DU?$char_traits@D@std@@V?$allocator@D@2@@std@@V?$weak_ptr@USpriteData@@@2@@std@@PAX@1@@Z 00417230 f i BasicSpacecraft.obj
 0001:000166e0       ??$_Insert_nohint@AAU?$pair@$$CBV?$basic_string@DU?$char_traits@D@std@@V?$allocator@D@2@@std@@V?$weak_ptr@VRawImageData@@@2@@std@@PAU?$_Tree_node@U?$pair@$$CBV?$basic_string@DU?$char_traits@D@std@@V?$allocator@D@2@@std@@V?$weak_ptr@VRawImageData@@@2@@std@@PAX@2@@?$_Tree@V?$_Tmap_traits@V?$basic_string@DU?$char_traits@D@std@@V?$allocator@D@2@@std@@V?$weak_ptr@VRawImageData@@@2@U?$less@V?$basic_string@DU?$char_traits@D@std@@V?$allocator@D@2@@std@@@2@V?$allocator@U?$pair@$$CBV?$basic_string@DU?$char_traits@D@std@@V?$allocator@D@2@@std@@V?$weak_ptr@VRawImageData@@@2@@std@@@2@$0A@@std@@@std@@IAE?AU?$pair@V?$_Tree_iterator@V?$_Tree_val@U?$_Tree_simple_types@U?$pair@$$CBV?$basic_string@DU?$char_traits@D@std@@V?$allocator@D@2@@std@@V?$weak_ptr@VRawImageData@@@2@@std@@@std@@@std@@@std@@_N@1@_NAAU?$pair@$$CBV?$basic_string@DU?$char_traits@D@std@@V?$allocator@D@2@@std@@V?$weak_ptr@VRawImageData@@@2@@1@PAU?$_Tree_node@U?$pair@$$CBV?$basic_string@DU?$char_traits@D@std@@V?$allocator@D@2@@std@@V?$weak_ptr@VRawImageData@@@2@@std@@PAX@1@@Z 004176e0 f i BasicSpacecraft.obj
 0001:00016b90       ??$_Insert_string@DU?$char_traits@D@std@@I@std@@YAAAV?$basic_ostream@DU?$char_traits@D@std@@@0@AAV10@QBDI@Z 00417b90 f i BasicSpacecraft.obj
 0001:00016f20       ??$_Kfn@$$CBV?$basic_string@DU?$char_traits@D@std@@V?$allocator@D@2@@std@@V?$shared_ptr@VRawImageData@@@2@@?$_Tmap_traits@V?$basic_string@DU?$char_traits@D@std@@V?$allocator@D@2@@std@@V?$shared_ptr@VRawImageData@@@2@U?$less@V?$basic_string@DU?$char_traits@D@std@@V?$allocator@D@2@@std@@@2@V?$allocator@U?$pair@$$CBV?$basic_string@DU?$char_traits@D@std@@V?$allocator@D@2@@std@@V?$shared_ptr@VRawImageData@@@2@@std@@@2@$0A@@std@@SAABV?$basic_string@DU?$char_traits@D@std@@V?$allocator@D@2@@1@ABU?$pair@$$CBV?$basic_string@DU?$char_traits@D@std@@V?$allocator@D@2@@std@@V?$shared_ptr@VRawImageData@@@2@@1@@Z 00417f20 f i BasicSpacecraft.obj
 0001:00016f30       ??$_Kfn@$$CBV?$basic_string@DU?$char_traits@D@std@@V?$allocator@D@2@@std@@V?$weak_ptr@USpriteData@@@2@@?$_Tmap_traits@V?$basic_string@DU?$char_traits@D@std@@V?$allocator@D@2@@std@@V?$weak_ptr@USpriteData@@@2@U?$less@V?$basic_string@DU?$char_traits@D@std@@V?$allocator@D@2@@std@@@2@V?$allocator@U?$pair@$$CBV?$basic_string@DU?$char_traits@D@std@@V?$allocator@D@2@@std@@V?$weak_ptr@USpriteData@@@2@@std@@@2@$0A@@std@@SAABV?$basic_string@DU?$char_traits@D@std@@V?$allocator@D@2@@1@ABU?$pair@$$CBV?$basic_string@DU?$char_traits@D@std@@V?$allocator@D@2@@std@@V?$weak_ptr@USpriteData@@@2@@1@@Z 00417f30 f i BasicSpacecraft.obj
 0001:00016f40       ??$_Kfn@$$CBV?$basic_string@DU?$char_traits@D@std@@V?$allocator@D@2@@std@@V?$weak_ptr@VRawImageData@@@2@@?$_Tmap_traits@V?$basic_string@DU?$char_traits@D@std@@V?$allocator@D@2@@std@@V?$weak_ptr@VRawImageData@@@2@U?$less@V?$basic_string@DU?$char_traits@D@std@@V?$allocator@D@2@@std@@@2@V?$allocator@U?$pair@$$CBV?$basic_string@DU?$char_traits@D@std@@V?$allocator@D@2@@std@@V?$weak_ptr@VRawImageData@@@2@@std@@@2@$0A@@std@@SAABV?$basic_string@DU?$char_traits@D@std@@V?$allocator@D@2@@1@ABU?$pair@$$CBV?$basic_string@DU?$char_traits@D@std@@V?$allocator@D@2@@std@@V?$weak_ptr@VRawImageData@@@2@@1@@Z 00417f40 f i BasicSpacecraft.obj
 0001:00016f50       ??$_Lbound@V?$basic_string@DU?$char_traits@D@std@@V?$allocator@D@2@@std@@@?$_Tree@V?$_Tmap_traits@V?$basic_string@DU?$char_traits@D@std@@V?$allocator@D@2@@std@@V?$weak_ptr@USpriteData@@@2@U?$less@V?$basic_string@DU?$char_traits@D@std@@V?$allocator@D@2@@std@@@2@V?$allocator@U?$pair@$$CBV?$basic_string@DU?$char_traits@D@std@@V?$allocator@D@2@@std@@V?$weak_ptr@USpriteData@@@2@@std@@@2@$0A@@std@@@std@@IBEPAU?$_Tree_node@U?$pair@$$CBV?$basic_string@DU?$char_traits@D@std@@V?$allocator@D@2@@std@@V?$weak_ptr@USpriteData@@@2@@std@@PAX@1@ABV?$basic_string@DU?$char_traits@D@std@@V?$allocator@D@2@@1@@Z 00417f50 f i BasicSpacecraft.obj
 0001:00016fe0       ??$_Lbound@V?$basic_string@DU?$char_traits@D@std@@V?$allocator@D@2@@std@@@?$_Tree@V?$_Tmap_traits@V?$basic_string@DU?$char_traits@D@std@@V?$allocator@D@2@@std@@V?$weak_ptr@VRawImageData@@@2@U?$less@V?$basic_string@DU?$char_traits@D@std@@V?$allocator@D@2@@std@@@2@V?$allocator@U?$pair@$$CBV?$basic_string@DU?$char_traits@D@std@@V?$allocator@D@2@@std@@V?$weak_ptr@VRawImageData@@@2@@std@@@2@$0A@@std@@@std@@IBEPAU?$_Tree_node@U?$pair@$$CBV?$basic_string@DU?$char_traits@D@std@@V?$allocator@D@2@@std@@V?$weak_ptr@VRawImageData@@@2@@std@@PAX@1@ABV?$basic_string@DU?$char_traits@D@std@@V?$allocator@D@2@@1@@Z 00417fe0 f i BasicSpacecraft.obj
 0001:00017070       ??$_Max_value@I@std@@YAABIABI0@Z 00418070 f i BasicSpacecraft.obj
 0001:000170b0       ??$_Min_value@I@std@@YAABIABI0@Z 004180b0 f i BasicSpacecraft.obj
 0001:000170f0       ??$_Move_construct_from@USpriteData@@@?$_Ptr_base@USpriteData@@@std@@IAEX$$QAV01@@Z 004180f0 f i BasicSpacecraft.obj
 0001:00017140       ??$_Move_construct_from@VRawImageData@@@?$_Ptr_base@VRawImageData@@@std@@IAEX$$QAV01@@Z 00418140 f i BasicSpacecraft.obj
 0001:00017190       ??$_Pocca@V?$allocator@D@std@@@std@@YAXAAV?$allocator@D@0@ABV10@@Z 00418190 f i BasicSpacecraft.obj
 0001:000171c0       ??$_Pocca@V?$allocator@D@std@@@std@@YAXAAV?$allocator@D@0@ABV10@U?$integral_constant@_N$0A@@0@@Z 004181c0 f i BasicSpacecraft.obj
 0001:000171d0       ??$_Reallocate_for@V<lambda_9366063389c5f42a00a5088cf24e69de>@@PBD@?$basic_string@DU?$char_traits@D@std@@V?$allocator@D@2@@std@@QAEAAV01@IV<lambda_9366063389c5f42a00a5088cf24e69de>@@PBD@Z 004181d0 f i BasicSpacecraft.obj
 0001:000172f0       ??$_Set_ptr_rep_and_enable_shared@USpriteData@@@?$shared_ptr@USpriteData@@@std@@AAEXPAUSpriteData@@PAV_Ref_count_base@1@@Z 004182f0 f i BasicSpacecraft.obj
 0001:00017330       ??$_Set_ptr_rep_and_enable_shared@VRawImageData@@@?$shared_ptr@VRawImageData@@@std@@AAEXPAVRawImageData@@PAV_Ref_count_base@1@@Z 00418330 f i BasicSpacecraft.obj
 0001:00017370       ??$_Setp@USpriteData@@@?$shared_ptr@USpriteData@@@std@@AAEXPAUSpriteData@@U?$integral_constant@_N$0A@@1@@Z 00418370 f i BasicSpacecraft.obj
 0001:000174a0       ??$_Setp@VRawImageData@@@?$shared_ptr@VRawImageData@@@std@@AAEXPAVRawImageData@@U?$integral_constant@_N$0A@@1@@Z 004184a0 f i BasicSpacecraft.obj
 0001:000175d0       ??$_Traits_compare@U?$char_traits@D@std@@@std@@YAHQBDI0I@Z 004185d0 f i BasicSpacecraft.obj
 0001:00017640       ??$_Unfancy@D@std@@YAPADPAD@Z 00418640 f i BasicSpacecraft.obj
 0001:00017650       ??$_Unfancy@U_Container_proxy@std@@@std@@YAPAU_Container_proxy@0@PAU10@@Z 00418650 f i BasicSpacecraft.obj
 0001:00017660       ??$_Weakly_construct_from@USpriteData@@@?$_Ptr_base@USpriteData@@@std@@IAEXABV01@@Z 00418660 f i BasicSpacecraft.obj
 0001:000176b0       ??$_Weakly_construct_from@VRawImageData@@@?$_Ptr_base@VRawImageData@@@std@@IAEXABV01@@Z 004186b0 f i BasicSpacecraft.obj
 0001:00017700       ??$addressof@$$CBV?$basic_string@DU?$char_traits@D@std@@V?$allocator@D@2@@std@@@std@@YAPBV?$basic_string@DU?$char_traits@D@std@@V?$allocator@D@2@@0@ABV10@@Z 00418700 f i BasicSpacecraft.obj
 0001:00017710       ??$addressof@PAD@std@@YAPAPADAAPAD@Z 00418710 f i BasicSpacecraft.obj
 0001:00017720       ??$addressof@PAU?$_Tree_node@U?$pair@$$CBV?$basic_string@DU?$char_traits@D@std@@V?$allocator@D@2@@std@@V?$shared_ptr@VRawImageData@@@2@@std@@PAX@std@@@std@@YAPAPAU?$_Tree_node@U?$pair@$$CBV?$basic_string@DU?$char_traits@D@std@@V?$allocator@D@2@@std@@V?$shared_ptr@VRawImageData@@@2@@std@@PAX@0@AAPAU10@@Z 00418720 f i BasicSpacecraft.obj
 0001:00017730       ??$addressof@PAU?$_Tree_node@U?$pair@$$CBV?$basic_string@DU?$char_traits@D@std@@V?$allocator@D@2@@std@@V?$weak_ptr@USpriteData@@@2@@std@@PAX@std@@@std@@YAPAPAU?$_Tree_node@U?$pair@$$CBV?$basic_string@DU?$char_traits@D@std@@V?$allocator@D@2@@std@@V?$weak_ptr@USpriteData@@@2@@std@@PAX@0@AAPAU10@@Z 00418730 f i BasicSpacecraft.obj
 0001:00017740       ??$addressof@PAU?$_Tree_node@U?$pair@$$CBV?$basic_string@DU?$char_traits@D@std@@V?$allocator@D@2@@std@@V?$weak_ptr@VRawImageData@@@2@@std@@PAX@std@@@std@@YAPAPAU?$_Tree_node@U?$pair@$$CBV?$basic_string@DU?$char_traits@D@std@@V?$allocator@D@2@@std@@V?$weak_ptr@VRawImageData@@@2@@std@@PAX@0@AAPAU10@@Z 00418740 f i BasicSpacecraft.obj
 0001:00017750       ??$addressof@U?$pair@$$CBV?$basic_string@DU?$char_traits@D@std@@V?$allocator@D@2@@std@@V?$shared_ptr@VRawImageData@@@2@@std@@@std@@YAPAU?$pair@$$CBV?$basic_string@DU?$char_traits@D@std@@V?$allocator@D@2@@std@@V?$shared_ptr@VRawImageData@@@2@@0@AAU10@@Z 00418750 f i BasicSpacecraft.obj
 0001:00017760       ??$addressof@U?$pair@$$CBV?$basic_string@DU?$char_traits@D@std@@V?$allocator@D@2@@std@@V?$weak_ptr@USpriteData@@@2@@std@@@std@@YAPAU?$pair@$$CBV?$basic_string@DU?$char_traits@D@std@@V?$allocator@D@2@@std@@V?$weak_ptr@USpriteData@@@2@@0@AAU10@@Z 00418760 f i BasicSpacecraft.obj
 0001:00017770       ??$addressof@U?$pair@$$CBV?$basic_string@DU?$char_traits@D@std@@V?$allocator@D@2@@std@@V?$weak_ptr@VRawImageData@@@2@@std@@@std@@YAPAU?$pair@$$CBV?$basic_string@DU?$char_traits@D@std@@V?$allocator@D@2@@std@@V?$weak_ptr@VRawImageData@@@2@@0@AAU10@@Z 00418770 f i BasicSpacecraft.obj
 0001:00017780       ??$addressof@V?$_String_val@U?$_Simple_types@D@std@@@std@@@std@@YAPAV?$_String_val@U?$_Simple_types@D@std@@@0@AAV10@@Z 00418780 f i BasicSpacecraft.obj
 0001:00017790       ??$addressof@V?$_Tree_val@U?$_Tree_simple_types@U?$pair@$$CBV?$basic_string@DU?$char_traits@D@std@@V?$allocator@D@2@@std@@V?$shared_ptr@VRawImageData@@@2@@std@@@std@@@std@@@std@@YAPAV?$_Tree_val@U?$_Tree_simple_types@U?$pair@$$CBV?$basic_string@DU?$char_traits@D@std@@V?$allocator@D@2@@std@@V?$shared_ptr@VRawImageData@@@2@@std@@@std@@@0@AAV10@@Z 00418790 f i BasicSpacecraft.obj
 0001:000177a0       ??$addressof@V?$_Tree_val@U?$_Tree_simple_types@U?$pair@$$CBV?$basic_string@DU?$char_traits@D@std@@V?$allocator@D@2@@std@@V?$weak_ptr@USpriteData@@@2@@std@@@std@@@std@@@std@@YAPAV?$_Tree_val@U?$_Tree_simple_types@U?$pair@$$CBV?$basic_string@DU?$char_traits@D@std@@V?$allocator@D@2@@std@@V?$weak_ptr@USpriteData@@@2@@std@@@std@@@0@AAV10@@Z 004187a0 f i BasicSpacecraft.obj
 0001:000177b0       ??$addressof@V?$_Tree_val@U?$_Tree_simple_types@U?$pair@$$CBV?$basic_string@DU?$char_traits@D@std@@V?$allocator@D@2@@std@@V?$weak_ptr@VRawImageData@@@2@@std@@@std@@@std@@@std@@YAPAV?$_Tree_val@U?$_Tree_simple_types@U?$pair@$$CBV?$basic_string@DU?$char_traits@D@std@@V?$allocator@D@2@@std@@V?$weak_ptr@VRawImageData@@@2@@std@@@std@@@0@AAV10@@Z 004187b0 f i BasicSpacecraft.obj
 0001:000177c0       ??$construct@PADABQAD@?$_Default_allocator_traits@V?$allocator@D@std@@@std@@SAXAAV?$allocator@D@1@QAPADABQAD@Z 004187c0 f i BasicSpacecraft.obj
 0001:00017800       ??$construct@PAU?$_Tree_node@U?$pair@$$CBV?$basic_string@DU?$char_traits@D@std@@V?$allocator@D@2@@std@@V?$shared_ptr@VRawImageData@@@2@@std@@PAX@std@@AAPAU12@@?$_Default_allocator_traits@V?$allocator@U?$_Tree_node@U?$pair@$$CBV?$basic_string@DU?$char_traits@D@std@@V?$allocator@D@2@@std@@V?$shared_ptr@VRawImageData@@@2@@std@@PAX@std@@@std@@@std@@SAXAAV?$allocator@U?$_Tree_node@U?$pair@$$CBV?$basic_string@DU?$char_traits@D@std@@V?$allocator@D@2@@std@@V?$shared_ptr@VRawImageData@@@2@@std@@PAX@std@@@1@QAPAU?$_Tree_node@U?$pair@$$CBV?$basic_string@DU?$char_traits@D@std@@V?$allocator@D@2@@std@@V?$shared_ptr@VRawImageData@@@2@@std@@PAX@1@AAPAU31@@Z 00418800 f i BasicSpacecraft.obj
 0001:00017840       ??$construct@PAU?$_Tree_node@U?$pair@$$CBV?$basic_string@DU?$char_traits@D@std@@V?$allocator@D@2@@std@@V?$weak_ptr@USpriteData@@@2@@std@@PAX@std@@AAPAU12@@?$_Default_allocator_traits@V?$allocator@U?$_Tree_node@U?$pair@$$CBV?$basic_string@DU?$char_traits@D@std@@V?$allocator@D@2@@std@@V?$weak_ptr@USpriteData@@@2@@std@@PAX@std@@@std@@@std@@SAXAAV?$allocator@U?$_Tree_node@U?$pair@$$CBV?$basic_string@DU?$char_traits@D@std@@V?$allocator@D@2@@std@@V?$weak_ptr@USpriteData@@@2@@std@@PAX@std@@@1@QAPAU?$_Tree_node@U?$pair@$$CBV?$basic_string@DU?$char_traits@D@std@@V?$allocator@D@2@@std@@V?$weak_ptr@USpriteData@@@2@@std@@PAX@1@AAPAU31@@Z 00418840 f i BasicSpacecraft.obj
 0001:00017880       ??$construct@PAU?$_Tree_node@U?$pair@$$CBV?$basic_string@DU?$char_traits@D@std@@V?$allocator@D@2@@std@@V?$weak_ptr@VRawImageData@@@2@@std@@PAX@std@@AAPAU12@@?$_Default_allocator_traits@V?$allocator@U?$_Tree_node@U?$pair@$$CBV?$basic_string@DU?$char_traits@D@std@@V?$allocator@D@2@@std@@V?$weak_ptr@VRawImageData@@@2@@std@@PAX@std@@@std@@@std@@SAXAAV?$allocator@U?$_Tree_node@U?$pair@$$CBV?$basic_string@DU?$char_traits@D@std@@V?$allocator@D@2@@std@@V?$weak_ptr@VRawImageData@@@2@@std@@PAX@std@@@1@QAPAU?$_Tree_node@U?$pair@$$CBV?$basic_string@DU?$char_traits@D@std@@V?$allocator@D@2@@std@@V?$weak_ptr@VRawImageData@@@2@@std@@PAX@1@AAPAU31@@Z 00418880 f i BasicSpacecraft.obj
 0001:000178c0       ??$construct@U?$pair@$$CBV?$basic_string@DU?$char_traits@D@std@@V?$allocator@D@2@@std@@V?$shared_ptr@VRawImageData@@@2@@std@@U?$pair@V?$basic_string@DU?$char_traits@D@std@@V?$allocator@D@2@@std@@V?$shared_ptr@VRawImageData@@@2@@2@@?$_Default_allocator_traits@V?$allocator@U?$_Tree_node@U?$pair@$$CBV?$basic_string@DU?$char_traits@D@std@@V?$allocator@D@2@@std@@V?$shared_ptr@VRawImageData@@@2@@std@@PAX@std@@@std@@@std@@SAXAAV?$allocator@U?$_Tree_node@U?$pair@$$CBV?$basic_string@DU?$char_traits@D@std@@V?$allocator@D@2@@std@@V?$shared_ptr@VRawImageData@@@2@@std@@PAX@std@@@1@QAU?$pair@$$CBV?$basic_string@DU?$char_traits@D@std@@V?$allocator@D@2@@std@@V?$shared_ptr@VRawImageData@@@2@@1@$$QAU?$pair@V?$basic_string@DU?$char_traits@D@std@@V?$allocator@D@2@@std@@V?$shared_ptr@VRawImageData@@@2@@1@@Z 004188c0 f i BasicSpacecraft.obj
 0001:00017900       ??$construct@U?$pair@$$CBV?$basic_string@DU?$char_traits@D@std@@V?$allocator@D@2@@std@@V?$weak_ptr@USpriteData@@@2@@std@@U?$pair@V?$basic_string@DU?$char_traits@D@std@@V?$allocator@D@2@@std@@V?$weak_ptr@USpriteData@@@2@@2@@?$_Default_allocator_traits@V?$allocator@U?$_Tree_node@U?$pair@$$CBV?$basic_string@DU?$char_traits@D@std@@V?$allocator@D@2@@std@@V?$weak_ptr@USpriteData@@@2@@std@@PAX@std@@@std@@@std@@SAXAAV?$allocator@U?$_Tree_node@U?$pair@$$CBV?$basic_string@DU?$char_traits@D@std@@V?$allocator@D@2@@std@@V?$weak_ptr@USpriteData@@@2@@std@@PAX@std@@@1@QAU?$pair@$$CBV?$basic_string@DU?$char_traits@D@std@@V?$allocator@D@2@@std@@V?$weak_ptr@USpriteData@@@2@@1@$$QAU?$pair@V?$basic_string@DU?$char_traits@D@std@@V?$allocator@D@2@@std@@V?$weak_ptr@USpriteData@@@2@@1@@Z 00418900 f i BasicSpacecraft.obj
 0001:00017940       ??$construct@U?$pair@$$CBV?$basic_string@DU?$char_traits@D@std@@V?$allocator@D@2@@std@@V?$weak_ptr@VRawImageData@@@2@@std@@U?$pair@V?$basic_string@DU?$char_traits@D@std@@V?$allocator@D@2@@std@@V?$weak_ptr@VRawImageData@@@2@@2@@?$_Default_allocator_traits@V?$allocator@U?$_Tree_node@U?$pair@$$CBV?$basic_string@DU?$char_traits@D@std@@V?$allocator@D@2@@std@@V?$weak_ptr@VRawImageData@@@2@@std@@PAX@std@@@std@@@std@@SAXAAV?$allocator@U?$_Tree_node@U?$pair@$$CBV?$basic_string@DU?$char_traits@D@std@@V?$allocator@D@2@@std@@V?$weak_ptr@VRawImageData@@@2@@std@@PAX@std@@@1@QAU?$pair@$$CBV?$basic_string@DU?$char_traits@D@std@@V?$allocator@D@2@@std@@V?$weak_ptr@VRawImageData@@@2@@1@$$QAU?$pair@V?$basic_string@DU?$char_traits@D@std@@V?$allocator@D@2@@std@@V?$weak_ptr@VRawImageData@@@2@@1@@Z 00418940 f i BasicSpacecraft.obj
 0001:00017980       ??$construct@U_Container_proxy@std@@U12@@?$_Default_allocator_traits@V?$allocator@U_Container_proxy@std@@@std@@@std@@SAXAAV?$allocator@U_Container_proxy@std@@@1@QAU_Container_proxy@1@$$QAU31@@Z 00418980 f i BasicSpacecraft.obj
 0001:000179c0       ??$destroy@PAD@?$_Default_allocator_traits@V?$allocator@D@std@@@std@@SAXAAV?$allocator@D@1@QAPAD@Z 004189c0 f i BasicSpacecraft.obj
 0001:000179d0       ??$destroy@PAU?$_Tree_node@U?$pair@$$CBV?$basic_string@DU?$char_traits@D@std@@V?$allocator@D@2@@std@@V?$shared_ptr@VRawImageData@@@2@@std@@PAX@std@@@?$_Default_allocator_traits@V?$allocator@U?$_Tree_node@U?$pair@$$CBV?$basic_string@DU?$char_traits@D@std@@V?$allocator@D@2@@std@@V?$shared_ptr@VRawImageData@@@2@@std@@PAX@std@@@std@@@std@@SAXAAV?$allocator@U?$_Tree_node@U?$pair@$$CBV?$basic_string@DU?$char_traits@D@std@@V?$allocator@D@2@@std@@V?$shared_ptr@VRawImageData@@@2@@std@@PAX@std@@@1@QAPAU?$_Tree_node@U?$pair@$$CBV?$basic_string@DU?$char_traits@D@std@@V?$allocator@D@2@@std@@V?$shared_ptr@VRawImageData@@@2@@std@@PAX@1@@Z 004189d0 f i BasicSpacecraft.obj
 0001:000179e0       ??$destroy@PAU?$_Tree_node@U?$pair@$$CBV?$basic_string@DU?$char_traits@D@std@@V?$allocator@D@2@@std@@V?$weak_ptr@USpriteData@@@2@@std@@PAX@std@@@?$_Default_allocator_traits@V?$allocator@U?$_Tree_node@U?$pair@$$CBV?$basic_string@DU?$char_traits@D@std@@V?$allocator@D@2@@std@@V?$weak_ptr@USpriteData@@@2@@std@@PAX@std@@@std@@@std@@SAXAAV?$allocator@U?$_Tree_node@U?$pair@$$CBV?$basic_string@DU?$char_traits@D@std@@V?$allocator@D@2@@std@@V?$weak_ptr@USpriteData@@@2@@std@@PAX@std@@@1@QAPAU?$_Tree_node@U?$pair@$$CBV?$basic_string@DU?$char_traits@D@std@@V?$allocator@D@2@@std@@V?$weak_ptr@USpriteData@@@2@@std@@PAX@1@@Z 004189e0 f i BasicSpacecraft.obj
 0001:000179f0       ??$destroy@PAU?$_Tree_node@U?$pair@$$CBV?$basic_string@DU?$char_traits@D@std@@V?$allocator@D@2@@std@@V?$weak_ptr@VRawImageData@@@2@@std@@PAX@std@@@?$_Default_allocator_traits@V?$allocator@U?$_Tree_node@U?$pair@$$CBV?$basic_string@DU?$char_traits@D@std@@V?$allocator@D@2@@std@@V?$weak_ptr@VRawImageData@@@2@@std@@PAX@std@@@std@@@std@@SAXAAV?$allocator@U?$_Tree_node@U?$pair@$$CBV?$basic_string@DU?$char_traits@D@std@@V?$allocator@D@2@@std@@V?$weak_ptr@VRawImageData@@@2@@std@@PAX@std@@@1@QAPAU?$_Tree_node@U?$pair@$$CBV?$basic_string@DU?$char_traits@D@std@@V?$allocator@D@2@@std@@V?$weak_ptr@VRawImageData@@@2@@std@@PAX@1@@Z 004189f0 f i BasicSpacecraft.obj
 0001:00017a00       ??$destroy@U?$pair@$$CBV?$basic_string@DU?$char_traits@D@std@@V?$allocator@D@2@@std@@V?$shared_ptr@VRawImageData@@@2@@std@@@?$_Default_allocator_traits@V?$allocator@U?$_Tree_node@U?$pair@$$CBV?$basic_string@DU?$char_traits@D@std@@V?$allocator@D@2@@std@@V?$shared_ptr@VRawImageData@@@2@@std@@PAX@std@@@std@@@std@@SAXAAV?$allocator@U?$_Tree_node@U?$pair@$$CBV?$basic_string@DU?$char_traits@D@std@@V?$allocator@D@2@@std@@V?$shared_ptr@VRawImageData@@@2@@std@@PAX@std@@@1@QAU?$pair@$$CBV?$basic_string@DU?$char_traits@D@std@@V?$allocator@D@2@@std@@V?$shared_ptr@VRawImageData@@@2@@1@@Z 00418a00 f i BasicSpacecraft.obj
 0001:00017a20       ??$destroy@U?$pair@$$CBV?$basic_string@DU?$char_traits@D@std@@V?$allocator@D@2@@std@@V?$weak_ptr@USpriteData@@@2@@std@@@?$_Default_allocator_traits@V?$allocator@U?$_Tree_node@U?$pair@$$CBV?$basic_string@DU?$char_traits@D@std@@V?$allocator@D@2@@std@@V?$weak_ptr@USpriteData@@@2@@std@@PAX@std@@@std@@@std@@SAXAAV?$allocator@U?$_Tree_node@U?$pair@$$CBV?$basic_string@DU?$char_traits@D@std@@V?$allocator@D@2@@std@@V?$weak_ptr@USpriteData@@@2@@std@@PAX@std@@@1@QAU?$pair@$$CBV?$basic_string@DU?$char_traits@D@std@@V?$allocator@D@2@@std@@V?$weak_ptr@USpriteData@@@2@@1@@Z 00418a20 f i BasicSpacecraft.obj
 0001:00017a40       ??$destroy@U?$pair@$$CBV?$basic_string@DU?$char_traits@D@std@@V?$allocator@D@2@@std@@V?$weak_ptr@VRawImageData@@@2@@std@@@?$_Default_allocator_traits@V?$allocator@U?$_Tree_node@U?$pair@$$CBV?$basic_string@DU?$char_traits@D@std@@V?$allocator@D@2@@std@@V?$weak_ptr@VRawImageData@@@2@@std@@PAX@std@@@std@@@std@@SAXAAV?$allocator@U?$_Tree_node@U?$pair@$$CBV?$basic_string@DU?$char_traits@D@std@@V?$allocator@D@2@@std@@V?$weak_ptr@VRawImageData@@@2@@std@@PAX@std@@@1@QAU?$pair@$$CBV?$basic_string@DU?$char_traits@D@std@@V?$allocator@D@2@@std@@V?$weak_ptr@VRawImageData@@@2@@1@@Z 00418a40 f i BasicSpacecraft.obj
 0001:00017a60       ??$destroy@U_Container_proxy@std@@@?$_Default_allocator_traits@V?$allocator@U_Container_proxy@std@@@std@@@std@@SAXAAV?$allocator@U_Container_proxy@std@@@1@QAU_Container_proxy@1@@Z 00418a60 f i BasicSpacecraft.obj
 0001:00017a70       ??$emplace@U?$pair@V?$basic_string@DU?$char_traits@D@std@@V?$allocator@D@2@@std@@V?$shared_ptr@VRawImageData@@@2@@std@@@?$_Tree@V?$_Tmap_traits@V?$basic_string@DU?$char_traits@D@std@@V?$allocator@D@2@@std@@V?$shared_ptr@VRawImageData@@@2@U?$less@V?$basic_string@DU?$char_traits@D@std@@V?$allocator@D@2@@std@@@2@V?$allocator@U?$pair@$$CBV?$basic_string@DU?$char_traits@D@std@@V?$allocator@D@2@@std@@V?$shared_ptr@VRawImageData@@@2@@std@@@2@$0A@@std@@@std@@QAE?AU?$pair@V?$_Tree_iterator@V?$_Tree_val@U?$_Tree_simple_types@U?$pair@$$CBV?$basic_string@DU?$char_traits@D@std@@V?$allocator@D@2@@std@@V?$shared_ptr@VRawImageData@@@2@@std@@@std@@@std@@@std@@_N@1@$$QAU?$pair@V?$basic_string@DU?$char_traits@D@std@@V?$allocator@D@2@@std@@V?$shared_ptr@VRawImageData@@@2@@1@@Z 00418a70 f i BasicSpacecraft.obj
 0001:00017ae0       ??$emplace@U?$pair@V?$basic_string@DU?$char_traits@D@std@@V?$allocator@D@2@@std@@V?$weak_ptr@USpriteData@@@2@@std@@@?$_Tree@V?$_Tmap_traits@V?$basic_string@DU?$char_traits@D@std@@V?$allocator@D@2@@std@@V?$weak_ptr@USpriteData@@@2@U?$less@V?$basic_string@DU?$char_traits@D@std@@V?$allocator@D@2@@std@@@2@V?$allocator@U?$pair@$$CBV?$basic_string@DU?$char_traits@D@std@@V?$allocator@D@2@@std@@V?$weak_ptr@USpriteData@@@2@@std@@@2@$0A@@std@@@std@@QAE?AU?$pair@V?$_Tree_iterator@V?$_Tree_val@U?$_Tree_simple_types@U?$pair@$$CBV?$basic_string@DU?$char_traits@D@std@@V?$allocator@D@2@@std@@V?$weak_ptr@USpriteData@@@2@@std@@@std@@@std@@@std@@_N@1@$$QAU?$pair@V?$basic_string@DU?$char_traits@D@std@@V?$allocator@D@2@@std@@V?$weak_ptr@USpriteData@@@2@@1@@Z 00418ae0 f i BasicSpacecraft.obj
 0001:00017b50       ??$emplace@U?$pair@V?$basic_string@DU?$char_traits@D@std@@V?$allocator@D@2@@std@@V?$weak_ptr@VRawImageData@@@2@@std@@@?$_Tree@V?$_Tmap_traits@V?$basic_string@DU?$char_traits@D@std@@V?$allocator@D@2@@std@@V?$weak_ptr@VRawImageData@@@2@U?$less@V?$basic_string@DU?$char_traits@D@std@@V?$allocator@D@2@@std@@@2@V?$allocator@U?$pair@$$CBV?$basic_string@DU?$char_traits@D@std@@V?$allocator@D@2@@std@@V?$weak_ptr@VRawImageData@@@2@@std@@@2@$0A@@std@@@std@@QAE?AU?$pair@V?$_Tree_iterator@V?$_Tree_val@U?$_Tree_simple_types@U?$pair@$$CBV?$basic_string@DU?$char_traits@D@std@@V?$allocator@D@2@@std@@V?$weak_ptr@VRawImageData@@@2@@std@@@std@@@std@@@std@@_N@1@$$QAU?$pair@V?$basic_string@DU?$char_traits@D@std@@V?$allocator@D@2@@std@@V?$weak_ptr@VRawImageData@@@2@@1@@Z 00418b50 f i BasicSpacecraft.obj
 0001:00017bc0       ??$endl@DU?$char_traits@D@std@@@std@@YAAAV?$basic_ostream@DU?$char_traits@D@std@@@0@AAV10@@Z 00418bc0 f i BasicSpacecraft.obj
 0001:00017c00       ??$erase@V?$_Tree_iterator@V?$_Tree_val@U?$_Tree_simple_types@U?$pair@$$CBV?$basic_string@DU?$char_traits@D@std@@V?$allocator@D@2@@std@@V?$weak_ptr@USpriteData@@@2@@std@@@std@@@std@@@std@@X@?$_Tree@V?$_Tmap_traits@V?$basic_string@DU?$char_traits@D@std@@V?$allocator@D@2@@std@@V?$weak_ptr@USpriteData@@@2@U?$less@V?$basic_string@DU?$char_traits@D@std@@V?$allocator@D@2@@std@@@2@V?$allocator@U?$pair@$$CBV?$basic_string@DU?$char_traits@D@std@@V?$allocator@D@2@@std@@V?$weak_ptr@USpriteData@@@2@@std@@@2@$0A@@std@@@std@@QAE?AV?$_Tree_iterator@V?$_Tree_val@U?$_Tree_simple_types@U?$pair@$$CBV?$basic_string@DU?$char_traits@D@std@@V?$allocator@D@2@@std@@V?$weak_ptr@USpriteData@@@2@@std@@@std@@@std@@@1@V21@@Z 00418c00 f i BasicSpacecraft.obj
 0001:00017cb0       ??$erase@V?$_Tree_iterator@V?$_Tree_val@U?$_Tree_simple_types@U?$pair@$$CBV?$basic_string@DU?$char_traits@D@std@@V?$allocator@D@2@@std@@V?$weak_ptr@VRawImageData@@@2@@std@@@std@@@std@@@std@@X@?$_Tree@V?$_Tmap_traits@V?$basic_string@DU?$char_traits@D@std@@V?$allocator@D@2@@std@@V?$weak_ptr@VRawImageData@@@2@U?$less@V?$basic_string@DU?$char_traits@D@std@@V?$allocator@D@2@@std@@@2@V?$allocator@U?$pair@$$CBV?$basic_string@DU?$char_traits@D@std@@V?$allocator@D@2@@std@@V?$weak_ptr@VRawImageData@@@2@@std@@@2@$0A@@std@@@std@@QAE?AV?$_Tree_iterator@V?$_Tree_val@U?$_Tree_simple_types@U?$pair@$$CBV?$basic_string@DU?$char_traits@D@std@@V?$allocator@D@2@@std@@V?$weak_ptr@VRawImageData@@@2@@std@@@std@@@std@@@1@V21@@Z 00418cb0 f i BasicSpacecraft.obj
 0001:00017d60       ??$forward@AAPAU?$_Tree_node@U?$pair@$$CBV?$basic_string@DU?$char_traits@D@std@@V?$allocator@D@2@@std@@V?$shared_ptr@VRawImageData@@@2@@std@@PAX@std@@@std@@YAAAPAU?$_Tree_node@U?$pair@$$CBV?$basic_string@DU?$char_traits@D@std@@V?$allocator@D@2@@std@@V?$shared_ptr@VRawImageData@@@2@@std@@PAX@0@AAPAU10@@Z 00418d60 f i BasicSpacecraft.obj
 0001:00017d70       ??$forward@AAPAU?$_Tree_node@U?$pair@$$CBV?$basic_string@DU?$char_traits@D@std@@V?$allocator@D@2@@std@@V?$weak_ptr@USpriteData@@@2@@std@@PAX@std@@@std@@YAAAPAU?$_Tree_node@U?$pair@$$CBV?$basic_string@DU?$char_traits@D@std@@V?$allocator@D@2@@std@@V?$weak_ptr@USpriteData@@@2@@std@@PAX@0@AAPAU10@@Z 00418d70 f i BasicSpacecraft.obj
 0001:00017d80       ??$forward@AAPAU?$_Tree_node@U?$pair@$$CBV?$basic_string@DU?$char_traits@D@std@@V?$allocator@D@2@@std@@V?$weak_ptr@VRawImageData@@@2@@std@@PAX@std@@@std@@YAAAPAU?$_Tree_node@U?$pair@$$CBV?$basic_string@DU?$char_traits@D@std@@V?$allocator@D@2@@std@@V?$weak_ptr@VRawImageData@@@2@@std@@PAX@0@AAPAU10@@Z 00418d80 f i BasicSpacecraft.obj
 0001:00017d90       ??$forward@AAU?$pair@$$CBV?$basic_string@DU?$char_traits@D@std@@V?$allocator@D@2@@std@@V?$shared_ptr@VRawImageData@@@2@@std@@@std@@YAAAU?$pair@$$CBV?$basic_string@DU?$char_traits@D@std@@V?$allocator@D@2@@std@@V?$shared_ptr@VRawImageData@@@2@@0@AAU10@@Z 00418d90 f i BasicSpacecraft.obj
 0001:00017da0       ??$forward@AAU?$pair@$$CBV?$basic_string@DU?$char_traits@D@std@@V?$allocator@D@2@@std@@V?$weak_ptr@USpriteData@@@2@@std@@@std@@YAAAU?$pair@$$CBV?$basic_string@DU?$char_traits@D@std@@V?$allocator@D@2@@std@@V?$weak_ptr@USpriteData@@@2@@0@AAU10@@Z 00418da0 f i BasicSpacecraft.obj
 0001:00017db0       ??$forward@AAU?$pair@$$CBV?$basic_string@DU?$char_traits@D@std@@V?$allocator@D@2@@std@@V?$weak_ptr@VRawImageData@@@2@@std@@@std@@YAAAU?$pair@$$CBV?$basic_string@DU?$char_traits@D@std@@V?$allocator@D@2@@std@@V?$weak_ptr@VRawImageData@@@2@@0@AAU10@@Z 00418db0 f i BasicSpacecraft.obj
 0001:00017dc0       ??$forward@AAV?$_Tree_iterator@V?$_Tree_val@U?$_Tree_simple_types@U?$pair@$$CBV?$basic_string@DU?$char_traits@D@std@@V?$allocator@D@2@@std@@V?$shared_ptr@VRawImageData@@@2@@std@@@std@@@std@@@std@@@std@@YAAAV?$_Tree_iterator@V?$_Tree_val@U?$_Tree_simple_types@U?$pair@$$CBV?$basic_string@DU?$char_traits@D@std@@V?$allocator@D@2@@std@@V?$shared_ptr@VRawImageData@@@2@@std@@@std@@@std@@@0@AAV10@@Z 00418dc0 f i BasicSpacecraft.obj
 0001:00017dd0       ??$forward@AAV?$_Tree_iterator@V?$_Tree_val@U?$_Tree_simple_types@U?$pair@$$CBV?$basic_string@DU?$char_traits@D@std@@V?$allocator@D@2@@std@@V?$weak_ptr@USpriteData@@@2@@std@@@std@@@std@@@std@@@std@@YAAAV?$_Tree_iterator@V?$_Tree_val@U?$_Tree_simple_types@U?$pair@$$CBV?$basic_string@DU?$char_traits@D@std@@V?$allocator@D@2@@std@@V?$weak_ptr@USpriteData@@@2@@std@@@std@@@std@@@0@AAV10@@Z 00418dd0 f i BasicSpacecraft.obj
 0001:00017de0       ??$forward@AAV?$_Tree_iterator@V?$_Tree_val@U?$_Tree_simple_types@U?$pair@$$CBV?$basic_string@DU?$char_traits@D@std@@V?$allocator@D@2@@std@@V?$weak_ptr@VRawImageData@@@2@@std@@@std@@@std@@@std@@@std@@YAAAV?$_Tree_iterator@V?$_Tree_val@U?$_Tree_simple_types@U?$pair@$$CBV?$basic_string@DU?$char_traits@D@std@@V?$allocator@D@2@@std@@V?$weak_ptr@VRawImageData@@@2@@std@@@std@@@std@@@0@AAV10@@Z 00418de0 f i BasicSpacecraft.obj
 0001:00017df0       ??$forward@AAV?$basic_string@DU?$char_traits@D@std@@V?$allocator@D@2@@std@@@std@@YAAAV?$basic_string@DU?$char_traits@D@std@@V?$allocator@D@2@@0@AAV10@@Z 00418df0 f i BasicSpacecraft.obj
 0001:00017e00       ??$forward@AAV?$shared_ptr@VRawImageData@@@std@@@std@@YAAAV?$shared_ptr@VRawImageData@@@0@AAV10@@Z 00418e00 f i BasicSpacecraft.obj
 0001:00017e10       ??$forward@AAV?$weak_ptr@USpriteData@@@std@@@std@@YAAAV?$weak_ptr@USpriteData@@@0@AAV10@@Z 00418e10 f i BasicSpacecraft.obj
 0001:00017e20       ??$forward@AAV?$weak_ptr@VRawImageData@@@std@@@std@@YAAAV?$weak_ptr@VRawImageData@@@0@AAV10@@Z 00418e20 f i BasicSpacecraft.obj
 0001:00017e30       ??$forward@ABQAD@std@@YAABQADABQAD@Z 00418e30 f i BasicSpacecraft.obj
 0001:00017e40       ??$forward@ABU?$less@V?$basic_string@DU?$char_traits@D@std@@V?$allocator@D@2@@std@@@std@@@std@@YAABU?$less@V?$basic_string@DU?$char_traits@D@std@@V?$allocator@D@2@@std@@@0@ABU10@@Z 00418e40 f i BasicSpacecraft.obj
 0001:00017e50       ??$forward@U?$pair@V?$basic_string@DU?$char_traits@D@std@@V?$allocator@D@2@@std@@V?$shared_ptr@VRawImageData@@@2@@std@@@std@@YA$$QAU?$pair@V?$basic_string@DU?$char_traits@D@std@@V?$allocator@D@2@@std@@V?$shared_ptr@VRawImageData@@@2@@0@AAU10@@Z 00418e50 f i BasicSpacecraft.obj
 0001:00017e60       ??$forward@U?$pair@V?$basic_string@DU?$char_traits@D@std@@V?$allocator@D@2@@std@@V?$weak_ptr@USpriteData@@@2@@std@@@std@@YA$$QAU?$pair@V?$basic_string@DU?$char_traits@D@std@@V?$allocator@D@2@@std@@V?$weak_ptr@USpriteData@@@2@@0@AAU10@@Z 00418e60 f i BasicSpacecraft.obj
 0001:00017e70       ??$forward@U?$pair@V?$basic_string@DU?$char_traits@D@std@@V?$allocator@D@2@@std@@V?$weak_ptr@VRawImageData@@@2@@std@@@std@@YA$$QAU?$pair@V?$basic_string@DU?$char_traits@D@std@@V?$allocator@D@2@@std@@V?$weak_ptr@VRawImageData@@@2@@0@AAU10@@Z 00418e70 f i BasicSpacecraft.obj
 0001:00017e80       ??$forward@U_Container_proxy@std@@@std@@YA$$QAU_Container_proxy@0@AAU10@@Z 00418e80 f i BasicSpacecraft.obj
 0001:00017e90       ??$forward@U_Zero_then_variadic_args_t@std@@@std@@YA$$QAU_Zero_then_variadic_args_t@0@AAU10@@Z 00418e90 f i BasicSpacecraft.obj
 0001:00017ea0       ??$forward@V?$_Tree_iterator@V?$_Tree_val@U?$_Tree_simple_types@U?$pair@$$CBV?$basic_string@DU?$char_traits@D@std@@V?$allocator@D@2@@std@@V?$shared_ptr@VRawImageData@@@2@@std@@@std@@@std@@@std@@@std@@YA$$QAV?$_Tree_iterator@V?$_Tree_val@U?$_Tree_simple_types@U?$pair@$$CBV?$basic_string@DU?$char_traits@D@std@@V?$allocator@D@2@@std@@V?$shared_ptr@VRawImageData@@@2@@std@@@std@@@std@@@0@AAV10@@Z 00418ea0 f i BasicSpacecraft.obj
 0001:00017eb0       ??$forward@V?$_Tree_iterator@V?$_Tree_val@U?$_Tree_simple_types@U?$pair@$$CBV?$basic_string@DU?$char_traits@D@std@@V?$allocator@D@2@@std@@V?$weak_ptr@USpriteData@@@2@@std@@@std@@@std@@@std@@@std@@YA$$QAV?$_Tree_iterator@V?$_Tree_val@U?$_Tree_simple_types@U?$pair@$$CBV?$basic_string@DU?$char_traits@D@std@@V?$allocator@D@2@@std@@V?$weak_ptr@USpriteData@@@2@@std@@@std@@@std@@@0@AAV10@@Z 00418eb0 f i BasicSpacecraft.obj
 0001:00017ec0       ??$forward@V?$_Tree_iterator@V?$_Tree_val@U?$_Tree_simple_types@U?$pair@$$CBV?$basic_string@DU?$char_traits@D@std@@V?$allocator@D@2@@std@@V?$weak_ptr@VRawImageData@@@2@@std@@@std@@@std@@@std@@@std@@YA$$QAV?$_Tree_iterator@V?$_Tree_val@U?$_Tree_simple_types@U?$pair@$$CBV?$basic_string@DU?$char_traits@D@std@@V?$allocator@D@2@@std@@V?$weak_ptr@VRawImageData@@@2@@std@@@std@@@std@@@0@AAV10@@Z 00418ec0 f i BasicSpacecraft.obj
 0001:00017ed0       ??$forward@V?$allocator@D@std@@@std@@YA$$QAV?$allocator@D@0@AAV10@@Z 00418ed0 f i BasicSpacecraft.obj
 0001:00017ee0       ??$forward@V?$basic_string@DU?$char_traits@D@std@@V?$allocator@D@2@@std@@@std@@YA$$QAV?$basic_string@DU?$char_traits@D@std@@V?$allocator@D@2@@0@AAV10@@Z 00418ee0 f i BasicSpacecraft.obj
 0001:00017ef0       ??$forward@V?$shared_ptr@VRawImageData@@@std@@@std@@YA$$QAV?$shared_ptr@VRawImageData@@@0@AAV10@@Z 00418ef0 f i BasicSpacecraft.obj
 0001:00017f00       ??$forward@V?$weak_ptr@USpriteData@@@std@@@std@@YA$$QAV?$weak_ptr@USpriteData@@@0@AAV10@@Z 00418f00 f i BasicSpacecraft.obj
 0001:00017f10       ??$forward@V?$weak_ptr@VRawImageData@@@std@@@std@@YA$$QAV?$weak_ptr@VRawImageData@@@0@AAV10@@Z 00418f10 f i BasicSpacecraft.obj
 0001:00017f20       ??$forward@_N@std@@YA$$QA_NAA_N@Z 00418f20 f i BasicSpacecraft.obj
 0001:00017f30       ??$insert@U?$pair@V?$basic_string@DU?$char_traits@D@std@@V?$allocator@D@2@@std@@V?$shared_ptr@VRawImageData@@@2@@std@@X@?$map@V?$basic_string@DU?$char_traits@D@std@@V?$allocator@D@2@@std@@V?$shared_ptr@VRawImageData@@@2@U?$less@V?$basic_string@DU?$char_traits@D@std@@V?$allocator@D@2@@std@@@2@V?$allocator@U?$pair@$$CBV?$basic_string@DU?$char_traits@D@std@@V?$allocator@D@2@@std@@V?$shared_ptr@VRawImageData@@@2@@std@@@2@@std@@QAE?AU?$pair@V?$_Tree_iterator@V?$_Tree_val@U?$_Tree_simple_types@U?$pair@$$CBV?$basic_string@DU?$char_traits@D@std@@V?$allocator@D@2@@std@@V?$shared_ptr@VRawImageData@@@2@@std@@@std@@@std@@@std@@_N@1@$$QAU?$pair@V?$basic_string@DU?$char_traits@D@std@@V?$allocator@D@2@@std@@V?$shared_ptr@VRawImageData@@@2@@1@@Z 00418f30 f i BasicSpacecraft.obj
 0001:00017f80       ??$insert@U?$pair@V?$basic_string@DU?$char_traits@D@std@@V?$allocator@D@2@@std@@V?$weak_ptr@USpriteData@@@2@@std@@X@?$map@V?$basic_string@DU?$char_traits@D@std@@V?$allocator@D@2@@std@@V?$weak_ptr@USpriteData@@@2@U?$less@V?$basic_string@DU?$char_traits@D@std@@V?$allocator@D@2@@std@@@2@V?$allocator@U?$pair@$$CBV?$basic_string@DU?$char_traits@D@std@@V?$allocator@D@2@@std@@V?$weak_ptr@USpriteData@@@2@@std@@@2@@std@@QAE?AU?$pair@V?$_Tree_iterator@V?$_Tree_val@U?$_Tree_simple_types@U?$pair@$$CBV?$basic_string@DU?$char_traits@D@std@@V?$allocator@D@2@@std@@V?$weak_ptr@USpriteData@@@2@@std@@@std@@@std@@@std@@_N@1@$$QAU?$pair@V?$basic_string@DU?$char_traits@D@std@@V?$allocator@D@2@@std@@V?$weak_ptr@USpriteData@@@2@@1@@Z 00418f80 f i BasicSpacecraft.obj
 0001:00017fd0       ??$insert@U?$pair@V?$basic_string@DU?$char_traits@D@std@@V?$allocator@D@2@@std@@V?$weak_ptr@VRawImageData@@@2@@std@@X@?$map@V?$basic_string@DU?$char_traits@D@std@@V?$allocator@D@2@@std@@V?$weak_ptr@VRawImageData@@@2@U?$less@V?$basic_string@DU?$char_traits@D@std@@V?$allocator@D@2@@std@@@2@V?$allocator@U?$pair@$$CBV?$basic_string@DU?$char_traits@D@std@@V?$allocator@D@2@@std@@V?$weak_ptr@VRawImageData@@@2@@std@@@2@@std@@QAE?AU?$pair@V?$_Tree_iterator@V?$_Tree_val@U?$_Tree_simple_types@U?$pair@$$CBV?$basic_string@DU?$char_traits@D@std@@V?$allocator@D@2@@std@@V?$weak_ptr@VRawImageData@@@2@@std@@@std@@@std@@@std@@_N@1@$$QAU?$pair@V?$basic_string@DU?$char_traits@D@std@@V?$allocator@D@2@@std@@V?$weak_ptr@VRawImageData@@@2@@1@@Z 00418fd0 f i BasicSpacecraft.obj
 0001:00018020       ??$move@AAD@std@@YA$$QADAAD@Z 00419020 f i BasicSpacecraft.obj
 0001:00018030       ??$move@AAPAVRawImageData@@@std@@YA$$QAPAVRawImageData@@AAPAV1@@Z 00419030 f i BasicSpacecraft.obj
 0001:00018040       ??$move@AAPAV_Ref_count_base@std@@@std@@YA$$QAPAV_Ref_count_base@0@AAPAV10@@Z 00419040 f i BasicSpacecraft.obj
 0001:00018050       ??$move@AAV?$allocator@D@std@@@std@@YA$$QAV?$allocator@D@0@AAV10@@Z 00419050 f i BasicSpacecraft.obj
 0001:00018060       ??$move@AAV?$basic_string@DU?$char_traits@D@std@@V?$allocator@D@2@@std@@@std@@YA$$QAV?$basic_string@DU?$char_traits@D@std@@V?$allocator@D@2@@0@AAV10@@Z 00419060 f i BasicSpacecraft.obj
 0001:00018070       ??$move@AAV?$shared_ptr@USpriteData@@@std@@@std@@YA$$QAV?$shared_ptr@USpriteData@@@0@AAV10@@Z 00419070 f i BasicSpacecraft.obj
 0001:00018080       ??$move@AAV?$shared_ptr@VRawImageData@@@std@@@std@@YA$$QAV?$shared_ptr@VRawImageData@@@0@AAV10@@Z 00419080 f i BasicSpacecraft.obj
 0001:00018090       ??$move@AAV?$weak_ptr@USpriteData@@@std@@@std@@YA$$QAV?$weak_ptr@USpriteData@@@0@AAV10@@Z 00419090 f i BasicSpacecraft.obj
 0001:000180a0       ??$move@AAV?$weak_ptr@VRawImageData@@@std@@@std@@YA$$QAV?$weak_ptr@VRawImageData@@@0@AAV10@@Z 004190a0 f i BasicSpacecraft.obj
 0001:000180b0       ??$pow@HHX@@YANHH@Z        004190b0 f i BasicSpacecraft.obj
 0001:000180e0       ??$swap@DX@std@@YAXAAD0@Z  004190e0 f i BasicSpacecraft.obj
 0001:00018130       ??$swap@PAVRawImageData@@X@std@@YAXAAPAVRawImageData@@0@Z 00419130 f i BasicSpacecraft.obj
 0001:00018180       ??$swap@PAV_Ref_count_base@std@@X@std@@YAXAAPAV_Ref_count_base@0@0@Z 00419180 f i BasicSpacecraft.obj
 0001:000181d0       ??0?$GenericArray@$0A@V?$GenericValue@U?$UTF8@D@rapidjson@@V?$MemoryPoolAllocator@VCrtAllocator@rapidjson@@@2@@rapidjson@@@rapidjson@@AAE@AAV?$GenericValue@U?$UTF8@D@rapidjson@@V?$MemoryPoolAllocator@VCrtAllocator@rapidjson@@@2@@1@@Z 004191d0 f i BasicSpacecraft.obj
 0001:000181f0       ??0?$GenericDocument@U?$UTF8@D@rapidjson@@V?$MemoryPoolAllocator@VCrtAllocator@rapidjson@@@2@VCrtAllocator@2@@rapidjson@@QAE@PAV?$MemoryPoolAllocator@VCrtAllocator@rapidjson@@@1@IPAVCrtAllocator@1@@Z 004191f0 f i BasicSpacecraft.obj
 0001:00018310       ??0?$GenericMemberIterator@$00U?$UTF8@D@rapidjson@@V?$MemoryPoolAllocator@VCrtAllocator@rapidjson@@@2@@rapidjson@@QAE@ABV?$GenericMemberIterator@$0A@U?$UTF8@D@rapidjson@@V?$MemoryPoolAllocator@VCrtAllocator@rapidjson@@@2@@1@@Z 00419310 f i BasicSpacecraft.obj
 0001:00018330       ??0?$GenericMemberIterator@$0A@U?$UTF8@D@rapidjson@@V?$MemoryPoolAllocator@VCrtAllocator@rapidjson@@@2@@rapidjson@@AAE@PAV?$GenericMember@U?$UTF8@D@rapidjson@@V?$MemoryPoolAllocator@VCrtAllocator@rapidjson@@@2@@1@@Z 00419330 f i BasicSpacecraft.obj
 0001:00018350       ??0?$GenericMemberIterator@$0A@U?$UTF8@D@rapidjson@@V?$MemoryPoolAllocator@VCrtAllocator@rapidjson@@@2@@rapidjson@@QAE@ABV01@@Z 00419350 f i BasicSpacecraft.obj
 0001:00018370       ??0?$GenericReader@U?$UTF8@D@rapidjson@@U12@VCrtAllocator@2@@rapidjson@@QAE@PAVCrtAllocator@1@I@Z 00419370 f i BasicSpacecraft.obj
 0001:00018400       ??0?$GenericStringRef@D@rapidjson@@QAE@ABU01@@Z 00419400 f i BasicSpacecraft.obj
 0001:00018430       ??0?$GenericStringRef@D@rapidjson@@QAE@PBD@Z 00419430 f i BasicSpacecraft.obj
 0001:00018470       ??0?$GenericStringRef@D@rapidjson@@QAE@PBDI@Z 00419470 f i BasicSpacecraft.obj
 0001:000184f0       ??0?$GenericStringStream@U?$UTF8@D@rapidjson@@@rapidjson@@QAE@PBD@Z 004194f0 f i BasicSpacecraft.obj
 0001:00018520       ??0?$GenericValue@U?$UTF8@D@rapidjson@@V?$MemoryPoolAllocator@VCrtAllocator@rapidjson@@@2@@rapidjson@@QAE@H@Z 00419520 f i BasicSpacecraft.obj
 0001:00018590       ??0?$GenericValue@U?$UTF8@D@rapidjson@@V?$MemoryPoolAllocator@VCrtAllocator@rapidjson@@@2@@rapidjson@@QAE@I@Z 00419590 f i BasicSpacecraft.obj
 0001:00018600       ??0?$GenericValue@U?$UTF8@D@rapidjson@@V?$MemoryPoolAllocator@VCrtAllocator@rapidjson@@@2@@rapidjson@@QAE@N@Z 00419600 f i BasicSpacecraft.obj
 0001:00018650       ??0?$GenericValue@U?$UTF8@D@rapidjson@@V?$MemoryPoolAllocator@VCrtAllocator@rapidjson@@@2@@rapidjson@@QAE@PBDI@Z 00419650 f i BasicSpacecraft.obj
 0001:000186e0       ??0?$GenericValue@U?$UTF8@D@rapidjson@@V?$MemoryPoolAllocator@VCrtAllocator@rapidjson@@@2@@rapidjson@@QAE@PBDIAAV?$MemoryPoolAllocator@VCrtAllocator@rapidjson@@@1@@Z 004196e0 f i BasicSpacecraft.obj
 0001:00018740       ??0?$GenericValue@U?$UTF8@D@rapidjson@@V?$MemoryPoolAllocator@VCrtAllocator@rapidjson@@@2@@rapidjson@@QAE@U?$GenericStringRef@D@1@@Z 00419740 f i BasicSpacecraft.obj
 0001:000187c0       ??0?$GenericValue@U?$UTF8@D@rapidjson@@V?$MemoryPoolAllocator@VCrtAllocator@rapidjson@@@2@@rapidjson@@QAE@W4Type@1@@Z 004197c0 f i BasicSpacecraft.obj
 0001:00018880       ??0?$GenericValue@U?$UTF8@D@rapidjson@@V?$MemoryPoolAllocator@VCrtAllocator@rapidjson@@@2@@rapidjson@@QAE@XZ 00419880 f i BasicSpacecraft.obj
 0001:000188b0       ??0?$GenericValue@U?$UTF8@D@rapidjson@@V?$MemoryPoolAllocator@VCrtAllocator@rapidjson@@@2@@rapidjson@@QAE@_J@Z 004198b0 f i BasicSpacecraft.obj
 0001:000189c0       ??0?$GenericValue@U?$UTF8@D@rapidjson@@V?$MemoryPoolAllocator@VCrtAllocator@rapidjson@@@2@@rapidjson@@QAE@_K@Z 004199c0 f i BasicSpacecraft.obj
 0001:00018ab0       ??0?$MemoryPoolAllocator@VCrtAllocator@rapidjson@@@rapidjson@@QAE@IPAVCrtAllocator@1@@Z 00419ab0 f i BasicSpacecraft.obj
 0001:00018b00       ??0?$NumberStream@VFileReadStream@rapidjson@@$0A@$0A@@?$GenericReader@U?$UTF8@D@rapidjson@@U12@VCrtAllocator@2@@rapidjson@@QAE@AAV12@AAVFileReadStream@2@@Z 00419b00 f i BasicSpacecraft.obj
 0001:00018b20       ??0?$Stack@VCrtAllocator@rapidjson@@@internal@rapidjson@@QAE@PAVCrtAllocator@2@I@Z 00419b20 f i BasicSpacecraft.obj
 0001:00018b80       ??0?$StackStream@D@?$GenericReader@U?$UTF8@D@rapidjson@@U12@VCrtAllocator@2@@rapidjson@@QAE@AAV?$Stack@VCrtAllocator@rapidjson@@@internal@2@@Z 00419b80 f i BasicSpacecraft.obj
 0001:00018bb0       ??0?$StreamLocalCopy@VFileReadStream@rapidjson@@$0A@@internal@rapidjson@@QAE@AAVFileReadStream@2@@Z 00419bb0 f i BasicSpacecraft.obj
 0001:00018bd0       ??0?$_Ptr_base@USpriteData@@@std@@IAE@XZ 00419bd0 f i BasicSpacecraft.obj
 0001:00018c00       ??0?$_Ptr_base@VRawImageData@@@std@@IAE@XZ 00419c00 f i BasicSpacecraft.obj
 0001:00018c30       ??0?$_Ref_count@USpriteData@@@std@@QAE@PAUSpriteData@@@Z 00419c30 f i BasicSpacecraft.obj
 0001:00018c70       ??0?$_Ref_count@VRawImageData@@@std@@QAE@PAVRawImageData@@@Z 00419c70 f i BasicSpacecraft.obj
 0001:00018cb0       ??0?$_String_alloc@U?$_String_base_types@DV?$allocator@D@std@@@std@@@std@@QAE@XZ 00419cb0 f i BasicSpacecraft.obj
 0001:00018d30       ??0?$_String_val@U?$_Simple_types@D@std@@@std@@QAE@XZ 00419d30 f i BasicSpacecraft.obj
 0001:00018d80       ??0?$_Tree@V?$_Tmap_traits@V?$basic_string@DU?$char_traits@D@std@@V?$allocator@D@2@@std@@V?$shared_ptr@VRawImageData@@@2@U?$less@V?$basic_string@DU?$char_traits@D@std@@V?$allocator@D@2@@std@@@2@V?$allocator@U?$pair@$$CBV?$basic_string@DU?$char_traits@D@std@@V?$allocator@D@2@@std@@V?$shared_ptr@VRawImageData@@@2@@std@@@2@$0A@@std@@@std@@QAE@ABU?$less@V?$basic_string@DU?$char_traits@D@std@@V?$allocator@D@2@@std@@@1@@Z 00419d80 f i BasicSpacecraft.obj
 0001:00018db0       ??0?$_Tree@V?$_Tmap_traits@V?$basic_string@DU?$char_traits@D@std@@V?$allocator@D@2@@std@@V?$weak_ptr@USpriteData@@@2@U?$less@V?$basic_string@DU?$char_traits@D@std@@V?$allocator@D@2@@std@@@2@V?$allocator@U?$pair@$$CBV?$basic_string@DU?$char_traits@D@std@@V?$allocator@D@2@@std@@V?$weak_ptr@USpriteData@@@2@@std@@@2@$0A@@std@@@std@@QAE@ABU?$less@V?$basic_string@DU?$char_traits@D@std@@V?$allocator@D@2@@std@@@1@@Z 00419db0 f i BasicSpacecraft.obj
 0001:00018de0       ??0?$_Tree@V?$_Tmap_traits@V?$basic_string@DU?$char_traits@D@std@@V?$allocator@D@2@@std@@V?$weak_ptr@VRawImageData@@@2@U?$less@V?$basic_string@DU?$char_traits@D@std@@V?$allocator@D@2@@std@@@2@V?$allocator@U?$pair@$$CBV?$basic_string@DU?$char_traits@D@std@@V?$allocator@D@2@@std@@V?$weak_ptr@VRawImageData@@@2@@std@@@2@$0A@@std@@@std@@QAE@ABU?$less@V?$basic_string@DU?$char_traits@D@std@@V?$allocator@D@2@@std@@@1@@Z 00419de0 f i BasicSpacecraft.obj
 0001:00018e10       ??0?$_Tree_comp_alloc@V?$_Tmap_traits@V?$basic_string@DU?$char_traits@D@std@@V?$allocator@D@2@@std@@V?$shared_ptr@VRawImageData@@@2@U?$less@V?$basic_string@DU?$char_traits@D@std@@V?$allocator@D@2@@std@@@2@V?$allocator@U?$pair@$$CBV?$basic_string@DU?$char_traits@D@std@@V?$allocator@D@2@@std@@V?$shared_ptr@VRawImageData@@@2@@std@@@2@$0A@@std@@@std@@QAE@ABU?$less@V?$basic_string@DU?$char_traits@D@std@@V?$allocator@D@2@@std@@@1@@Z 00419e10 f i BasicSpacecraft.obj
 0001:00018e50       ??0?$_Tree_comp_alloc@V?$_Tmap_traits@V?$basic_string@DU?$char_traits@D@std@@V?$allocator@D@2@@std@@V?$weak_ptr@USpriteData@@@2@U?$less@V?$basic_string@DU?$char_traits@D@std@@V?$allocator@D@2@@std@@@2@V?$allocator@U?$pair@$$CBV?$basic_string@DU?$char_traits@D@std@@V?$allocator@D@2@@std@@V?$weak_ptr@USpriteData@@@2@@std@@@2@$0A@@std@@@std@@QAE@ABU?$less@V?$basic_string@DU?$char_traits@D@std@@V?$allocator@D@2@@std@@@1@@Z 00419e50 f i BasicSpacecraft.obj
 0001:00018e90       ??0?$_Tree_comp_alloc@V?$_Tmap_traits@V?$basic_string@DU?$char_traits@D@std@@V?$allocator@D@2@@std@@V?$weak_ptr@VRawImageData@@@2@U?$less@V?$basic_string@DU?$char_traits@D@std@@V?$allocator@D@2@@std@@@2@V?$allocator@U?$pair@$$CBV?$basic_string@DU?$char_traits@D@std@@V?$allocator@D@2@@std@@V?$weak_ptr@VRawImageData@@@2@@std@@@2@$0A@@std@@@std@@QAE@ABU?$less@V?$basic_string@DU?$char_traits@D@std@@V?$allocator@D@2@@std@@@1@@Z 00419e90 f i BasicSpacecraft.obj
 0001:00018ed0       ??0?$_Tree_const_iterator@V?$_Tree_val@U?$_Tree_simple_types@U?$pair@$$CBV?$basic_string@DU?$char_traits@D@std@@V?$allocator@D@2@@std@@V?$shared_ptr@VRawImageData@@@2@@std@@@std@@@std@@@std@@QAE@$$QAV01@@Z 00419ed0 f i BasicSpacecraft.obj
 0001:00018f00       ??0?$_Tree_const_iterator@V?$_Tree_val@U?$_Tree_simple_types@U?$pair@$$CBV?$basic_string@DU?$char_traits@D@std@@V?$allocator@D@2@@std@@V?$shared_ptr@VRawImageData@@@2@@std@@@std@@@std@@@std@@QAE@ABV01@@Z 00419f00 f i BasicSpacecraft.obj
 0001:00018f30       ??0?$_Tree_const_iterator@V?$_Tree_val@U?$_Tree_simple_types@U?$pair@$$CBV?$basic_string@DU?$char_traits@D@std@@V?$allocator@D@2@@std@@V?$shared_ptr@VRawImageData@@@2@@std@@@std@@@std@@@std@@QAE@PAU?$_Tree_node@U?$pair@$$CBV?$basic_string@DU?$char_traits@D@std@@V?$allocator@D@2@@std@@V?$shared_ptr@VRawImageData@@@2@@std@@PAX@1@PBV?$_Tree_val@U?$_Tree_simple_types@U?$pair@$$CBV?$basic_string@DU?$char_traits@D@std@@V?$allocator@D@2@@std@@V?$shared_ptr@VRawImageData@@@2@@std@@@std@@@1@@Z 00419f30 f i BasicSpacecraft.obj
 0001:00018f60       ??0?$_Tree_const_iterator@V?$_Tree_val@U?$_Tree_simple_types@U?$pair@$$CBV?$basic_string@DU?$char_traits@D@std@@V?$allocator@D@2@@std@@V?$weak_ptr@USpriteData@@@2@@std@@@std@@@std@@@std@@QAE@$$QAV01@@Z 00419f60 f i BasicSpacecraft.obj
 0001:00018f90       ??0?$_Tree_const_iterator@V?$_Tree_val@U?$_Tree_simple_types@U?$pair@$$CBV?$basic_string@DU?$char_traits@D@std@@V?$allocator@D@2@@std@@V?$weak_ptr@USpriteData@@@2@@std@@@std@@@std@@@std@@QAE@ABV01@@Z 00419f90 f i BasicSpacecraft.obj
 0001:00018fc0       ??0?$_Tree_const_iterator@V?$_Tree_val@U?$_Tree_simple_types@U?$pair@$$CBV?$basic_string@DU?$char_traits@D@std@@V?$allocator@D@2@@std@@V?$weak_ptr@USpriteData@@@2@@std@@@std@@@std@@@std@@QAE@PAU?$_Tree_node@U?$pair@$$CBV?$basic_string@DU?$char_traits@D@std@@V?$allocator@D@2@@std@@V?$weak_ptr@USpriteData@@@2@@std@@PAX@1@PBV?$_Tree_val@U?$_Tree_simple_types@U?$pair@$$CBV?$basic_string@DU?$char_traits@D@std@@V?$allocator@D@2@@std@@V?$weak_ptr@USpriteData@@@2@@std@@@std@@@1@@Z 00419fc0 f i BasicSpacecraft.obj
 0001:00018ff0       ??0?$_Tree_const_iterator@V?$_Tree_val@U?$_Tree_simple_types@U?$pair@$$CBV?$basic_string@DU?$char_traits@D@std@@V?$allocator@D@2@@std@@V?$weak_ptr@VRawImageData@@@2@@std@@@std@@@std@@@std@@QAE@$$QAV01@@Z 00419ff0 f i BasicSpacecraft.obj
 0001:00019020       ??0?$_Tree_const_iterator@V?$_Tree_val@U?$_Tree_simple_types@U?$pair@$$CBV?$basic_string@DU?$char_traits@D@std@@V?$allocator@D@2@@std@@V?$weak_ptr@VRawImageData@@@2@@std@@@std@@@std@@@std@@QAE@ABV01@@Z 0041a020 f i BasicSpacecraft.obj
 0001:00019050       ??0?$_Tree_const_iterator@V?$_Tree_val@U?$_Tree_simple_types@U?$pair@$$CBV?$basic_string@DU?$char_traits@D@std@@V?$allocator@D@2@@std@@V?$weak_ptr@VRawImageData@@@2@@std@@@std@@@std@@@std@@QAE@PAU?$_Tree_node@U?$pair@$$CBV?$basic_string@DU?$char_traits@D@std@@V?$allocator@D@2@@std@@V?$weak_ptr@VRawImageData@@@2@@std@@PAX@1@PBV?$_Tree_val@U?$_Tree_simple_types@U?$pair@$$CBV?$basic_string@DU?$char_traits@D@std@@V?$allocator@D@2@@std@@V?$weak_ptr@VRawImageData@@@2@@std@@@std@@@1@@Z 0041a050 f i BasicSpacecraft.obj
 0001:00019080       ??0?$_Tree_iterator@V?$_Tree_val@U?$_Tree_simple_types@U?$pair@$$CBV?$basic_string@DU?$char_traits@D@std@@V?$allocator@D@2@@std@@V?$shared_ptr@VRawImageData@@@2@@std@@@std@@@std@@@std@@QAE@$$QAV01@@Z 0041a080 f i BasicSpacecraft.obj
 0001:000190b0       ??0?$_Tree_iterator@V?$_Tree_val@U?$_Tree_simple_types@U?$pair@$$CBV?$basic_string@DU?$char_traits@D@std@@V?$allocator@D@2@@std@@V?$shared_ptr@VRawImageData@@@2@@std@@@std@@@std@@@std@@QAE@ABV01@@Z 0041a0b0 f i BasicSpacecraft.obj
 0001:000190e0       ??0?$_Tree_iterator@V?$_Tree_val@U?$_Tree_simple_types@U?$pair@$$CBV?$basic_string@DU?$char_traits@D@std@@V?$allocator@D@2@@std@@V?$shared_ptr@VRawImageData@@@2@@std@@@std@@@std@@@std@@QAE@PAU?$_Tree_node@U?$pair@$$CBV?$basic_string@DU?$char_traits@D@std@@V?$allocator@D@2@@std@@V?$shared_ptr@VRawImageData@@@2@@std@@PAX@1@PBV?$_Tree_val@U?$_Tree_simple_types@U?$pair@$$CBV?$basic_string@DU?$char_traits@D@std@@V?$allocator@D@2@@std@@V?$shared_ptr@VRawImageData@@@2@@std@@@std@@@1@@Z 0041a0e0 f i BasicSpacecraft.obj
 0001:00019110       ??0?$_Tree_iterator@V?$_Tree_val@U?$_Tree_simple_types@U?$pair@$$CBV?$basic_string@DU?$char_traits@D@std@@V?$allocator@D@2@@std@@V?$weak_ptr@USpriteData@@@2@@std@@@std@@@std@@@std@@QAE@$$QAV01@@Z 0041a110 f i BasicSpacecraft.obj
 0001:00019140       ??0?$_Tree_iterator@V?$_Tree_val@U?$_Tree_simple_types@U?$pair@$$CBV?$basic_string@DU?$char_traits@D@std@@V?$allocator@D@2@@std@@V?$weak_ptr@USpriteData@@@2@@std@@@std@@@std@@@std@@QAE@ABV01@@Z 0041a140 f i BasicSpacecraft.obj
 0001:00019170       ??0?$_Tree_iterator@V?$_Tree_val@U?$_Tree_simple_types@U?$pair@$$CBV?$basic_string@DU?$char_traits@D@std@@V?$allocator@D@2@@std@@V?$weak_ptr@USpriteData@@@2@@std@@@std@@@std@@@std@@QAE@PAU?$_Tree_node@U?$pair@$$CBV?$basic_string@DU?$char_traits@D@std@@V?$allocator@D@2@@std@@V?$weak_ptr@USpriteData@@@2@@std@@PAX@1@PBV?$_Tree_val@U?$_Tree_simple_types@U?$pair@$$CBV?$basic_string@DU?$char_traits@D@std@@V?$allocator@D@2@@std@@V?$weak_ptr@USpriteData@@@2@@std@@@std@@@1@@Z 0041a170 f i BasicSpacecraft.obj
 0001:000191a0       ??0?$_Tree_iterator@V?$_Tree_val@U?$_Tree_simple_types@U?$pair@$$CBV?$basic_string@DU?$char_traits@D@std@@V?$allocator@D@2@@std@@V?$weak_ptr@VRawImageData@@@2@@std@@@std@@@std@@@std@@QAE@$$QAV01@@Z 0041a1a0 f i BasicSpacecraft.obj
 0001:000191d0       ??0?$_Tree_iterator@V?$_Tree_val@U?$_Tree_simple_types@U?$pair@$$CBV?$basic_string@DU?$char_traits@D@std@@V?$allocator@D@2@@std@@V?$weak_ptr@VRawImageData@@@2@@std@@@std@@@std@@@std@@QAE@ABV01@@Z 0041a1d0 f i BasicSpacecraft.obj
 0001:00019200       ??0?$_Tree_iterator@V?$_Tree_val@U?$_Tree_simple_types@U?$pair@$$CBV?$basic_string@DU?$char_traits@D@std@@V?$allocator@D@2@@std@@V?$weak_ptr@VRawImageData@@@2@@std@@@std@@@std@@@std@@QAE@PAU?$_Tree_node@U?$pair@$$CBV?$basic_string@DU?$char_traits@D@std@@V?$allocator@D@2@@std@@V?$weak_ptr@VRawImageData@@@2@@std@@PAX@1@PBV?$_Tree_val@U?$_Tree_simple_types@U?$pair@$$CBV?$basic_string@DU?$char_traits@D@std@@V?$allocator@D@2@@std@@V?$weak_ptr@VRawImageData@@@2@@std@@@std@@@1@@Z 0041a200 f i BasicSpacecraft.obj
 0001:00019230       ??0?$_Tree_unchecked_const_iterator@V?$_Tree_val@U?$_Tree_simple_types@U?$pair@$$CBV?$basic_string@DU?$char_traits@D@std@@V?$allocator@D@2@@std@@V?$shared_ptr@VRawImageData@@@2@@std@@@std@@@std@@U_Iterator_base12@2@@std@@QAE@$$QAV01@@Z 0041a230 f i BasicSpacecraft.obj
 0001:00019270       ??0?$_Tree_unchecked_const_iterator@V?$_Tree_val@U?$_Tree_simple_types@U?$pair@$$CBV?$basic_string@DU?$char_traits@D@std@@V?$allocator@D@2@@std@@V?$shared_ptr@VRawImageData@@@2@@std@@@std@@@std@@U_Iterator_base12@2@@std@@QAE@ABV01@@Z 0041a270 f i BasicSpacecraft.obj
 0001:000192b0       ??0?$_Tree_unchecked_const_iterator@V?$_Tree_val@U?$_Tree_simple_types@U?$pair@$$CBV?$basic_string@DU?$char_traits@D@std@@V?$allocator@D@2@@std@@V?$shared_ptr@VRawImageData@@@2@@std@@@std@@@std@@U_Iterator_base12@2@@std@@QAE@PAU?$_Tree_node@U?$pair@$$CBV?$basic_string@DU?$char_traits@D@std@@V?$allocator@D@2@@std@@V?$shared_ptr@VRawImageData@@@2@@std@@PAX@1@PBV?$_Tree_val@U?$_Tree_simple_types@U?$pair@$$CBV?$basic_string@DU?$char_traits@D@std@@V?$allocator@D@2@@std@@V?$shared_ptr@VRawImageData@@@2@@std@@@std@@@1@@Z 0041a2b0 f i BasicSpacecraft.obj
 0001:000192f0       ??0?$_Tree_unchecked_const_iterator@V?$_Tree_val@U?$_Tree_simple_types@U?$pair@$$CBV?$basic_string@DU?$char_traits@D@std@@V?$allocator@D@2@@std@@V?$weak_ptr@USpriteData@@@2@@std@@@std@@@std@@U_Iterator_base12@2@@std@@QAE@$$QAV01@@Z 0041a2f0 f i BasicSpacecraft.obj
 0001:00019330       ??0?$_Tree_unchecked_const_iterator@V?$_Tree_val@U?$_Tree_simple_types@U?$pair@$$CBV?$basic_string@DU?$char_traits@D@std@@V?$allocator@D@2@@std@@V?$weak_ptr@USpriteData@@@2@@std@@@std@@@std@@U_Iterator_base12@2@@std@@QAE@ABV01@@Z 0041a330 f i BasicSpacecraft.obj
 0001:00019370       ??0?$_Tree_unchecked_const_iterator@V?$_Tree_val@U?$_Tree_simple_types@U?$pair@$$CBV?$basic_string@DU?$char_traits@D@std@@V?$allocator@D@2@@std@@V?$weak_ptr@USpriteData@@@2@@std@@@std@@@std@@U_Iterator_base12@2@@std@@QAE@PAU?$_Tree_node@U?$pair@$$CBV?$basic_string@DU?$char_traits@D@std@@V?$allocator@D@2@@std@@V?$weak_ptr@USpriteData@@@2@@std@@PAX@1@PBV?$_Tree_val@U?$_Tree_simple_types@U?$pair@$$CBV?$basic_string@DU?$char_traits@D@std@@V?$allocator@D@2@@std@@V?$weak_ptr@USpriteData@@@2@@std@@@std@@@1@@Z 0041a370 f i BasicSpacecraft.obj
 0001:000193b0       ??0?$_Tree_unchecked_const_iterator@V?$_Tree_val@U?$_Tree_simple_types@U?$pair@$$CBV?$basic_string@DU?$char_traits@D@std@@V?$allocator@D@2@@std@@V?$weak_ptr@VRawImageData@@@2@@std@@@std@@@std@@U_Iterator_base12@2@@std@@QAE@$$QAV01@@Z 0041a3b0 f i BasicSpacecraft.obj
 0001:000193f0       ??0?$_Tree_unchecked_const_iterator@V?$_Tree_val@U?$_Tree_simple_types@U?$pair@$$CBV?$basic_string@DU?$char_traits@D@std@@V?$allocator@D@2@@std@@V?$weak_ptr@VRawImageData@@@2@@std@@@std@@@std@@U_Iterator_base12@2@@std@@QAE@ABV01@@Z 0041a3f0 f i BasicSpacecraft.obj
 0001:00019430       ??0?$_Tree_unchecked_const_iterator@V?$_Tree_val@U?$_Tree_simple_types@U?$pair@$$CBV?$basic_string@DU?$char_traits@D@std@@V?$allocator@D@2@@std@@V?$weak_ptr@VRawImageData@@@2@@std@@@std@@@std@@U_Iterator_base12@2@@std@@QAE@PAU?$_Tree_node@U?$pair@$$CBV?$basic_string@DU?$char_traits@D@std@@V?$allocator@D@2@@std@@V?$weak_ptr@VRawImageData@@@2@@std@@PAX@1@PBV?$_Tree_val@U?$_Tree_simple_types@U?$pair@$$CBV?$basic_string@DU?$char_traits@D@std@@V?$allocator@D@2@@std@@V?$weak_ptr@VRawImageData@@@2@@std@@@std@@@1@@Z 0041a430 f i BasicSpacecraft.obj
 0001:00019470       ??0?$_Tree_val@U?$_Tree_simple_types@U?$pair@$$CBV?$basic_string@DU?$char_traits@D@std@@V?$allocator@D@2@@std@@V?$shared_ptr@VRawImageData@@@2@@std@@@std@@@std@@QAE@XZ 0041a470 f i BasicSpacecraft.obj
 0001:000194b0       ??0?$_Tree_val@U?$_Tree_simple_types@U?$pair@$$CBV?$basic_string@DU?$char_traits@D@std@@V?$allocator@D@2@@std@@V?$weak_ptr@USpriteData@@@2@@std@@@std@@@std@@QAE@XZ 0041a4b0 f i BasicSpacecraft.obj
 0001:000194f0       ??0?$_Tree_val@U?$_Tree_simple_types@U?$pair@$$CBV?$basic_string@DU?$char_traits@D@std@@V?$allocator@D@2@@std@@V?$weak_ptr@VRawImageData@@@2@@std@@@std@@@std@@QAE@XZ 0041a4f0 f i BasicSpacecraft.obj
 0001:00019530       ??0?$allocator@D@std@@QAE@XZ 0041a530 f i BasicSpacecraft.obj
 0001:00019550       ??0?$allocator@U?$_Tree_node@U?$pair@$$CBV?$basic_string@DU?$char_traits@D@std@@V?$allocator@D@2@@std@@V?$shared_ptr@VRawImageData@@@2@@std@@PAX@std@@@std@@QAE@XZ 0041a550 f i BasicSpacecraft.obj
 0001:00019570       ??0?$allocator@U?$_Tree_node@U?$pair@$$CBV?$basic_string@DU?$char_traits@D@std@@V?$allocator@D@2@@std@@V?$weak_ptr@USpriteData@@@2@@std@@PAX@std@@@std@@QAE@XZ 0041a570 f i BasicSpacecraft.obj
 0001:00019590       ??0?$allocator@U?$_Tree_node@U?$pair@$$CBV?$basic_string@DU?$char_traits@D@std@@V?$allocator@D@2@@std@@V?$weak_ptr@VRawImageData@@@2@@std@@PAX@std@@@std@@QAE@XZ 0041a590 f i BasicSpacecraft.obj
 0001:000195b0       ??0?$basic_string@DU?$char_traits@D@std@@V?$allocator@D@2@@std@@QAE@$$QAV01@@Z 0041a5b0 f i BasicSpacecraft.obj
 0001:00019650       ??0?$basic_string@DU?$char_traits@D@std@@V?$allocator@D@2@@std@@QAE@ABV01@@Z 0041a650 f i BasicSpacecraft.obj
 0001:000196f0       ??0?$basic_string@DU?$char_traits@D@std@@V?$allocator@D@2@@std@@QAE@QBD@Z 0041a6f0 f i BasicSpacecraft.obj
 0001:00019770       ??0?$basic_string@DU?$char_traits@D@std@@V?$allocator@D@2@@std@@QAE@XZ 0041a770 f i BasicSpacecraft.obj
 0001:000197d0       ??0?$map@V?$basic_string@DU?$char_traits@D@std@@V?$allocator@D@2@@std@@V?$shared_ptr@VRawImageData@@@2@U?$less@V?$basic_string@DU?$char_traits@D@std@@V?$allocator@D@2@@std@@@2@V?$allocator@U?$pair@$$CBV?$basic_string@DU?$char_traits@D@std@@V?$allocator@D@2@@std@@V?$shared_ptr@VRawImageData@@@2@@std@@@2@@std@@QAE@XZ 0041a7d0 f i BasicSpacecraft.obj
 0001:00019800       ??0?$map@V?$basic_string@DU?$char_traits@D@std@@V?$allocator@D@2@@std@@V?$weak_ptr@USpriteData@@@2@U?$less@V?$basic_string@DU?$char_traits@D@std@@V?$allocator@D@2@@std@@@2@V?$allocator@U?$pair@$$CBV?$basic_string@DU?$char_traits@D@std@@V?$allocator@D@2@@std@@V?$weak_ptr@USpriteData@@@2@@std@@@2@@std@@QAE@XZ 0041a800 f i BasicSpacecraft.obj
 0001:00019830       ??0?$map@V?$basic_string@DU?$char_traits@D@std@@V?$allocator@D@2@@std@@V?$weak_ptr@VRawImageData@@@2@U?$less@V?$basic_string@DU?$char_traits@D@std@@V?$allocator@D@2@@std@@@2@V?$allocator@U?$pair@$$CBV?$basic_string@DU?$char_traits@D@std@@V?$allocator@D@2@@std@@V?$weak_ptr@VRawImageData@@@2@@std@@@2@@std@@QAE@XZ 0041a830 f i BasicSpacecraft.obj
 0001:00019860       ??0?$shared_ptr@USpriteData@@@std@@QAE@$$QAV01@@Z 0041a860 f i BasicSpacecraft.obj
 0001:000198d0       ??0?$shared_ptr@USpriteData@@@std@@QAE@$$T@Z 0041a8d0 f i BasicSpacecraft.obj
 0001:000198f0       ??0?$shared_ptr@USpriteData@@@std@@QAE@ABV01@@Z 0041a8f0 f i BasicSpacecraft.obj
 0001:00019960       ??0?$shared_ptr@USpriteData@@@std@@QAE@XZ 0041a960 f i BasicSpacecraft.obj
 0001:00019980       ??0?$shared_ptr@VRawImageData@@@std@@QAE@$$QAV01@@Z 0041a980 f i BasicSpacecraft.obj
 0001:000199f0       ??0?$shared_ptr@VRawImageData@@@std@@QAE@$$T@Z 0041a9f0 f i BasicSpacecraft.obj
 0001:00019a10       ??0?$shared_ptr@VRawImageData@@@std@@QAE@ABV01@@Z 0041aa10 f i BasicSpacecraft.obj
 0001:00019a80       ??0?$shared_ptr@VRawImageData@@@std@@QAE@XZ 0041aa80 f i BasicSpacecraft.obj
 0001:00019aa0       ??0?$weak_ptr@USpriteData@@@std@@QAE@$$QAV01@@Z 0041aaa0 f i BasicSpacecraft.obj
 0001:00019b10       ??0?$weak_ptr@USpriteData@@@std@@QAE@ABV01@@Z 0041ab10 f i BasicSpacecraft.obj
 0001:00019b80       ??0?$weak_ptr@VRawImageData@@@std@@QAE@$$QAV01@@Z 0041ab80 f i BasicSpacecraft.obj
 0001:00019bf0       ??0?$weak_ptr@VRawImageData@@@std@@QAE@ABV01@@Z 0041abf0 f i BasicSpacecraft.obj
 0001:00019c60       ??0AnimatedSprite@@QAE@PBDHH@Z 0041ac60 f i BasicSpacecraft.obj
 0001:00019d60       ??0BigInteger@internal@rapidjson@@QAE@ABV012@@Z 0041ad60 f i BasicSpacecraft.obj
 0001:00019db0       ??0BigInteger@internal@rapidjson@@QAE@PBDI@Z 0041adb0 f i BasicSpacecraft.obj
 0001:00019ea0       ??0BigInteger@internal@rapidjson@@QAE@_K@Z 0041aea0 f i BasicSpacecraft.obj
 0001:00019ef0       ??0ClearStackOnExit@?$GenericDocument@U?$UTF8@D@rapidjson@@V?$MemoryPoolAllocator@VCrtAllocator@rapidjson@@@2@VCrtAllocator@2@@rapidjson@@QAE@AAV12@@Z 0041aef0 f i BasicSpacecraft.obj
 0001:00019f10       ??0ClearStackOnExit@?$GenericReader@U?$UTF8@D@rapidjson@@U12@VCrtAllocator@2@@rapidjson@@QAE@AAV12@@Z 0041af10 f i BasicSpacecraft.obj
 0001:00019f30       ??0CollisionManifold@@QAE@PAVPhysObject@@0@Z 0041af30 f i BasicSpacecraft.obj
 0001:0001a000       ??0CollisionShape@@QAE@XZ  0041b000 f i BasicSpacecraft.obj
 0001:0001a020       ??0DiyFp@internal@rapidjson@@QAE@_KH@Z 0041b020 f i BasicSpacecraft.obj
 0001:0001a050       ??0Double@internal@rapidjson@@QAE@N@Z 0041b050 f i BasicSpacecraft.obj
 0001:0001a080       ??0Double@internal@rapidjson@@QAE@_K@Z 0041b080 f i BasicSpacecraft.obj
 0001:0001a0b0       ??0FastVec2D@@QAE@AAVVec2D@@@Z 0041b0b0 f i BasicSpacecraft.obj
 0001:0001a100       ??0FastVec2D@@QAE@NN@Z     0041b100 f i BasicSpacecraft.obj
 0001:0001a150       ??0FileReadStream@rapidjson@@QAE@PAU_iobuf@@PADI@Z 0041b150 f i BasicSpacecraft.obj
 0001:0001a220       ??0FilterPoints@@QAE@XZ    0041b220 f i BasicSpacecraft.obj
 0001:0001a240       ??0FilterPointsRotate@@QAE@PAVMat22@@PAVVec2D@@PAVFilterPoints@@@Z 0041b240 f i BasicSpacecraft.obj
 0001:0001a2c0       ??0FilterPointsWithinSurfaceBounds@@QAE@XZ 0041b2c0 f i BasicSpacecraft.obj
 0001:0001a2f0       ??0FilterPointsZoom@@QAE@PANPAVVec2D@@PAVFilterPoints@@@Z 0041b2f0 f i BasicSpacecraft.obj
 0001:0001a350       ??0ImageManager@@QAE@XZ    0041b350 f i BasicSpacecraft.obj
 0001:0001a3f0       ??0Mat22@@QAE@N@Z          0041b3f0 f i BasicSpacecraft.obj
 0001:0001a490       ??0Mat22@@QAE@XZ           0041b490 f i BasicSpacecraft.obj
 0001:0001a4e0       ??0OBB@@QAE@ABVVec2D@@00ABVMat22@@@Z 0041b4e0 f i BasicSpacecraft.obj
 0001:0001a990       ??0ParseResult@rapidjson@@QAE@XZ 0041b990 f i BasicSpacecraft.obj
 0001:0001a9c0       ??0RawImageData@@QAE@V?$basic_string@DU?$char_traits@D@std@@V?$allocator@D@2@@std@@@Z 0041b9c0 f i BasicSpacecraft.obj
 0001:0001aa70       ??0SpriteData@@QAE@XZ      0041ba70 f i BasicSpacecraft.obj
 0001:0001aad0       ??0Vec2D@@QAE@OO@Z         0041bad0 f i BasicSpacecraft.obj
 0001:0001ab10       ??0_Bxty@?$_String_val@U?$_Simple_types@D@std@@@std@@QAE@XZ 0041bb10 f i BasicSpacecraft.obj
 0001:0001ab30       ??0_Container_base12@std@@QAE@XZ 0041bb30 f i BasicSpacecraft.obj
 0001:0001ab50       ??0_Container_proxy@std@@QAE@XZ 0041bb50 f i BasicSpacecraft.obj
 0001:0001ab80       ??0_Iterator_base12@std@@QAE@ABU01@@Z 0041bb80 f i BasicSpacecraft.obj
 0001:0001abc0       ??0_Iterator_base12@std@@QAE@XZ 0041bbc0 f i BasicSpacecraft.obj
 0001:0001abf0       ??0_Ref_count_base@std@@IAE@XZ 0041bbf0 f i BasicSpacecraft.obj
 0001:0001ac20       ??0_Sentry_base@?$basic_ostream@DU?$char_traits@D@std@@@std@@QAE@AAV12@@Z 0041bc20 f i BasicSpacecraft.obj
 0001:0001aca0       ??0sentry@?$basic_ostream@DU?$char_traits@D@std@@@std@@QAE@AAV12@@Z 0041bca0 f i BasicSpacecraft.obj
 0001:0001ada0       ??1?$GenericArray@$0A@V?$GenericValue@U?$UTF8@D@rapidjson@@V?$MemoryPoolAllocator@VCrtAllocator@rapidjson@@@2@@rapidjson@@@rapidjson@@QAE@XZ 0041bda0 f i BasicSpacecraft.obj
 0001:0001adb0       ??1?$GenericDocument@U?$UTF8@D@rapidjson@@V?$MemoryPoolAllocator@VCrtAllocator@rapidjson@@@2@VCrtAllocator@2@@rapidjson@@QAE@XZ 0041bdb0 f i BasicSpacecraft.obj
 0001:0001ae20       ??1?$GenericMember@U?$UTF8@D@rapidjson@@V?$MemoryPoolAllocator@VCrtAllocator@rapidjson@@@2@@rapidjson@@QAE@XZ 0041be20 f i BasicSpacecraft.obj
 0001:0001ae50       ??1?$GenericReader@U?$UTF8@D@rapidjson@@U12@VCrtAllocator@2@@rapidjson@@QAE@XZ 0041be50 f i BasicSpacecraft.obj
 0001:0001ae70       ??1?$GenericValue@U?$UTF8@D@rapidjson@@V?$MemoryPoolAllocator@VCrtAllocator@rapidjson@@@2@@rapidjson@@QAE@XZ 0041be70 f i BasicSpacecraft.obj
 0001:0001afe0       ??1?$MemoryPoolAllocator@VCrtAllocator@rapidjson@@@rapidjson@@QAE@XZ 0041bfe0 f i BasicSpacecraft.obj
 0001:0001b050       ??1?$Stack@VCrtAllocator@rapidjson@@@internal@rapidjson@@QAE@XZ 0041c050 f i BasicSpacecraft.obj
 0001:0001b0a0       ??1?$_Compressed_pair@V?$allocator@D@std@@V?$_String_val@U?$_Simple_types@D@std@@@2@$00@std@@QAE@XZ 0041c0a0 f i BasicSpacecraft.obj
 0001:0001b0c0       ??1?$_Ref_count@USpriteData@@@std@@UAE@XZ 0041c0c0 f i BasicSpacecraft.obj
 0001:0001b0e0       ??1?$_Ref_count@VRawImageData@@@std@@UAE@XZ 0041c0e0 f i BasicSpacecraft.obj
 0001:0001b100       ??1?$_String_alloc@U?$_String_base_types@DV?$allocator@D@std@@@std@@@std@@QAE@XZ 0041c100 f i BasicSpacecraft.obj
 0001:0001b160       ??1?$_String_val@U?$_Simple_types@D@std@@@std@@QAE@XZ 0041c160 f i BasicSpacecraft.obj
 0001:0001b180       ??1?$_Tree@V?$_Tmap_traits@V?$basic_string@DU?$char_traits@D@std@@V?$allocator@D@2@@std@@V?$shared_ptr@VRawImageData@@@2@U?$less@V?$basic_string@DU?$char_traits@D@std@@V?$allocator@D@2@@std@@@2@V?$allocator@U?$pair@$$CBV?$basic_string@DU?$char_traits@D@std@@V?$allocator@D@2@@std@@V?$shared_ptr@VRawImageData@@@2@@std@@@2@$0A@@std@@@std@@QAE@XZ 0041c180 f i BasicSpacecraft.obj
 0001:0001b1e0       ??1?$_Tree@V?$_Tmap_traits@V?$basic_string@DU?$char_traits@D@std@@V?$allocator@D@2@@std@@V?$weak_ptr@USpriteData@@@2@U?$less@V?$basic_string@DU?$char_traits@D@std@@V?$allocator@D@2@@std@@@2@V?$allocator@U?$pair@$$CBV?$basic_string@DU?$char_traits@D@std@@V?$allocator@D@2@@std@@V?$weak_ptr@USpriteData@@@2@@std@@@2@$0A@@std@@@std@@QAE@XZ 0041c1e0 f i BasicSpacecraft.obj
 0001:0001b240       ??1?$_Tree@V?$_Tmap_traits@V?$basic_string@DU?$char_traits@D@std@@V?$allocator@D@2@@std@@V?$weak_ptr@VRawImageData@@@2@U?$less@V?$basic_string@DU?$char_traits@D@std@@V?$allocator@D@2@@std@@@2@V?$allocator@U?$pair@$$CBV?$basic_string@DU?$char_traits@D@std@@V?$allocator@D@2@@std@@V?$weak_ptr@VRawImageData@@@2@@std@@@2@$0A@@std@@@std@@QAE@XZ 0041c240 f i BasicSpacecraft.obj
 0001:0001b2a0       ??1?$_Tree_comp_alloc@V?$_Tmap_traits@V?$basic_string@DU?$char_traits@D@std@@V?$allocator@D@2@@std@@V?$shared_ptr@VRawImageData@@@2@U?$less@V?$basic_string@DU?$char_traits@D@std@@V?$allocator@D@2@@std@@@2@V?$allocator@U?$pair@$$CBV?$basic_string@DU?$char_traits@D@std@@V?$allocator@D@2@@std@@V?$shared_ptr@VRawImageData@@@2@@std@@@2@$0A@@std@@@std@@QAE@XZ 0041c2a0 f i BasicSpacecraft.obj
 0001:0001b310       ??1?$_Tree_comp_alloc@V?$_Tmap_traits@V?$basic_string@DU?$char_traits@D@std@@V?$allocator@D@2@@std@@V?$weak_ptr@USpriteData@@@2@U?$less@V?$basic_string@DU?$char_traits@D@std@@V?$allocator@D@2@@std@@@2@V?$allocator@U?$pair@$$CBV?$basic_string@DU?$char_traits@D@std@@V?$allocator@D@2@@std@@V?$weak_ptr@USpriteData@@@2@@std@@@2@$0A@@std@@@std@@QAE@XZ 0041c310 f i BasicSpacecraft.obj
 0001:0001b380       ??1?$_Tree_comp_alloc@V?$_Tmap_traits@V?$basic_string@DU?$char_traits@D@std@@V?$allocator@D@2@@std@@V?$weak_ptr@VRawImageData@@@2@U?$less@V?$basic_string@DU?$char_traits@D@std@@V?$allocator@D@2@@std@@@2@V?$allocator@U?$pair@$$CBV?$basic_string@DU?$char_traits@D@std@@V?$allocator@D@2@@std@@V?$weak_ptr@VRawImageData@@@2@@std@@@2@$0A@@std@@@std@@QAE@XZ 0041c380 f i BasicSpacecraft.obj
 0001:0001b3f0       ??1?$_Tree_const_iterator@V?$_Tree_val@U?$_Tree_simple_types@U?$pair@$$CBV?$basic_string@DU?$char_traits@D@std@@V?$allocator@D@2@@std@@V?$shared_ptr@VRawImageData@@@2@@std@@@std@@@std@@@std@@QAE@XZ 0041c3f0 f i BasicSpacecraft.obj
 0001:0001b410       ??1?$_Tree_const_iterator@V?$_Tree_val@U?$_Tree_simple_types@U?$pair@$$CBV?$basic_string@DU?$char_traits@D@std@@V?$allocator@D@2@@std@@V?$weak_ptr@USpriteData@@@2@@std@@@std@@@std@@@std@@QAE@XZ 0041c410 f i BasicSpacecraft.obj
 0001:0001b430       ??1?$_Tree_const_iterator@V?$_Tree_val@U?$_Tree_simple_types@U?$pair@$$CBV?$basic_string@DU?$char_traits@D@std@@V?$allocator@D@2@@std@@V?$weak_ptr@VRawImageData@@@2@@std@@@std@@@std@@@std@@QAE@XZ 0041c430 f i BasicSpacecraft.obj
 0001:0001b450       ??1?$_Tree_iterator@V?$_Tree_val@U?$_Tree_simple_types@U?$pair@$$CBV?$basic_string@DU?$char_traits@D@std@@V?$allocator@D@2@@std@@V?$shared_ptr@VRawImageData@@@2@@std@@@std@@@std@@@std@@QAE@XZ 0041c450 f i BasicSpacecraft.obj
 0001:0001b470       ??1?$_Tree_iterator@V?$_Tree_val@U?$_Tree_simple_types@U?$pair@$$CBV?$basic_string@DU?$char_traits@D@std@@V?$allocator@D@2@@std@@V?$weak_ptr@USpriteData@@@2@@std@@@std@@@std@@@std@@QAE@XZ 0041c470 f i BasicSpacecraft.obj
 0001:0001b490       ??1?$_Tree_iterator@V?$_Tree_val@U?$_Tree_simple_types@U?$pair@$$CBV?$basic_string@DU?$char_traits@D@std@@V?$allocator@D@2@@std@@V?$weak_ptr@VRawImageData@@@2@@std@@@std@@@std@@@std@@QAE@XZ 0041c490 f i BasicSpacecraft.obj
 0001:0001b4b0       ??1?$_Tree_unchecked_const_iterator@V?$_Tree_val@U?$_Tree_simple_types@U?$pair@$$CBV?$basic_string@DU?$char_traits@D@std@@V?$allocator@D@2@@std@@V?$shared_ptr@VRawImageData@@@2@@std@@@std@@@std@@U_Iterator_base12@2@@std@@QAE@XZ 0041c4b0 f i BasicSpacecraft.obj
 0001:0001b4d0       ??1?$_Tree_unchecked_const_iterator@V?$_Tree_val@U?$_Tree_simple_types@U?$pair@$$CBV?$basic_string@DU?$char_traits@D@std@@V?$allocator@D@2@@std@@V?$weak_ptr@USpriteData@@@2@@std@@@std@@@std@@U_Iterator_base12@2@@std@@QAE@XZ 0041c4d0 f i BasicSpacecraft.obj
 0001:0001b4f0       ??1?$_Tree_unchecked_const_iterator@V?$_Tree_val@U?$_Tree_simple_types@U?$pair@$$CBV?$basic_string@DU?$char_traits@D@std@@V?$allocator@D@2@@std@@V?$weak_ptr@VRawImageData@@@2@@std@@@std@@@std@@U_Iterator_base12@2@@std@@QAE@XZ 0041c4f0 f i BasicSpacecraft.obj
 0001:0001b510       ??1?$basic_string@DU?$char_traits@D@std@@V?$allocator@D@2@@std@@QAE@XZ 0041c510 f i BasicSpacecraft.obj
 0001:0001b570       ??1?$map@V?$basic_string@DU?$char_traits@D@std@@V?$allocator@D@2@@std@@V?$shared_ptr@VRawImageData@@@2@U?$less@V?$basic_string@DU?$char_traits@D@std@@V?$allocator@D@2@@std@@@2@V?$allocator@U?$pair@$$CBV?$basic_string@DU?$char_traits@D@std@@V?$allocator@D@2@@std@@V?$shared_ptr@VRawImageData@@@2@@std@@@2@@std@@QAE@XZ 0041c570 f i BasicSpacecraft.obj
 0001:0001b590       ??1?$map@V?$basic_string@DU?$char_traits@D@std@@V?$allocator@D@2@@std@@V?$weak_ptr@USpriteData@@@2@U?$less@V?$basic_string@DU?$char_traits@D@std@@V?$allocator@D@2@@std@@@2@V?$allocator@U?$pair@$$CBV?$basic_string@DU?$char_traits@D@std@@V?$allocator@D@2@@std@@V?$weak_ptr@USpriteData@@@2@@std@@@2@@std@@QAE@XZ 0041c590 f i BasicSpacecraft.obj
 0001:0001b5b0       ??1?$map@V?$basic_string@DU?$char_traits@D@std@@V?$allocator@D@2@@std@@V?$weak_ptr@VRawImageData@@@2@U?$less@V?$basic_string@DU?$char_traits@D@std@@V?$allocator@D@2@@std@@@2@V?$allocator@U?$pair@$$CBV?$basic_string@DU?$char_traits@D@std@@V?$allocator@D@2@@std@@V?$weak_ptr@VRawImageData@@@2@@std@@@2@@std@@QAE@XZ 0041c5b0 f i BasicSpacecraft.obj
 0001:0001b5d0       ??1?$pair@$$CBV?$basic_string@DU?$char_traits@D@std@@V?$allocator@D@2@@std@@V?$shared_ptr@VRawImageData@@@2@@std@@QAE@XZ 0041c5d0 f i BasicSpacecraft.obj
 0001:0001b600       ??1?$pair@$$CBV?$basic_string@DU?$char_traits@D@std@@V?$allocator@D@2@@std@@V?$weak_ptr@USpriteData@@@2@@std@@QAE@XZ 0041c600 f i BasicSpacecraft.obj
 0001:0001b630       ??1?$pair@$$CBV?$basic_string@DU?$char_traits@D@std@@V?$allocator@D@2@@std@@V?$weak_ptr@VRawImageData@@@2@@std@@QAE@XZ 0041c630 f i BasicSpacecraft.obj
 0001:0001b660       ??1?$pair@V?$_Tree_iterator@V?$_Tree_val@U?$_Tree_simple_types@U?$pair@$$CBV?$basic_string@DU?$char_traits@D@std@@V?$allocator@D@2@@std@@V?$shared_ptr@VRawImageData@@@2@@std@@@std@@@std@@@std@@_N@std@@QAE@XZ 0041c660 f i BasicSpacecraft.obj
 0001:0001b680       ??1?$pair@V?$_Tree_iterator@V?$_Tree_val@U?$_Tree_simple_types@U?$pair@$$CBV?$basic_string@DU?$char_traits@D@std@@V?$allocator@D@2@@std@@V?$weak_ptr@USpriteData@@@2@@std@@@std@@@std@@@std@@_N@std@@QAE@XZ 0041c680 f i BasicSpacecraft.obj
 0001:0001b6a0       ??1?$pair@V?$_Tree_iterator@V?$_Tree_val@U?$_Tree_simple_types@U?$pair@$$CBV?$basic_string@DU?$char_traits@D@std@@V?$allocator@D@2@@std@@V?$weak_ptr@VRawImageData@@@2@@std@@@std@@@std@@@std@@_N@std@@QAE@XZ 0041c6a0 f i BasicSpacecraft.obj
 0001:0001b6c0       ??1?$pair@V?$basic_string@DU?$char_traits@D@std@@V?$allocator@D@2@@std@@V?$shared_ptr@VRawImageData@@@2@@std@@QAE@XZ 0041c6c0 f i BasicSpacecraft.obj
 0001:0001b6f0       ??1?$pair@V?$basic_string@DU?$char_traits@D@std@@V?$allocator@D@2@@std@@V?$weak_ptr@USpriteData@@@2@@std@@QAE@XZ 0041c6f0 f i BasicSpacecraft.obj
 0001:0001b720       ??1?$pair@V?$basic_string@DU?$char_traits@D@std@@V?$allocator@D@2@@std@@V?$weak_ptr@VRawImageData@@@2@@std@@QAE@XZ 0041c720 f i BasicSpacecraft.obj
 0001:0001b750       ??1?$shared_ptr@USpriteData@@@std@@QAE@XZ 0041c750 f i BasicSpacecraft.obj
 0001:0001b7a0       ??1?$shared_ptr@VRawImageData@@@std@@QAE@XZ 0041c7a0 f i BasicSpacecraft.obj
 0001:0001b7f0       ??1?$weak_ptr@USpriteData@@@std@@QAE@XZ 0041c7f0 f i BasicSpacecraft.obj
 0001:0001b840       ??1?$weak_ptr@VRawImageData@@@std@@QAE@XZ 0041c840 f i BasicSpacecraft.obj
 0001:0001b890       ??1AnimatedSprite@@QAE@XZ  0041c890 f i BasicSpacecraft.obj
 0001:0001b8b0       ??1BasicSpacecraft@@UAE@XZ 0041c8b0 f i BasicSpacecraft.obj
 0001:0001b940       ??1ClearStackOnExit@?$GenericDocument@U?$UTF8@D@rapidjson@@V?$MemoryPoolAllocator@VCrtAllocator@rapidjson@@@2@VCrtAllocator@2@@rapidjson@@QAE@XZ 0041c940 f i BasicSpacecraft.obj
 0001:0001b990       ??1ClearStackOnExit@?$GenericReader@U?$UTF8@D@rapidjson@@U12@VCrtAllocator@2@@rapidjson@@QAE@XZ 0041c990 f i BasicSpacecraft.obj
 0001:0001b9e0       ??1CollisionManifold@@QAE@XZ 0041c9e0 f i BasicSpacecraft.obj
 0001:0001ba10       ??1DrawingSurface@@QAE@XZ  0041ca10 f i BasicSpacecraft.obj
 0001:0001ba20       ??1FastVec2D@@QAE@XZ       0041ca20 f i BasicSpacecraft.obj
 0001:0001ba30       ??1FilterPointsRotate@@QAE@XZ 0041ca30 f i BasicSpacecraft.obj
 0001:0001ba50       ??1FilterPointsZoom@@QAE@XZ 0041ca50 f i BasicSpacecraft.obj
 0001:0001ba70       ??1RawImageData@@QAE@XZ    0041ca70 f i BasicSpacecraft.obj
 0001:0001bad0       ??1SimpleImage@@QAE@XZ     0041cad0 f i BasicSpacecraft.obj
 0001:0001bb20       ??1SpriteData@@QAE@XZ      0041cb20 f i BasicSpacecraft.obj
 0001:0001bb50       ??1Vec2D@@QAE@XZ           0041cb50 f i BasicSpacecraft.obj
 0001:0001bb60       ??1_Bxty@?$_String_val@U?$_Simple_types@D@std@@@std@@QAE@XZ 0041cb60 f i BasicSpacecraft.obj
 0001:0001bb70       ??1_Iterator_base12@std@@QAE@XZ 0041cb70 f i BasicSpacecraft.obj
 0001:0001bbe0       ??1_Ref_count_base@std@@UAE@XZ 0041cbe0 f i BasicSpacecraft.obj
 0001:0001bbf0       ??1_Sentry_base@?$basic_ostream@DU?$char_traits@D@std@@@std@@QAE@XZ 0041cbf0 f i BasicSpacecraft.obj
 0001:0001bc90       ??1sentry@?$basic_ostream@DU?$char_traits@D@std@@@std@@QAE@XZ 0041cc90 f i BasicSpacecraft.obj
 0001:0001bd00       ??2@YAPAXIPAX@Z            0041cd00 f i BasicSpacecraft.obj
 0001:0001bd10       ??4?$GenericValue@U?$UTF8@D@rapidjson@@V?$MemoryPoolAllocator@VCrtAllocator@rapidjson@@@2@@rapidjson@@QAEAAV01@AAV01@@Z 0041cd10 f i BasicSpacecraft.obj
 0001:0001bd50       ??4?$basic_string@DU?$char_traits@D@std@@V?$allocator@D@2@@std@@QAEAAV01@ABV01@@Z 0041cd50 f i BasicSpacecraft.obj
 0001:0001bdd0       ??4?$basic_string@DU?$char_traits@D@std@@V?$allocator@D@2@@std@@QAEAAV01@QBD@Z 0041cdd0 f i BasicSpacecraft.obj
 0001:0001bdf0       ??4?$shared_ptr@VRawImageData@@@std@@QAEAAV01@ABV01@@Z 0041cdf0 f i BasicSpacecraft.obj
 0001:0001be30       ??4BigInteger@internal@rapidjson@@QAEAAV012@_K@Z 0041ce30 f i BasicSpacecraft.obj
 0001:0001be80       ??4FastVec2D@@QAEAAV0@ABVVec2D@@@Z 0041ce80 f i BasicSpacecraft.obj
 0001:0001bec0       ??4SimpleImage@@QAEAAV0@ABV0@@Z 0041cec0 f i BasicSpacecraft.obj
 0001:0001bf10       ??4_Iterator_base12@std@@QAEAAU01@ABU01@@Z 0041cf10 f i BasicSpacecraft.obj
 0001:0001bfb0       ??8?$_Tree_const_iterator@V?$_Tree_val@U?$_Tree_simple_types@U?$pair@$$CBV?$basic_string@DU?$char_traits@D@std@@V?$allocator@D@2@@std@@V?$shared_ptr@VRawImageData@@@2@@std@@@std@@@std@@@std@@QBE_NABV01@@Z 0041cfb0 f i BasicSpacecraft.obj
 0001:0001c070       ??8?$_Tree_const_iterator@V?$_Tree_val@U?$_Tree_simple_types@U?$pair@$$CBV?$basic_string@DU?$char_traits@D@std@@V?$allocator@D@2@@std@@V?$weak_ptr@USpriteData@@@2@@std@@@std@@@std@@@std@@QBE_NABV01@@Z 0041d070 f i BasicSpacecraft.obj
 0001:0001c130       ??8?$_Tree_const_iterator@V?$_Tree_val@U?$_Tree_simple_types@U?$pair@$$CBV?$basic_string@DU?$char_traits@D@std@@V?$allocator@D@2@@std@@V?$weak_ptr@VRawImageData@@@2@@std@@@std@@@std@@@std@@QBE_NABV01@@Z 0041d130 f i BasicSpacecraft.obj
 0001:0001c1f0       ??8BigInteger@internal@rapidjson@@QBE_N_K@Z 0041d1f0 f i BasicSpacecraft.obj
 0001:0001c270       ??9?$GenericMemberIterator@$0A@U?$UTF8@D@rapidjson@@V?$MemoryPoolAllocator@VCrtAllocator@rapidjson@@@2@@rapidjson@@QBE_NV?$GenericMemberIterator@$00U?$UTF8@D@rapidjson@@V?$MemoryPoolAllocator@VCrtAllocator@rapidjson@@@2@@1@@Z 0041d270 f i BasicSpacecraft.obj
 0001:0001c2b0       ??9?$_Tree_const_iterator@V?$_Tree_val@U?$_Tree_simple_types@U?$pair@$$CBV?$basic_string@DU?$char_traits@D@std@@V?$allocator@D@2@@std@@V?$shared_ptr@VRawImageData@@@2@@std@@@std@@@std@@@std@@QBE_NABV01@@Z 0041d2b0 f i BasicSpacecraft.obj
 0001:0001c300       ??9?$_Tree_const_iterator@V?$_Tree_val@U?$_Tree_simple_types@U?$pair@$$CBV?$basic_string@DU?$char_traits@D@std@@V?$allocator@D@2@@std@@V?$weak_ptr@USpriteData@@@2@@std@@@std@@@std@@@std@@QBE_NABV01@@Z 0041d300 f i BasicSpacecraft.obj
 0001:0001c350       ??9?$_Tree_const_iterator@V?$_Tree_val@U?$_Tree_simple_types@U?$pair@$$CBV?$basic_string@DU?$char_traits@D@std@@V?$allocator@D@2@@std@@V?$weak_ptr@VRawImageData@@@2@@std@@@std@@@std@@@std@@QBE_NABV01@@Z 0041d350 f i BasicSpacecraft.obj
 0001:0001c3a0       ??B?$GenericStringRef@D@rapidjson@@QBEPBDXZ 0041d3a0 f i BasicSpacecraft.obj
 0001:0001c3c0       ??BParseResult@rapidjson@@QBEP801@BE_NXZXZ 0041d3c0 f i BasicSpacecraft.obj
 0001:0001c400       ??Bsentry@?$basic_ostream@DU?$char_traits@D@std@@@std@@QBE_NXZ 0041d400 f i BasicSpacecraft.obj
 0001:0001c420       ??C?$GenericMemberIterator@$0A@U?$UTF8@D@rapidjson@@V?$MemoryPoolAllocator@VCrtAllocator@rapidjson@@@2@@rapidjson@@QBEPAV?$GenericMember@U?$UTF8@D@rapidjson@@V?$MemoryPoolAllocator@VCrtAllocator@rapidjson@@@2@@1@XZ 0041d420 f i BasicSpacecraft.obj
 0001:0001c440       ??C?$_Tree_iterator@V?$_Tree_val@U?$_Tree_simple_types@U?$pair@$$CBV?$basic_string@DU?$char_traits@D@std@@V?$allocator@D@2@@std@@V?$weak_ptr@USpriteData@@@2@@std@@@std@@@std@@@std@@QBEPAU?$pair@$$CBV?$basic_string@DU?$char_traits@D@std@@V?$allocator@D@2@@std@@V?$weak_ptr@USpriteData@@@2@@1@XZ 0041d440 f i BasicSpacecraft.obj
 0001:0001c470       ??C?$_Tree_iterator@V?$_Tree_val@U?$_Tree_simple_types@U?$pair@$$CBV?$basic_string@DU?$char_traits@D@std@@V?$allocator@D@2@@std@@V?$weak_ptr@VRawImageData@@@2@@std@@@std@@@std@@@std@@QBEPAU?$pair@$$CBV?$basic_string@DU?$char_traits@D@std@@V?$allocator@D@2@@std@@V?$weak_ptr@VRawImageData@@@2@@1@XZ 0041d470 f i BasicSpacecraft.obj
 0001:0001c4a0       ??D?$_Tree_const_iterator@V?$_Tree_val@U?$_Tree_simple_types@U?$pair@$$CBV?$basic_string@DU?$char_traits@D@std@@V?$allocator@D@2@@std@@V?$weak_ptr@USpriteData@@@2@@std@@@std@@@std@@@std@@QBEABU?$pair@$$CBV?$basic_string@DU?$char_traits@D@std@@V?$allocator@D@2@@std@@V?$weak_ptr@USpriteData@@@2@@1@XZ 0041d4a0 f i BasicSpacecraft.obj
 0001:0001c5b0       ??D?$_Tree_const_iterator@V?$_Tree_val@U?$_Tree_simple_types@U?$pair@$$CBV?$basic_string@DU?$char_traits@D@std@@V?$allocator@D@2@@std@@V?$weak_ptr@VRawImageData@@@2@@std@@@std@@@std@@@std@@QBEABU?$pair@$$CBV?$basic_string@DU?$char_traits@D@std@@V?$allocator@D@2@@std@@V?$weak_ptr@VRawImageData@@@2@@1@XZ 0041d5b0 f i BasicSpacecraft.obj
 0001:0001c6c0       ??D?$_Tree_iterator@V?$_Tree_val@U?$_Tree_simple_types@U?$pair@$$CBV?$basic_string@DU?$char_traits@D@std@@V?$allocator@D@2@@std@@V?$weak_ptr@USpriteData@@@2@@std@@@std@@@std@@@std@@QBEAAU?$pair@$$CBV?$basic_string@DU?$char_traits@D@std@@V?$allocator@D@2@@std@@V?$weak_ptr@USpriteData@@@2@@1@XZ 0041d6c0 f i BasicSpacecraft.obj
 0001:0001c6e0       ??D?$_Tree_iterator@V?$_Tree_val@U?$_Tree_simple_types@U?$pair@$$CBV?$basic_string@DU?$char_traits@D@std@@V?$allocator@D@2@@std@@V?$weak_ptr@VRawImageData@@@2@@std@@@std@@@std@@@std@@QBEAAU?$pair@$$CBV?$basic_string@DU?$char_traits@D@std@@V?$allocator@D@2@@std@@V?$weak_ptr@VRawImageData@@@2@@1@XZ 0041d6e0 f i BasicSpacecraft.obj
 0001:0001c700       ??DDiyFp@internal@rapidjson@@QBE?AU012@ABU012@@Z 0041d700 f i BasicSpacecraft.obj
 0001:0001c8d0       ??DMat22@@QBE?AVVec2D@@ABV1@@Z 0041d8d0 f i BasicSpacecraft.obj
 0001:0001c970       ??DVec2D@@QBE?AV0@O@Z      0041d970 f i BasicSpacecraft.obj
 0001:0001c9e0       ??E?$GenericMemberIterator@$0A@U?$UTF8@D@rapidjson@@V?$MemoryPoolAllocator@VCrtAllocator@rapidjson@@@2@@rapidjson@@QAEAAV01@XZ 0041d9e0 f i BasicSpacecraft.obj
 0001:0001ca10       ??E?$_Tree_const_iterator@V?$_Tree_val@U?$_Tree_simple_types@U?$pair@$$CBV?$basic_string@DU?$char_traits@D@std@@V?$allocator@D@2@@std@@V?$shared_ptr@VRawImageData@@@2@@std@@@std@@@std@@@std@@QAE?AV01@H@Z 0041da10 f i BasicSpacecraft.obj
 0001:0001cac0       ??E?$_Tree_const_iterator@V?$_Tree_val@U?$_Tree_simple_types@U?$pair@$$CBV?$basic_string@DU?$char_traits@D@std@@V?$allocator@D@2@@std@@V?$shared_ptr@VRawImageData@@@2@@std@@@std@@@std@@@std@@QAEAAV01@XZ 0041dac0 f i BasicSpacecraft.obj
 0001:0001cbd0       ??E?$_Tree_const_iterator@V?$_Tree_val@U?$_Tree_simple_types@U?$pair@$$CBV?$basic_string@DU?$char_traits@D@std@@V?$allocator@D@2@@std@@V?$weak_ptr@USpriteData@@@2@@std@@@std@@@std@@@std@@QAE?AV01@H@Z 0041dbd0 f i BasicSpacecraft.obj
 0001:0001cc80       ??E?$_Tree_const_iterator@V?$_Tree_val@U?$_Tree_simple_types@U?$pair@$$CBV?$basic_string@DU?$char_traits@D@std@@V?$allocator@D@2@@std@@V?$weak_ptr@USpriteData@@@2@@std@@@std@@@std@@@std@@QAEAAV01@XZ 0041dc80 f i BasicSpacecraft.obj
 0001:0001cd90       ??E?$_Tree_const_iterator@V?$_Tree_val@U?$_Tree_simple_types@U?$pair@$$CBV?$basic_string@DU?$char_traits@D@std@@V?$allocator@D@2@@std@@V?$weak_ptr@VRawImageData@@@2@@std@@@std@@@std@@@std@@QAE?AV01@H@Z 0041dd90 f i BasicSpacecraft.obj
 0001:0001ce40       ??E?$_Tree_const_iterator@V?$_Tree_val@U?$_Tree_simple_types@U?$pair@$$CBV?$basic_string@DU?$char_traits@D@std@@V?$allocator@D@2@@std@@V?$weak_ptr@VRawImageData@@@2@@std@@@std@@@std@@@std@@QAEAAV01@XZ 0041de40 f i BasicSpacecraft.obj
 0001:0001cf50       ??E?$_Tree_unchecked_const_iterator@V?$_Tree_val@U?$_Tree_simple_types@U?$pair@$$CBV?$basic_string@DU?$char_traits@D@std@@V?$allocator@D@2@@std@@V?$shared_ptr@VRawImageData@@@2@@std@@@std@@@std@@U_Iterator_base12@2@@std@@QAEAAV01@XZ 0041df50 f i BasicSpacecraft.obj
 0001:0001cff0       ??E?$_Tree_unchecked_const_iterator@V?$_Tree_val@U?$_Tree_simple_types@U?$pair@$$CBV?$basic_string@DU?$char_traits@D@std@@V?$allocator@D@2@@std@@V?$weak_ptr@USpriteData@@@2@@std@@@std@@@std@@U_Iterator_base12@2@@std@@QAEAAV01@XZ 0041dff0 f i BasicSpacecraft.obj
 0001:0001d090       ??E?$_Tree_unchecked_const_iterator@V?$_Tree_val@U?$_Tree_simple_types@U?$pair@$$CBV?$basic_string@DU?$char_traits@D@std@@V?$allocator@D@2@@std@@V?$weak_ptr@VRawImageData@@@2@@std@@@std@@@std@@U_Iterator_base12@2@@std@@QAEAAV01@XZ 0041e090 f i BasicSpacecraft.obj
 0001:0001d130       ??F?$_Tree_const_iterator@V?$_Tree_val@U?$_Tree_simple_types@U?$pair@$$CBV?$basic_string@DU?$char_traits@D@std@@V?$allocator@D@2@@std@@V?$shared_ptr@VRawImageData@@@2@@std@@@std@@@std@@@std@@QAEAAV01@XZ 0041e130 f i BasicSpacecraft.obj
 0001:0001d240       ??F?$_Tree_const_iterator@V?$_Tree_val@U?$_Tree_simple_types@U?$pair@$$CBV?$basic_string@DU?$char_traits@D@std@@V?$allocator@D@2@@std@@V?$weak_ptr@USpriteData@@@2@@std@@@std@@@std@@@std@@QAEAAV01@XZ 0041e240 f i BasicSpacecraft.obj
 0001:0001d350       ??F?$_Tree_const_iterator@V?$_Tree_val@U?$_Tree_simple_types@U?$pair@$$CBV?$basic_string@DU?$char_traits@D@std@@V?$allocator@D@2@@std@@V?$weak_ptr@VRawImageData@@@2@@std@@@std@@@std@@@std@@QAEAAV01@XZ 0041e350 f i BasicSpacecraft.obj
 0001:0001d460       ??F?$_Tree_iterator@V?$_Tree_val@U?$_Tree_simple_types@U?$pair@$$CBV?$basic_string@DU?$char_traits@D@std@@V?$allocator@D@2@@std@@V?$shared_ptr@VRawImageData@@@2@@std@@@std@@@std@@@std@@QAEAAV01@XZ 0041e460 f i BasicSpacecraft.obj
 0001:0001d480       ??F?$_Tree_iterator@V?$_Tree_val@U?$_Tree_simple_types@U?$pair@$$CBV?$basic_string@DU?$char_traits@D@std@@V?$allocator@D@2@@std@@V?$weak_ptr@USpriteData@@@2@@std@@@std@@@std@@@std@@QAEAAV01@XZ 0041e480 f i BasicSpacecraft.obj
 0001:0001d4a0       ??F?$_Tree_iterator@V?$_Tree_val@U?$_Tree_simple_types@U?$pair@$$CBV?$basic_string@DU?$char_traits@D@std@@V?$allocator@D@2@@std@@V?$weak_ptr@VRawImageData@@@2@@std@@@std@@@std@@@std@@QAEAAV01@XZ 0041e4a0 f i BasicSpacecraft.obj
 0001:0001d4c0       ??F?$_Tree_unchecked_const_iterator@V?$_Tree_val@U?$_Tree_simple_types@U?$pair@$$CBV?$basic_string@DU?$char_traits@D@std@@V?$allocator@D@2@@std@@V?$shared_ptr@VRawImageData@@@2@@std@@@std@@@std@@U_Iterator_base12@2@@std@@QAEAAV01@XZ 0041e4c0 f i BasicSpacecraft.obj
 0001:0001d590       ??F?$_Tree_unchecked_const_iterator@V?$_Tree_val@U?$_Tree_simple_types@U?$pair@$$CBV?$basic_string@DU?$char_traits@D@std@@V?$allocator@D@2@@std@@V?$weak_ptr@USpriteData@@@2@@std@@@std@@@std@@U_Iterator_base12@2@@std@@QAEAAV01@XZ 0041e590 f i BasicSpacecraft.obj
 0001:0001d660       ??F?$_Tree_unchecked_const_iterator@V?$_Tree_val@U?$_Tree_simple_types@U?$pair@$$CBV?$basic_string@DU?$char_traits@D@std@@V?$allocator@D@2@@std@@V?$weak_ptr@VRawImageData@@@2@@std@@@std@@@std@@U_Iterator_base12@2@@std@@QAEAAV01@XZ 0041e660 f i BasicSpacecraft.obj
 0001:0001d730       ??GFastVec2D@@QBE?AV0@ABV0@@Z 0041e730 f i BasicSpacecraft.obj
 0001:0001d7a0       ??GVec2D@@QBE?AV0@ABV0@@Z  0041e7a0 f i BasicSpacecraft.obj
 0001:0001d810       ??HVec2D@@QBE?AV0@ABV0@@Z  0041e810 f i BasicSpacecraft.obj
 0001:0001d880       ??R<lambda_9366063389c5f42a00a5088cf24e69de>@@QBE@QADIQBD@Z 0041e880 f i BasicSpacecraft.obj
 0001:0001d8d0       ??R?$less@V?$basic_string@DU?$char_traits@D@std@@V?$allocator@D@2@@std@@@std@@QBE_NABV?$basic_string@DU?$char_traits@D@std@@V?$allocator@D@2@@1@0@Z 0041e8d0 f i BasicSpacecraft.obj
 0001:0001d900       ??XBigInteger@internal@rapidjson@@QAEAAV012@I@Z 0041e900 f i BasicSpacecraft.obj
 0001:0001dae0       ??XBigInteger@internal@rapidjson@@QAEAAV012@_K@Z 0041eae0 f i BasicSpacecraft.obj
 0001:0001dc10       ??XFastVec2D@@QAE?AV0@N@Z  0041ec10 f i BasicSpacecraft.obj
 0001:0001dca0       ??YBigInteger@internal@rapidjson@@QAEAAV012@_K@Z 0041eca0 f i BasicSpacecraft.obj
 0001:0001de10       ??YFastVec2D@@QAEAAV0@ABV0@@Z 0041ee10 f i BasicSpacecraft.obj
 0001:0001de60       ??YVec2D@@QAEAAV0@ABV0@@Z  0041ee60 f i BasicSpacecraft.obj
 0001:0001deb0       ??_3BigInteger@internal@rapidjson@@QAEAAV012@I@Z 0041eeb0 f i BasicSpacecraft.obj
 0001:0001e0f0       ??_G?$GenericMember@U?$UTF8@D@rapidjson@@V?$MemoryPoolAllocator@VCrtAllocator@rapidjson@@@2@@rapidjson@@QAEPAXI@Z 0041f0f0 f i BasicSpacecraft.obj
 0001:0001e130       ??_G?$GenericValue@U?$UTF8@D@rapidjson@@V?$MemoryPoolAllocator@VCrtAllocator@rapidjson@@@2@@rapidjson@@QAEPAXI@Z 0041f130 f i BasicSpacecraft.obj
 0001:0001e170       ??_G?$MemoryPoolAllocator@VCrtAllocator@rapidjson@@@rapidjson@@QAEPAXI@Z 0041f170 f i BasicSpacecraft.obj
 0001:0001e1b0       ??_G?$_Ref_count@USpriteData@@@std@@UAEPAXI@Z 0041f1b0 f i BasicSpacecraft.obj
 0001:0001e1b0       ??_E?$_Ref_count@USpriteData@@@std@@UAEPAXI@Z 0041f1b0 f i BasicSpacecraft.obj
 0001:0001e1f0       ??_E?$_Ref_count@VRawImageData@@@std@@UAEPAXI@Z 0041f1f0 f i BasicSpacecraft.obj
 0001:0001e1f0       ??_G?$_Ref_count@VRawImageData@@@std@@UAEPAXI@Z 0041f1f0 f i BasicSpacecraft.obj
 0001:0001e230       ??_G?$pair@$$CBV?$basic_string@DU?$char_traits@D@std@@V?$allocator@D@2@@std@@V?$shared_ptr@VRawImageData@@@2@@std@@QAEPAXI@Z 0041f230 f i BasicSpacecraft.obj
 0001:0001e270       ??_G?$pair@$$CBV?$basic_string@DU?$char_traits@D@std@@V?$allocator@D@2@@std@@V?$weak_ptr@USpriteData@@@2@@std@@QAEPAXI@Z 0041f270 f i BasicSpacecraft.obj
 0001:0001e2b0       ??_G?$pair@$$CBV?$basic_string@DU?$char_traits@D@std@@V?$allocator@D@2@@std@@V?$weak_ptr@VRawImageData@@@2@@std@@QAEPAXI@Z 0041f2b0 f i BasicSpacecraft.obj
 0001:0001e2f0       ??_EBasicSpacecraft@@UAEPAXI@Z 0041f2f0 f i BasicSpacecraft.obj
 0001:0001e2f0       ??_GBasicSpacecraft@@UAEPAXI@Z 0041f2f0 f i BasicSpacecraft.obj
 0001:0001e330       ??_GRawImageData@@QAEPAXI@Z 0041f330 f i BasicSpacecraft.obj
 0001:0001e370       ??_GSpriteData@@QAEPAXI@Z  0041f370 f i BasicSpacecraft.obj
 0001:0001e3b0       ?AddChunk@?$MemoryPoolAllocator@VCrtAllocator@rapidjson@@@rapidjson@@AAE_NI@Z 0041f3b0 f i BasicSpacecraft.obj
 0001:0001e470       ?AppendDecimal64@BigInteger@internal@rapidjson@@AAEXPBD0@Z 0041f470 f i BasicSpacecraft.obj
 0001:0001e510       ?Begin@?$GenericValue@U?$UTF8@D@rapidjson@@V?$MemoryPoolAllocator@VCrtAllocator@rapidjson@@@2@@rapidjson@@QAEPAV12@XZ 0041f510 f i BasicSpacecraft.obj
 0001:0001e560       ?Bool@?$GenericDocument@U?$UTF8@D@rapidjson@@V?$MemoryPoolAllocator@VCrtAllocator@rapidjson@@@2@VCrtAllocator@2@@rapidjson@@QAE_N_N@Z 0041f560 f i BasicSpacecraft.obj
 0001:0001e5b0       ?CheckWithinHalfULP@internal@rapidjson@@YAHNABVBigInteger@12@H@Z 0041f5b0 f i BasicSpacecraft.obj
 0001:0001e920       ?Clear@?$MemoryPoolAllocator@VCrtAllocator@rapidjson@@@rapidjson@@QAEXXZ 0041f920 f i BasicSpacecraft.obj
 0001:0001e9a0       ?Clear@?$Stack@VCrtAllocator@rapidjson@@@internal@rapidjson@@QAEXXZ 0041f9a0 f i BasicSpacecraft.obj
 0001:0001e9c0       ?Clear@ParseResult@rapidjson@@QAEXXZ 0041f9c0 f i BasicSpacecraft.obj
 0001:0001e9e0       ?ClearStack@?$GenericDocument@U?$UTF8@D@rapidjson@@V?$MemoryPoolAllocator@VCrtAllocator@rapidjson@@@2@VCrtAllocator@2@@rapidjson@@AAEXXZ 0041f9e0 f i BasicSpacecraft.obj
 0001:0001ea50       ?ClearStack@?$GenericReader@U?$UTF8@D@rapidjson@@U12@VCrtAllocator@2@@rapidjson@@AAEXXZ 0041fa50 f i BasicSpacecraft.obj
 0001:0001ea70       ?Compare@BigInteger@internal@rapidjson@@QBEHABV123@@Z 0041fa70 f i BasicSpacecraft.obj
 0001:0001ebd0       ?Destroy@?$GenericDocument@U?$UTF8@D@rapidjson@@V?$MemoryPoolAllocator@VCrtAllocator@rapidjson@@@2@VCrtAllocator@2@@rapidjson@@AAEXXZ 0041fbd0 f i BasicSpacecraft.obj
 0001:0001ec20       ?Destroy@?$Stack@VCrtAllocator@rapidjson@@@internal@rapidjson@@AAEXXZ 0041fc20 f i BasicSpacecraft.obj
 0001:0001ec60       ?Difference@BigInteger@internal@rapidjson@@QBE_NABV123@PAV123@@Z 0041fc60 f i BasicSpacecraft.obj
 0001:0001ee00       ?Double@?$GenericDocument@U?$UTF8@D@rapidjson@@V?$MemoryPoolAllocator@VCrtAllocator@rapidjson@@@2@VCrtAllocator@2@@rapidjson@@QAE_NN@Z 0041fe00 f i BasicSpacecraft.obj
 0001:0001ee60       ?EffectiveSignificandSize@Double@internal@rapidjson@@SAHH@Z 0041fe60 f i BasicSpacecraft.obj
 0001:0001eea0       ?Empty@?$Stack@VCrtAllocator@rapidjson@@@internal@rapidjson@@QBE_NXZ 0041fea0 f i BasicSpacecraft.obj
 0001:0001eee0       ?End@?$GenericValue@U?$UTF8@D@rapidjson@@V?$MemoryPoolAllocator@VCrtAllocator@rapidjson@@@2@@rapidjson@@QAEPAV12@XZ 0041fee0 f i BasicSpacecraft.obj
 0001:0001ef40       ?EndArray@?$GenericDocument@U?$UTF8@D@rapidjson@@V?$MemoryPoolAllocator@VCrtAllocator@rapidjson@@@2@VCrtAllocator@2@@rapidjson@@QAE_NI@Z 0041ff40 f i BasicSpacecraft.obj
 0001:0001efa0       ?EndObject@?$GenericDocument@U?$UTF8@D@rapidjson@@V?$MemoryPoolAllocator@VCrtAllocator@rapidjson@@@2@VCrtAllocator@2@@rapidjson@@QAE_NI@Z 0041ffa0 f i BasicSpacecraft.obj
 0001:0001f000       ?Exponent@Double@internal@rapidjson@@QBEHXZ 00420000 f i BasicSpacecraft.obj
 0001:0001f040       ?FastPath@internal@rapidjson@@YANNH@Z 00420040 f i BasicSpacecraft.obj
 0001:0001f0c0       ?Free@?$MemoryPoolAllocator@VCrtAllocator@rapidjson@@@rapidjson@@SAXPAX@Z 004200c0 f i BasicSpacecraft.obj
 0001:0001f0d0       ?Free@CrtAllocator@rapidjson@@SAXPAX@Z 004200d0 f i BasicSpacecraft.obj
 0001:0001f0f0       ?GetAllocator@?$GenericDocument@U?$UTF8@D@rapidjson@@V?$MemoryPoolAllocator@VCrtAllocator@rapidjson@@@2@VCrtAllocator@2@@rapidjson@@QAEAAV?$MemoryPoolAllocator@VCrtAllocator@rapidjson@@@2@XZ 004200f0 f i BasicSpacecraft.obj
 0001:0001f130       ?GetAllocator@?$Stack@VCrtAllocator@rapidjson@@@internal@rapidjson@@QAEAAVCrtAllocator@3@XZ 00420130 f i BasicSpacecraft.obj
 0001:0001f170       ?GetArray@?$GenericValue@U?$UTF8@D@rapidjson@@V?$MemoryPoolAllocator@VCrtAllocator@rapidjson@@@2@@rapidjson@@QAE?AV?$GenericArray@$0A@V?$GenericValue@U?$UTF8@D@rapidjson@@V?$MemoryPoolAllocator@VCrtAllocator@rapidjson@@@2@@rapidjson@@@2@XZ 00420170 f i BasicSpacecraft.obj
 0001:0001f1e0       ?GetCachedPower10@internal@rapidjson@@YA?AUDiyFp@12@HPAH@Z 004201e0 f i BasicSpacecraft.obj
 0001:0001f250       ?GetCachedPowerByIndex@internal@rapidjson@@YA?AUDiyFp@12@I@Z 00420250 f i BasicSpacecraft.obj
 0001:0001f2b0       ?GetCapacity@?$Stack@VCrtAllocator@rapidjson@@@internal@rapidjson@@QBEIXZ 004202b0 f i BasicSpacecraft.obj
 0001:0001f2d0       ?GetElementsPointer@?$GenericValue@U?$UTF8@D@rapidjson@@V?$MemoryPoolAllocator@VCrtAllocator@rapidjson@@@2@@rapidjson@@ABEPAV12@XZ 004202d0 f i BasicSpacecraft.obj
 0001:0001f2f0       ?GetInt@?$GenericValue@U?$UTF8@D@rapidjson@@V?$MemoryPoolAllocator@VCrtAllocator@rapidjson@@@2@@rapidjson@@QBEHXZ 004202f0 f i BasicSpacecraft.obj
 0001:0001f340       ?GetLength@ShortString@?$GenericValue@U?$UTF8@D@rapidjson@@V?$MemoryPoolAllocator@VCrtAllocator@rapidjson@@@2@@rapidjson@@QBEIXZ 00420340 f i BasicSpacecraft.obj
 0001:0001f370       ?GetMembersPointer@?$GenericValue@U?$UTF8@D@rapidjson@@V?$MemoryPoolAllocator@VCrtAllocator@rapidjson@@@2@@rapidjson@@ABEPAV?$GenericMember@U?$UTF8@D@rapidjson@@V?$MemoryPoolAllocator@VCrtAllocator@rapidjson@@@2@@2@XZ 00420370 f i BasicSpacecraft.obj
 0001:0001f390       ?GetRange@?$UTF8@D@rapidjson@@SAEE@Z 00420390 f i BasicSpacecraft.obj
 0001:0001f3b0       ?GetSize@?$Stack@VCrtAllocator@rapidjson@@@internal@rapidjson@@QBEIXZ 004203b0 f i BasicSpacecraft.obj
 0001:0001f3d0       ?GetString@?$GenericValue@U?$UTF8@D@rapidjson@@V?$MemoryPoolAllocator@VCrtAllocator@rapidjson@@@2@@rapidjson@@QBEPBDXZ 004203d0 f i BasicSpacecraft.obj
 0001:0001f440       ?GetStringLength@?$GenericValue@U?$UTF8@D@rapidjson@@V?$MemoryPoolAllocator@VCrtAllocator@rapidjson@@@2@@rapidjson@@QBEIXZ 00420440 f i BasicSpacecraft.obj
 0001:0001f4b0       ?GetStringPointer@?$GenericValue@U?$UTF8@D@rapidjson@@V?$MemoryPoolAllocator@VCrtAllocator@rapidjson@@@2@@rapidjson@@ABEPBDXZ 004204b0 f i BasicSpacecraft.obj
 0001:0001f4d0       ?HasAllocator@?$Stack@VCrtAllocator@rapidjson@@@internal@rapidjson@@QBE_NXZ 004204d0 f i BasicSpacecraft.obj
 0001:0001f510       ?HasParseError@?$GenericReader@U?$UTF8@D@rapidjson@@U12@VCrtAllocator@2@@rapidjson@@QBE_NXZ 00420510 f i BasicSpacecraft.obj
 0001:0001f530       ?Int64@?$GenericDocument@U?$UTF8@D@rapidjson@@V?$MemoryPoolAllocator@VCrtAllocator@rapidjson@@@2@VCrtAllocator@2@@rapidjson@@QAE_N_J@Z 00420530 f i BasicSpacecraft.obj
 0001:0001f580       ?Int@?$GenericDocument@U?$UTF8@D@rapidjson@@V?$MemoryPoolAllocator@VCrtAllocator@rapidjson@@@2@VCrtAllocator@2@@rapidjson@@QAE_NH@Z 00420580 f i BasicSpacecraft.obj
 0001:0001f5d0       ?IntegerExponent@Double@internal@rapidjson@@QBEHXZ 004205d0 f i BasicSpacecraft.obj
 0001:0001f620       ?IntegerSignificand@Double@internal@rapidjson@@QBE_KXZ 00420620 f i BasicSpacecraft.obj
 0001:0001f680       ?IsArray@?$GenericValue@U?$UTF8@D@rapidjson@@V?$MemoryPoolAllocator@VCrtAllocator@rapidjson@@@2@@rapidjson@@QBE_NXZ 00420680 f i BasicSpacecraft.obj
 0001:0001f6c0       ?IsError@ParseResult@rapidjson@@QBE_NXZ 004206c0 f i BasicSpacecraft.obj
 0001:0001f700       ?IsNormal@Double@internal@rapidjson@@QBE_NXZ 00420700 f i BasicSpacecraft.obj
 0001:0001f770       ?IsObject@?$GenericValue@U?$UTF8@D@rapidjson@@V?$MemoryPoolAllocator@VCrtAllocator@rapidjson@@@2@@rapidjson@@QBE_NXZ 00420770 f i BasicSpacecraft.obj
 0001:0001f7b0       ?IsString@?$GenericValue@U?$UTF8@D@rapidjson@@V?$MemoryPoolAllocator@VCrtAllocator@rapidjson@@@2@@rapidjson@@QBE_NXZ 004207b0 f i BasicSpacecraft.obj
 0001:0001f7f0       ?IsZero@BigInteger@internal@rapidjson@@QBE_NXZ 004207f0 f i BasicSpacecraft.obj
 0001:0001f860       ?Key@?$GenericDocument@U?$UTF8@D@rapidjson@@V?$MemoryPoolAllocator@VCrtAllocator@rapidjson@@@2@VCrtAllocator@2@@rapidjson@@QAE_NPBDI_N@Z 00420860 f i BasicSpacecraft.obj
 0001:0001f890       ?Length@?$NumberStream@VFileReadStream@rapidjson@@$0A@$0A@@?$GenericReader@U?$UTF8@D@rapidjson@@U12@VCrtAllocator@2@@rapidjson@@QAEIXZ 00420890 f i BasicSpacecraft.obj
 0001:0001f8a0       ?Length@?$StackStream@D@?$GenericReader@U?$UTF8@D@rapidjson@@U12@VCrtAllocator@2@@rapidjson@@QBEIXZ 004208a0 f i BasicSpacecraft.obj
 0001:0001f8c0       ?Malloc@?$MemoryPoolAllocator@VCrtAllocator@rapidjson@@@rapidjson@@QAEPAXI@Z 004208c0 f i BasicSpacecraft.obj
 0001:0001f990       ?Malloc@CrtAllocator@rapidjson@@QAEPAXI@Z 00420990 f i BasicSpacecraft.obj
 0001:0001f9c0       ?MemberBegin@?$GenericValue@U?$UTF8@D@rapidjson@@V?$MemoryPoolAllocator@VCrtAllocator@rapidjson@@@2@@rapidjson@@QAE?AV?$GenericMemberIterator@$0A@U?$UTF8@D@rapidjson@@V?$MemoryPoolAllocator@VCrtAllocator@rapidjson@@@2@@2@XZ 004209c0 f i BasicSpacecraft.obj
 0001:0001fa20       ?MemberEnd@?$GenericValue@U?$UTF8@D@rapidjson@@V?$MemoryPoolAllocator@VCrtAllocator@rapidjson@@@2@@rapidjson@@QAE?AV?$GenericMemberIterator@$0A@U?$UTF8@D@rapidjson@@V?$MemoryPoolAllocator@VCrtAllocator@rapidjson@@@2@@2@XZ 00420a20 f i BasicSpacecraft.obj
 0001:0001fa90       ?MulAdd64@BigInteger@internal@rapidjson@@CA_K_K00PA_K@Z 00420a90 f i BasicSpacecraft.obj
 0001:0001fc90       ?MultiplyPow5@BigInteger@internal@rapidjson@@QAEAAV123@I@Z 00420c90 f i BasicSpacecraft.obj
 0001:0001fd30       ?NextPositiveDouble@Double@internal@rapidjson@@QBENXZ 00420d30 f i BasicSpacecraft.obj
 0001:0001fda0       ?Normalize@DiyFp@internal@rapidjson@@QBE?AU123@XZ 00420da0 f i BasicSpacecraft.obj
 0001:0001fe00       ?NotNullStrLen@?$GenericStringRef@D@rapidjson@@AAEIPBD@Z 00420e00 f i BasicSpacecraft.obj
 0001:0001fe50       ?Null@?$GenericDocument@U?$UTF8@D@rapidjson@@V?$MemoryPoolAllocator@VCrtAllocator@rapidjson@@@2@VCrtAllocator@2@@rapidjson@@QAE_NXZ 00420e50 f i BasicSpacecraft.obj
 0001:0001fe90       ?ParseUint64@BigInteger@internal@rapidjson@@CA_KPBD0@Z 00420e90 f i BasicSpacecraft.obj
 0001:0001ff40       ?Peek@?$NumberStream@VFileReadStream@rapidjson@@$0A@$0A@@?$GenericReader@U?$UTF8@D@rapidjson@@U12@VCrtAllocator@2@@rapidjson@@QBEDXZ 00420f40 f i BasicSpacecraft.obj
 0001:0001ff60       ?Peek@FileReadStream@rapidjson@@QBEDXZ 00420f60 f i BasicSpacecraft.obj
 0001:0001ff80       ?Pop@?$NumberStream@VFileReadStream@rapidjson@@$0A@$0A@@?$GenericReader@U?$UTF8@D@rapidjson@@U12@VCrtAllocator@2@@rapidjson@@QAEPBDXZ 00420f80 f i BasicSpacecraft.obj
 0001:0001ff90       ?Pop@?$StackStream@D@?$GenericReader@U?$UTF8@D@rapidjson@@U12@VCrtAllocator@2@@rapidjson@@QAEPADXZ 00420f90 f i BasicSpacecraft.obj
 0001:0001ffc0       ?Pow10@internal@rapidjson@@YANH@Z 00420fc0 f i BasicSpacecraft.obj
 0001:00020000       ?Predict@?$GenericReader@U?$UTF8@D@rapidjson@@U12@VCrtAllocator@2@@rapidjson@@ABE?AW4IterativeParsingState@12@W4312@W4Token@12@@Z 00421000 f i BasicSpacecraft.obj
 0001:00020030       ?PushBack@BigInteger@internal@rapidjson@@AAEX_K@Z 00421030 f i BasicSpacecraft.obj
 0001:000200b0       ?Put@?$StackStream@D@?$GenericReader@U?$UTF8@D@rapidjson@@U12@VCrtAllocator@2@@rapidjson@@QAEXD@Z 004210b0 f i BasicSpacecraft.obj
 0001:000200f0       ?Put@FileReadStream@rapidjson@@QAEXD@Z 004210f0 f i BasicSpacecraft.obj
 0001:00020120       ?PutBegin@FileReadStream@rapidjson@@QAEPADXZ 00421120 f i BasicSpacecraft.obj
 0001:00020150       ?PutEnd@FileReadStream@rapidjson@@QAEIPAD@Z 00421150 f i BasicSpacecraft.obj
 0001:00020190       ?RawAssign@?$GenericValue@U?$UTF8@D@rapidjson@@V?$MemoryPoolAllocator@VCrtAllocator@rapidjson@@@2@@rapidjson@@AAEXAAV12@@Z 00421190 f i BasicSpacecraft.obj
 0001:000201d0       ?RawNumber@?$GenericDocument@U?$UTF8@D@rapidjson@@V?$MemoryPoolAllocator@VCrtAllocator@rapidjson@@@2@VCrtAllocator@2@@rapidjson@@QAE_NPBDI_N@Z 004211d0 f i BasicSpacecraft.obj
 0001:00020270       ?Read@FileReadStream@rapidjson@@AAEXXZ 00421270 f i BasicSpacecraft.obj
 0001:00020370       ?Realloc@CrtAllocator@rapidjson@@QAEPAXPAXII@Z 00421370 f i BasicSpacecraft.obj
 0001:000203c0       ?Resize@?$Stack@VCrtAllocator@rapidjson@@@internal@rapidjson@@AAEXI@Z 004213c0 f i BasicSpacecraft.obj
 0001:00020440       ?Set@ParseResult@rapidjson@@QAEXW4ParseErrorCode@2@I@Z 00421440 f i BasicSpacecraft.obj
 0001:00020470       ?SetArrayRaw@?$GenericValue@U?$UTF8@D@rapidjson@@V?$MemoryPoolAllocator@VCrtAllocator@rapidjson@@@2@@rapidjson@@AAEXPAV12@IAAV?$MemoryPoolAllocator@VCrtAllocator@rapidjson@@@2@@Z 00421470 f i BasicSpacecraft.obj
 0001:00020500       ?SetElementsPointer@?$GenericValue@U?$UTF8@D@rapidjson@@V?$MemoryPoolAllocator@VCrtAllocator@rapidjson@@@2@@rapidjson@@AAEPAV12@PAV12@@Z 00421500 f i BasicSpacecraft.obj
 0001:00020520       ?SetLength@ShortString@?$GenericValue@U?$UTF8@D@rapidjson@@V?$MemoryPoolAllocator@VCrtAllocator@rapidjson@@@2@@rapidjson@@QAEXI@Z 00421520 f i BasicSpacecraft.obj
 0001:00020550       ?SetMembersPointer@?$GenericValue@U?$UTF8@D@rapidjson@@V?$MemoryPoolAllocator@VCrtAllocator@rapidjson@@@2@@rapidjson@@AAEPAV?$GenericMember@U?$UTF8@D@rapidjson@@V?$MemoryPoolAllocator@VCrtAllocator@rapidjson@@@2@@2@PAV32@@Z 00421550 f i BasicSpacecraft.obj
 0001:00020570       ?SetObjectRaw@?$GenericValue@U?$UTF8@D@rapidjson@@V?$MemoryPoolAllocator@VCrtAllocator@rapidjson@@@2@@rapidjson@@AAEXPAV?$GenericMember@U?$UTF8@D@rapidjson@@V?$MemoryPoolAllocator@VCrtAllocator@rapidjson@@@2@@2@IAAV?$MemoryPoolAllocator@VCrtAllocator@rapidjson@@@2@@Z 00421570 f i BasicSpacecraft.obj
 0001:00020600       ?SetParseError@?$GenericReader@U?$UTF8@D@rapidjson@@U12@VCrtAllocator@2@@rapidjson@@IAEXW4ParseErrorCode@2@I@Z 00421600 f i BasicSpacecraft.obj
 0001:00020630       ?SetStringPointer@?$GenericValue@U?$UTF8@D@rapidjson@@V?$MemoryPoolAllocator@VCrtAllocator@rapidjson@@@2@@rapidjson@@AAEPBDPBD@Z 00421630 f i BasicSpacecraft.obj
 0001:00020650       ?SetStringRaw@?$GenericValue@U?$UTF8@D@rapidjson@@V?$MemoryPoolAllocator@VCrtAllocator@rapidjson@@@2@@rapidjson@@AAEXU?$GenericStringRef@D@2@@Z 00421650 f i BasicSpacecraft.obj
 0001:000206d0       ?SetStringRaw@?$GenericValue@U?$UTF8@D@rapidjson@@V?$MemoryPoolAllocator@VCrtAllocator@rapidjson@@@2@@rapidjson@@AAEXU?$GenericStringRef@D@2@AAV?$MemoryPoolAllocator@VCrtAllocator@rapidjson@@@2@@Z 004216d0 f i BasicSpacecraft.obj
 0001:000207a0       ?ShrinkToFit@?$Stack@VCrtAllocator@rapidjson@@@internal@rapidjson@@QAEXXZ 004217a0 f i BasicSpacecraft.obj
 0001:00020810       ?Sign@Double@internal@rapidjson@@QBE_NXZ 00421810 f i BasicSpacecraft.obj
 0001:00020860       ?Significand@Double@internal@rapidjson@@QBE_KXZ 00421860 f i BasicSpacecraft.obj
 0001:00020890       ?StartArray@?$GenericDocument@U?$UTF8@D@rapidjson@@V?$MemoryPoolAllocator@VCrtAllocator@rapidjson@@@2@VCrtAllocator@2@@rapidjson@@QAE_NXZ 00421890 f i BasicSpacecraft.obj
 0001:000208e0       ?StartObject@?$GenericDocument@U?$UTF8@D@rapidjson@@V?$MemoryPoolAllocator@VCrtAllocator@rapidjson@@@2@VCrtAllocator@2@@rapidjson@@QAE_NXZ 004218e0 f i BasicSpacecraft.obj
 0001:00020930       ?String@?$GenericDocument@U?$UTF8@D@rapidjson@@V?$MemoryPoolAllocator@VCrtAllocator@rapidjson@@@2@VCrtAllocator@2@@rapidjson@@QAE_NPBDI_N@Z 00421930 f i BasicSpacecraft.obj
 0001:000209d0       ?StrtodBigInteger@internal@rapidjson@@YANNPBDHH@Z 004219d0 f i BasicSpacecraft.obj
 0001:00020b20       ?StrtodDiyFp@internal@rapidjson@@YA_NPBDHHPAN@Z 00421b20 f i BasicSpacecraft.obj
 0001:000211f0       ?StrtodFast@internal@rapidjson@@YA_NNHPAN@Z 004221f0 f i BasicSpacecraft.obj
 0001:00021290       ?StrtodFullPrecision@internal@rapidjson@@YANNHPBDIIH@Z 00422290 f i BasicSpacecraft.obj
 0001:00021560       ?StrtodNormalPrecision@internal@rapidjson@@YANNH@Z 00422560 f i BasicSpacecraft.obj
 0001:000215f0       ?Take@?$GenericStringStream@U?$UTF8@D@rapidjson@@@rapidjson@@QAEDXZ 004225f0 f i BasicSpacecraft.obj
 0001:00021620       ?Take@?$NumberStream@VFileReadStream@rapidjson@@$0A@$0A@@?$GenericReader@U?$UTF8@D@rapidjson@@U12@VCrtAllocator@2@@rapidjson@@QAEDXZ 00422620 f i BasicSpacecraft.obj
 0001:00021640       ?Take@FileReadStream@rapidjson@@QAEDXZ 00422640 f i BasicSpacecraft.obj
 0001:00021670       ?TakePush@?$NumberStream@VFileReadStream@rapidjson@@$0A@$0A@@?$GenericReader@U?$UTF8@D@rapidjson@@U12@VCrtAllocator@2@@rapidjson@@QAEDXZ 00422670 f i BasicSpacecraft.obj
 0001:00021690       ?Tell@?$NumberStream@VFileReadStream@rapidjson@@$0A@$0A@@?$GenericReader@U?$UTF8@D@rapidjson@@U12@VCrtAllocator@2@@rapidjson@@QAEIXZ 00422690 f i BasicSpacecraft.obj
 0001:000216b0       ?Tell@FileReadStream@rapidjson@@QBEIXZ 004226b0 f i BasicSpacecraft.obj
 0001:000216e0       ?ToDouble@DiyFp@internal@rapidjson@@QBENXZ 004226e0 f i BasicSpacecraft.obj
 0001:00021800       ?Tokenize@?$GenericReader@U?$UTF8@D@rapidjson@@U12@VCrtAllocator@2@@rapidjson@@ABE?AW4Token@12@D@Z 00422800 f i BasicSpacecraft.obj
 0001:00021840       ?Uint64@?$GenericDocument@U?$UTF8@D@rapidjson@@V?$MemoryPoolAllocator@VCrtAllocator@rapidjson@@@2@VCrtAllocator@2@@rapidjson@@QAE_N_K@Z 00422840 f i BasicSpacecraft.obj
 0001:00021890       ?Uint@?$GenericDocument@U?$UTF8@D@rapidjson@@V?$MemoryPoolAllocator@VCrtAllocator@rapidjson@@@2@VCrtAllocator@2@@rapidjson@@QAE_NI@Z 00422890 f i BasicSpacecraft.obj
 0001:000218e0       ?Usable@ShortString@?$GenericValue@U?$UTF8@D@rapidjson@@V?$MemoryPoolAllocator@VCrtAllocator@rapidjson@@@2@@rapidjson@@SA_NI@Z 004228e0 f i BasicSpacecraft.obj
 0001:00021910       ?Value@Double@internal@rapidjson@@QBENXZ 00422910 f i BasicSpacecraft.obj
 0001:00021930       ?_Adjust_manually_vector_aligned@std@@YAXAAPAXAAI@Z 00422930 f i BasicSpacecraft.obj
 0001:00021a80       ?_Adopt@_Iterator_base12@std@@QAEXPBU_Container_base12@2@@Z 00422a80 f i BasicSpacecraft.obj
 0001:00021b60       ?_Alloc_proxy@?$_String_alloc@U?$_String_base_types@DV?$allocator@D@std@@@std@@@std@@QAEXXZ 00422b60 f i BasicSpacecraft.obj
 0001:00021c00       ?_Alloc_proxy@?$_Tree_comp_alloc@V?$_Tmap_traits@V?$basic_string@DU?$char_traits@D@std@@V?$allocator@D@2@@std@@V?$shared_ptr@VRawImageData@@@2@U?$less@V?$basic_string@DU?$char_traits@D@std@@V?$allocator@D@2@@std@@@2@V?$allocator@U?$pair@$$CBV?$basic_string@DU?$char_traits@D@std@@V?$allocator@D@2@@std@@V?$shared_ptr@VRawImageData@@@2@@std@@@2@$0A@@std@@@std@@QAEXXZ 00422c00 f i BasicSpacecraft.obj
 0001:00021ca0       ?_Alloc_proxy@?$_Tree_comp_alloc@V?$_Tmap_traits@V?$basic_string@DU?$char_traits@D@std@@V?$allocator@D@2@@std@@V?$weak_ptr@USpriteData@@@2@U?$less@V?$basic_string@DU?$char_traits@D@std@@V?$allocator@D@2@@std@@@2@V?$allocator@U?$pair@$$CBV?$basic_string@DU?$char_traits@D@std@@V?$allocator@D@2@@std@@V?$weak_ptr@USpriteData@@@2@@std@@@2@$0A@@std@@@std@@QAEXXZ 00422ca0 f i BasicSpacecraft.obj
 0001:00021d40       ?_Alloc_proxy@?$_Tree_comp_alloc@V?$_Tmap_traits@V?$basic_string@DU?$char_traits@D@std@@V?$allocator@D@2@@std@@V?$weak_ptr@VRawImageData@@@2@U?$less@V?$basic_string@DU?$char_traits@D@std@@V?$allocator@D@2@@std@@@2@V?$allocator@U?$pair@$$CBV?$basic_string@DU?$char_traits@D@std@@V?$allocator@D@2@@std@@V?$weak_ptr@VRawImageData@@@2@@std@@@2@$0A@@std@@@std@@QAEXXZ 00422d40 f i BasicSpacecraft.obj
 0001:00021de0       ?_Allocate@_Default_allocate_traits@std@@SAPAXI@Z 00422de0 f i BasicSpacecraft.obj
 0001:00021e00       ?_Assign_rv_contents_with_alloc_always_equal@?$basic_string@DU?$char_traits@D@std@@V?$allocator@D@2@@std@@QAEX$$QAV12@U?$integral_constant@_N$00@2@@Z 00422e00 f i BasicSpacecraft.obj
 0001:00021ee0       ?_Buyheadnode@?$_Tree_comp_alloc@V?$_Tmap_traits@V?$basic_string@DU?$char_traits@D@std@@V?$allocator@D@2@@std@@V?$shared_ptr@VRawImageData@@@2@U?$less@V?$basic_string@DU?$char_traits@D@std@@V?$allocator@D@2@@std@@@2@V?$allocator@U?$pair@$$CBV?$basic_string@DU?$char_traits@D@std@@V?$allocator@D@2@@std@@V?$shared_ptr@VRawImageData@@@2@@std@@@2@$0A@@std@@@std@@QAEPAU?$_Tree_node@U?$pair@$$CBV?$basic_string@DU?$char_traits@D@std@@V?$allocator@D@2@@std@@V?$shared_ptr@VRawImageData@@@2@@std@@PAX@2@XZ 00422ee0 f i BasicSpacecraft.obj
 0001:00022020       ?_Buyheadnode@?$_Tree_comp_alloc@V?$_Tmap_traits@V?$basic_string@DU?$char_traits@D@std@@V?$allocator@D@2@@std@@V?$weak_ptr@USpriteData@@@2@U?$less@V?$basic_string@DU?$char_traits@D@std@@V?$allocator@D@2@@std@@@2@V?$allocator@U?$pair@$$CBV?$basic_string@DU?$char_traits@D@std@@V?$allocator@D@2@@std@@V?$weak_ptr@USpriteData@@@2@@std@@@2@$0A@@std@@@std@@QAEPAU?$_Tree_node@U?$pair@$$CBV?$basic_string@DU?$char_traits@D@std@@V?$allocator@D@2@@std@@V?$weak_ptr@USpriteData@@@2@@std@@PAX@2@XZ 00423020 f i BasicSpacecraft.obj
 0001:00022160       ?_Buyheadnode@?$_Tree_comp_alloc@V?$_Tmap_traits@V?$basic_string@DU?$char_traits@D@std@@V?$allocator@D@2@@std@@V?$weak_ptr@VRawImageData@@@2@U?$less@V?$basic_string@DU?$char_traits@D@std@@V?$allocator@D@2@@std@@@2@V?$allocator@U?$pair@$$CBV?$basic_string@DU?$char_traits@D@std@@V?$allocator@D@2@@std@@V?$weak_ptr@VRawImageData@@@2@@std@@@2@$0A@@std@@@std@@QAEPAU?$_Tree_node@U?$pair@$$CBV?$basic_string@DU?$char_traits@D@std@@V?$allocator@D@2@@std@@V?$weak_ptr@VRawImageData@@@2@@std@@PAX@2@XZ 00423160 f i BasicSpacecraft.obj
 0001:000222a0       ?_Buynode0@?$_Tree_comp_alloc@V?$_Tmap_traits@V?$basic_string@DU?$char_traits@D@std@@V?$allocator@D@2@@std@@V?$shared_ptr@VRawImageData@@@2@U?$less@V?$basic_string@DU?$char_traits@D@std@@V?$allocator@D@2@@std@@@2@V?$allocator@U?$pair@$$CBV?$basic_string@DU?$char_traits@D@std@@V?$allocator@D@2@@std@@V?$shared_ptr@VRawImageData@@@2@@std@@@2@$0A@@std@@@std@@QAEPAU?$_Tree_node@U?$pair@$$CBV?$basic_string@DU?$char_traits@D@std@@V?$allocator@D@2@@std@@V?$shared_ptr@VRawImageData@@@2@@std@@PAX@2@XZ 004232a0 f i BasicSpacecraft.obj
 0001:000223f0       ?_Buynode0@?$_Tree_comp_alloc@V?$_Tmap_traits@V?$basic_string@DU?$char_traits@D@std@@V?$allocator@D@2@@std@@V?$weak_ptr@USpriteData@@@2@U?$less@V?$basic_string@DU?$char_traits@D@std@@V?$allocator@D@2@@std@@@2@V?$allocator@U?$pair@$$CBV?$basic_string@DU?$char_traits@D@std@@V?$allocator@D@2@@std@@V?$weak_ptr@USpriteData@@@2@@std@@@2@$0A@@std@@@std@@QAEPAU?$_Tree_node@U?$pair@$$CBV?$basic_string@DU?$char_traits@D@std@@V?$allocator@D@2@@std@@V?$weak_ptr@USpriteData@@@2@@std@@PAX@2@XZ 004233f0 f i BasicSpacecraft.obj
 0001:00022540       ?_Buynode0@?$_Tree_comp_alloc@V?$_Tmap_traits@V?$basic_string@DU?$char_traits@D@std@@V?$allocator@D@2@@std@@V?$weak_ptr@VRawImageData@@@2@U?$less@V?$basic_string@DU?$char_traits@D@std@@V?$allocator@D@2@@std@@@2@V?$allocator@U?$pair@$$CBV?$basic_string@DU?$char_traits@D@std@@V?$allocator@D@2@@std@@V?$weak_ptr@VRawImageData@@@2@@std@@@2@$0A@@std@@@std@@QAEPAU?$_Tree_node@U?$pair@$$CBV?$basic_string@DU?$char_traits@D@std@@V?$allocator@D@2@@std@@V?$weak_ptr@VRawImageData@@@2@@std@@PAX@2@XZ 00423540 f i BasicSpacecraft.obj
 0001:00022690       ?_Calculate_growth@?$basic_string@DU?$char_traits@D@std@@V?$allocator@D@2@@std@@QBEII@Z 00423690 f i BasicSpacecraft.obj
 0001:00022730       ?_Clrcont@_Iterator_base12@std@@QAEXXZ 00423730 f i BasicSpacecraft.obj
 0001:00022750       ?_Compare@?$_Tree@V?$_Tmap_traits@V?$basic_string@DU?$char_traits@D@std@@V?$allocator@D@2@@std@@V?$weak_ptr@USpriteData@@@2@U?$less@V?$basic_string@DU?$char_traits@D@std@@V?$allocator@D@2@@std@@@2@V?$allocator@U?$pair@$$CBV?$basic_string@DU?$char_traits@D@std@@V?$allocator@D@2@@std@@V?$weak_ptr@USpriteData@@@2@@std@@@2@$0A@@std@@@std@@IBE_NABV?$basic_string@DU?$char_traits@D@std@@V?$allocator@D@2@@2@0@Z 00423750 f i BasicSpacecraft.obj
 0001:00022780       ?_Compare@?$_Tree@V?$_Tmap_traits@V?$basic_string@DU?$char_traits@D@std@@V?$allocator@D@2@@std@@V?$weak_ptr@VRawImageData@@@2@U?$less@V?$basic_string@DU?$char_traits@D@std@@V?$allocator@D@2@@std@@@2@V?$allocator@U?$pair@$$CBV?$basic_string@DU?$char_traits@D@std@@V?$allocator@D@2@@std@@V?$weak_ptr@VRawImageData@@@2@@std@@@2@$0A@@std@@@std@@IBE_NABV?$basic_string@DU?$char_traits@D@std@@V?$allocator@D@2@@2@0@Z 00423780 f i BasicSpacecraft.obj
 0001:000227b0       ?_Construct@?$_Tree_comp_alloc@V?$_Tmap_traits@V?$basic_string@DU?$char_traits@D@std@@V?$allocator@D@2@@std@@V?$shared_ptr@VRawImageData@@@2@U?$less@V?$basic_string@DU?$char_traits@D@std@@V?$allocator@D@2@@std@@@2@V?$allocator@U?$pair@$$CBV?$basic_string@DU?$char_traits@D@std@@V?$allocator@D@2@@std@@V?$shared_ptr@VRawImageData@@@2@@std@@@2@$0A@@std@@@std@@QAEXXZ 004237b0 f i BasicSpacecraft.obj
 0001:00022870       ?_Construct@?$_Tree_comp_alloc@V?$_Tmap_traits@V?$basic_string@DU?$char_traits@D@std@@V?$allocator@D@2@@std@@V?$weak_ptr@USpriteData@@@2@U?$less@V?$basic_string@DU?$char_traits@D@std@@V?$allocator@D@2@@std@@@2@V?$allocator@U?$pair@$$CBV?$basic_string@DU?$char_traits@D@std@@V?$allocator@D@2@@std@@V?$weak_ptr@USpriteData@@@2@@std@@@2@$0A@@std@@@std@@QAEXXZ 00423870 f i BasicSpacecraft.obj
 0001:00022930       ?_Construct@?$_Tree_comp_alloc@V?$_Tmap_traits@V?$basic_string@DU?$char_traits@D@std@@V?$allocator@D@2@@std@@V?$weak_ptr@VRawImageData@@@2@U?$less@V?$basic_string@DU?$char_traits@D@std@@V?$allocator@D@2@@std@@@2@V?$allocator@U?$pair@$$CBV?$basic_string@DU?$char_traits@D@std@@V?$allocator@D@2@@std@@V?$weak_ptr@VRawImageData@@@2@@std@@@2@$0A@@std@@@std@@QAEXXZ 00423930 f i BasicSpacecraft.obj
 0001:000229f0       ?_Construct_lv_contents@?$basic_string@DU?$char_traits@D@std@@V?$allocator@D@2@@std@@QAEXABV12@@Z 004239f0 f i BasicSpacecraft.obj
 0001:00022b40       ?_Copy_alloc@?$_String_alloc@U?$_String_base_types@DV?$allocator@D@std@@@std@@@std@@QAEXABV?$allocator@D@2@@Z 00423b40 f i BasicSpacecraft.obj
 0001:00022b90       ?_Decref@?$_Ptr_base@USpriteData@@@std@@IAEXXZ 00423b90 f i BasicSpacecraft.obj
 0001:00022bc0       ?_Decref@?$_Ptr_base@VRawImageData@@@std@@IAEXXZ 00423bc0 f i BasicSpacecraft.obj
 0001:00022bf0       ?_Decref@_Ref_count_base@std@@QAEXXZ 00423bf0 f i BasicSpacecraft.obj
 0001:00022c30       ?_Decwref@?$_Ptr_base@USpriteData@@@std@@IAEXXZ 00423c30 f i BasicSpacecraft.obj
 0001:00022c60       ?_Decwref@?$_Ptr_base@VRawImageData@@@std@@IAEXXZ 00423c60 f i BasicSpacecraft.obj
 0001:00022c90       ?_Decwref@_Ref_count_base@std@@QAEXXZ 00423c90 f i BasicSpacecraft.obj
 0001:00022cd0       ?_Delete_this@?$_Ref_count@USpriteData@@@std@@EAEXXZ 00423cd0 f i BasicSpacecraft.obj
 0001:00022d20       ?_Delete_this@?$_Ref_count@VRawImageData@@@std@@EAEXXZ 00423d20 f i BasicSpacecraft.obj
 0001:00022d70       ?_Destroy@?$_Ref_count@USpriteData@@@std@@EAEXXZ 00423d70 f i BasicSpacecraft.obj
 0001:00022dc0       ?_Destroy@?$_Ref_count@VRawImageData@@@std@@EAEXXZ 00423dc0 f i BasicSpacecraft.obj
 0001:00022e10       ?_Destroy_if_node@?$_Tree@V?$_Tmap_traits@V?$basic_string@DU?$char_traits@D@std@@V?$allocator@D@2@@std@@V?$shared_ptr@VRawImageData@@@2@U?$less@V?$basic_string@DU?$char_traits@D@std@@V?$allocator@D@2@@std@@@2@V?$allocator@U?$pair@$$CBV?$basic_string@DU?$char_traits@D@std@@V?$allocator@D@2@@std@@V?$shared_ptr@VRawImageData@@@2@@std@@@2@$0A@@std@@@std@@IAEXPAU?$_Tree_node@U?$pair@$$CBV?$basic_string@DU?$char_traits@D@std@@V?$allocator@D@2@@std@@V?$shared_ptr@VRawImageData@@@2@@std@@PAX@2@@Z 00423e10 f i BasicSpacecraft.obj
 0001:00022e70       ?_Destroy_if_node@?$_Tree@V?$_Tmap_traits@V?$basic_string@DU?$char_traits@D@std@@V?$allocator@D@2@@std@@V?$weak_ptr@USpriteData@@@2@U?$less@V?$basic_string@DU?$char_traits@D@std@@V?$allocator@D@2@@std@@@2@V?$allocator@U?$pair@$$CBV?$basic_string@DU?$char_traits@D@std@@V?$allocator@D@2@@std@@V?$weak_ptr@USpriteData@@@2@@std@@@2@$0A@@std@@@std@@IAEXPAU?$_Tree_node@U?$pair@$$CBV?$basic_string@DU?$char_traits@D@std@@V?$allocator@D@2@@std@@V?$weak_ptr@USpriteData@@@2@@std@@PAX@2@@Z 00423e70 f i BasicSpacecraft.obj
 0001:00022ed0       ?_Destroy_if_node@?$_Tree@V?$_Tmap_traits@V?$basic_string@DU?$char_traits@D@std@@V?$allocator@D@2@@std@@V?$weak_ptr@VRawImageData@@@2@U?$less@V?$basic_string@DU?$char_traits@D@std@@V?$allocator@D@2@@std@@@2@V?$allocator@U?$pair@$$CBV?$basic_string@DU?$char_traits@D@std@@V?$allocator@D@2@@std@@V?$weak_ptr@VRawImageData@@@2@@std@@@2@$0A@@std@@@std@@IAEXPAU?$_Tree_node@U?$pair@$$CBV?$basic_string@DU?$char_traits@D@std@@V?$allocator@D@2@@std@@V?$weak_ptr@VRawImageData@@@2@@std@@PAX@2@@Z 00423ed0 f i BasicSpacecraft.obj
 0001:00022f30       ?_Erase@?$_Tree@V?$_Tmap_traits@V?$basic_string@DU?$char_traits@D@std@@V?$allocator@D@2@@std@@V?$shared_ptr@VRawImageData@@@2@U?$less@V?$basic_string@DU?$char_traits@D@std@@V?$allocator@D@2@@std@@@2@V?$allocator@U?$pair@$$CBV?$basic_string@DU?$char_traits@D@std@@V?$allocator@D@2@@std@@V?$shared_ptr@VRawImageData@@@2@@std@@@2@$0A@@std@@@std@@IAEXPAU?$_Tree_node@U?$pair@$$CBV?$basic_string@DU?$char_traits@D@std@@V?$allocator@D@2@@std@@V?$shared_ptr@VRawImageData@@@2@@std@@PAX@2@@Z 00423f30 f i BasicSpacecraft.obj
 0001:00022fd0       ?_Erase@?$_Tree@V?$_Tmap_traits@V?$basic_string@DU?$char_traits@D@std@@V?$allocator@D@2@@std@@V?$weak_ptr@USpriteData@@@2@U?$less@V?$basic_string@DU?$char_traits@D@std@@V?$allocator@D@2@@std@@@2@V?$allocator@U?$pair@$$CBV?$basic_string@DU?$char_traits@D@std@@V?$allocator@D@2@@std@@V?$weak_ptr@USpriteData@@@2@@std@@@2@$0A@@std@@@std@@IAEXPAU?$_Tree_node@U?$pair@$$CBV?$basic_string@DU?$char_traits@D@std@@V?$allocator@D@2@@std@@V?$weak_ptr@USpriteData@@@2@@std@@PAX@2@@Z 00423fd0 f i BasicSpacecraft.obj
 0001:00023070       ?_Erase@?$_Tree@V?$_Tmap_traits@V?$basic_string@DU?$char_traits@D@std@@V?$allocator@D@2@@std@@V?$weak_ptr@VRawImageData@@@2@U?$less@V?$basic_string@DU?$char_traits@D@std@@V?$allocator@D@2@@std@@@2@V?$allocator@U?$pair@$$CBV?$basic_string@DU?$char_traits@D@std@@V?$allocator@D@2@@std@@V?$weak_ptr@VRawImageData@@@2@@std@@@2@$0A@@std@@@std@@IAEXPAU?$_Tree_node@U?$pair@$$CBV?$basic_string@DU?$char_traits@D@std@@V?$allocator@D@2@@std@@V?$weak_ptr@VRawImageData@@@2@@std@@PAX@2@@Z 00424070 f i BasicSpacecraft.obj
 0001:00023110       ?_Extract@?$_Tree_val@U?$_Tree_simple_types@U?$pair@$$CBV?$basic_string@DU?$char_traits@D@std@@V?$allocator@D@2@@std@@V?$shared_ptr@VRawImageData@@@2@@std@@@std@@@std@@QAEPAU?$_Tree_node@U?$pair@$$CBV?$basic_string@DU?$char_traits@D@std@@V?$allocator@D@2@@std@@V?$shared_ptr@VRawImageData@@@2@@std@@PAX@2@V?$_Tree_const_iterator@V?$_Tree_val@U?$_Tree_simple_types@U?$pair@$$CBV?$basic_string@DU?$char_traits@D@std@@V?$allocator@D@2@@std@@V?$shared_ptr@VRawImageData@@@2@@std@@@std@@@std@@@2@@Z 00424110 f i BasicSpacecraft.obj
 0001:00023730       ?_Extract@?$_Tree_val@U?$_Tree_simple_types@U?$pair@$$CBV?$basic_string@DU?$char_traits@D@std@@V?$allocator@D@2@@std@@V?$weak_ptr@USpriteData@@@2@@std@@@std@@@std@@QAEPAU?$_Tree_node@U?$pair@$$CBV?$basic_string@DU?$char_traits@D@std@@V?$allocator@D@2@@std@@V?$weak_ptr@USpriteData@@@2@@std@@PAX@2@V?$_Tree_const_iterator@V?$_Tree_val@U?$_Tree_simple_types@U?$pair@$$CBV?$basic_string@DU?$char_traits@D@std@@V?$allocator@D@2@@std@@V?$weak_ptr@USpriteData@@@2@@std@@@std@@@std@@@2@@Z 00424730 f i BasicSpacecraft.obj
 0001:00023d50       ?_Extract@?$_Tree_val@U?$_Tree_simple_types@U?$pair@$$CBV?$basic_string@DU?$char_traits@D@std@@V?$allocator@D@2@@std@@V?$weak_ptr@VRawImageData@@@2@@std@@@std@@@std@@QAEPAU?$_Tree_node@U?$pair@$$CBV?$basic_string@DU?$char_traits@D@std@@V?$allocator@D@2@@std@@V?$weak_ptr@VRawImageData@@@2@@std@@PAX@2@V?$_Tree_const_iterator@V?$_Tree_val@U?$_Tree_simple_types@U?$pair@$$CBV?$basic_string@DU?$char_traits@D@std@@V?$allocator@D@2@@std@@V?$weak_ptr@VRawImageData@@@2@@std@@@std@@@std@@@2@@Z 00424d50 f i BasicSpacecraft.obj
 0001:00024370       ?_Free_proxy@?$_String_alloc@U?$_String_base_types@DV?$allocator@D@std@@@std@@@std@@QAEXXZ 00425370 f i BasicSpacecraft.obj
 0001:000243f0       ?_Free_proxy@?$_Tree_comp_alloc@V?$_Tmap_traits@V?$basic_string@DU?$char_traits@D@std@@V?$allocator@D@2@@std@@V?$shared_ptr@VRawImageData@@@2@U?$less@V?$basic_string@DU?$char_traits@D@std@@V?$allocator@D@2@@std@@@2@V?$allocator@U?$pair@$$CBV?$basic_string@DU?$char_traits@D@std@@V?$allocator@D@2@@std@@V?$shared_ptr@VRawImageData@@@2@@std@@@2@$0A@@std@@@std@@QAEXXZ 004253f0 f i BasicSpacecraft.obj
 0001:00024470       ?_Free_proxy@?$_Tree_comp_alloc@V?$_Tmap_traits@V?$basic_string@DU?$char_traits@D@std@@V?$allocator@D@2@@std@@V?$weak_ptr@USpriteData@@@2@U?$less@V?$basic_string@DU?$char_traits@D@std@@V?$allocator@D@2@@std@@@2@V?$allocator@U?$pair@$$CBV?$basic_string@DU?$char_traits@D@std@@V?$allocator@D@2@@std@@V?$weak_ptr@USpriteData@@@2@@std@@@2@$0A@@std@@@std@@QAEXXZ 00425470 f i BasicSpacecraft.obj
 0001:000244f0       ?_Free_proxy@?$_Tree_comp_alloc@V?$_Tmap_traits@V?$basic_string@DU?$char_traits@D@std@@V?$allocator@D@2@@std@@V?$weak_ptr@VRawImageData@@@2@U?$less@V?$basic_string@DU?$char_traits@D@std@@V?$allocator@D@2@@std@@@2@V?$allocator@U?$pair@$$CBV?$basic_string@DU?$char_traits@D@std@@V?$allocator@D@2@@std@@V?$weak_ptr@VRawImageData@@@2@@std@@@2@$0A@@std@@@std@@QAEXXZ 004254f0 f i BasicSpacecraft.obj
 0001:00024570       ?_Freeheadnode@?$_Tree_comp_alloc@V?$_Tmap_traits@V?$basic_string@DU?$char_traits@D@std@@V?$allocator@D@2@@std@@V?$shared_ptr@VRawImageData@@@2@U?$less@V?$basic_string@DU?$char_traits@D@std@@V?$allocator@D@2@@std@@@2@V?$allocator@U?$pair@$$CBV?$basic_string@DU?$char_traits@D@std@@V?$allocator@D@2@@std@@V?$shared_ptr@VRawImageData@@@2@@std@@@2@$0A@@std@@@std@@QAEXPAU?$_Tree_node@U?$pair@$$CBV?$basic_string@DU?$char_traits@D@std@@V?$allocator@D@2@@std@@V?$shared_ptr@VRawImageData@@@2@@std@@PAX@2@@Z 00425570 f i BasicSpacecraft.obj
 0001:000245a0       ?_Freeheadnode@?$_Tree_comp_alloc@V?$_Tmap_traits@V?$basic_string@DU?$char_traits@D@std@@V?$allocator@D@2@@std@@V?$weak_ptr@USpriteData@@@2@U?$less@V?$basic_string@DU?$char_traits@D@std@@V?$allocator@D@2@@std@@@2@V?$allocator@U?$pair@$$CBV?$basic_string@DU?$char_traits@D@std@@V?$allocator@D@2@@std@@V?$weak_ptr@USpriteData@@@2@@std@@@2@$0A@@std@@@std@@QAEXPAU?$_Tree_node@U?$pair@$$CBV?$basic_string@DU?$char_traits@D@std@@V?$allocator@D@2@@std@@V?$weak_ptr@USpriteData@@@2@@std@@PAX@2@@Z 004255a0 f i BasicSpacecraft.obj
 0001:000245d0       ?_Freeheadnode@?$_Tree_comp_alloc@V?$_Tmap_traits@V?$basic_string@DU?$char_traits@D@std@@V?$allocator@D@2@@std@@V?$weak_ptr@VRawImageData@@@2@U?$less@V?$basic_string@DU?$char_traits@D@std@@V?$allocator@D@2@@std@@@2@V?$allocator@U?$pair@$$CBV?$basic_string@DU?$char_traits@D@std@@V?$allocator@D@2@@std@@V?$weak_ptr@VRawImageData@@@2@@std@@@2@$0A@@std@@@std@@QAEXPAU?$_Tree_node@U?$pair@$$CBV?$basic_string@DU?$char_traits@D@std@@V?$allocator@D@2@@std@@V?$weak_ptr@VRawImageData@@@2@@std@@PAX@2@@Z 004255d0 f i BasicSpacecraft.obj
 0001:00024600       ?_Freenode0@?$_Tree_comp_alloc@V?$_Tmap_traits@V?$basic_string@DU?$char_traits@D@std@@V?$allocator@D@2@@std@@V?$shared_ptr@VRawImageData@@@2@U?$less@V?$basic_string@DU?$char_traits@D@std@@V?$allocator@D@2@@std@@@2@V?$allocator@U?$pair@$$CBV?$basic_string@DU?$char_traits@D@std@@V?$allocator@D@2@@std@@V?$shared_ptr@VRawImageData@@@2@@std@@@2@$0A@@std@@@std@@QAEXPAU?$_Tree_node@U?$pair@$$CBV?$basic_string@DU?$char_traits@D@std@@V?$allocator@D@2@@std@@V?$shared_ptr@VRawImageData@@@2@@std@@PAX@2@@Z 00425600 f i BasicSpacecraft.obj
 0001:00024630       ?_Freenode0@?$_Tree_comp_alloc@V?$_Tmap_traits@V?$basic_string@DU?$char_traits@D@std@@V?$allocator@D@2@@std@@V?$weak_ptr@USpriteData@@@2@U?$less@V?$basic_string@DU?$char_traits@D@std@@V?$allocator@D@2@@std@@@2@V?$allocator@U?$pair@$$CBV?$basic_string@DU?$char_traits@D@std@@V?$allocator@D@2@@std@@V?$weak_ptr@USpriteData@@@2@@std@@@2@$0A@@std@@@std@@QAEXPAU?$_Tree_node@U?$pair@$$CBV?$basic_string@DU?$char_traits@D@std@@V?$allocator@D@2@@std@@V?$weak_ptr@USpriteData@@@2@@std@@PAX@2@@Z 00425630 f i BasicSpacecraft.obj
 0001:00024660       ?_Freenode0@?$_Tree_comp_alloc@V?$_Tmap_traits@V?$basic_string@DU?$char_traits@D@std@@V?$allocator@D@2@@std@@V?$weak_ptr@VRawImageData@@@2@U?$less@V?$basic_string@DU?$char_traits@D@std@@V?$allocator@D@2@@std@@@2@V?$allocator@U?$pair@$$CBV?$basic_string@DU?$char_traits@D@std@@V?$allocator@D@2@@std@@V?$weak_ptr@VRawImageData@@@2@@std@@@2@$0A@@std@@@std@@QAEXPAU?$_Tree_node@U?$pair@$$CBV?$basic_string@DU?$char_traits@D@std@@V?$allocator@D@2@@std@@V?$weak_ptr@VRawImageData@@@2@@std@@PAX@2@@Z 00425660 f i BasicSpacecraft.obj
 0001:00024690       ?_Get_atomic_count@std@@YAKABK@Z 00425690 f i BasicSpacecraft.obj
 0001:000246a0       ?_Get_data@?$_String_alloc@U?$_String_base_types@DV?$allocator@D@std@@@std@@@std@@QAEAAV?$_String_val@U?$_Simple_types@D@std@@@2@XZ 004256a0 f i BasicSpacecraft.obj
 0001:000246c0       ?_Get_data@?$_String_alloc@U?$_String_base_types@DV?$allocator@D@std@@@std@@@std@@QBEABV?$_String_val@U?$_Simple_types@D@std@@@2@XZ 004256c0 f i BasicSpacecraft.obj
 0001:000246e0       ?_Get_data@?$_Tree_comp_alloc@V?$_Tmap_traits@V?$basic_string@DU?$char_traits@D@std@@V?$allocator@D@2@@std@@V?$shared_ptr@VRawImageData@@@2@U?$less@V?$basic_string@DU?$char_traits@D@std@@V?$allocator@D@2@@std@@@2@V?$allocator@U?$pair@$$CBV?$basic_string@DU?$char_traits@D@std@@V?$allocator@D@2@@std@@V?$shared_ptr@VRawImageData@@@2@@std@@@2@$0A@@std@@@std@@QAEAAV?$_Tree_val@U?$_Tree_simple_types@U?$pair@$$CBV?$basic_string@DU?$char_traits@D@std@@V?$allocator@D@2@@std@@V?$shared_ptr@VRawImageData@@@2@@std@@@std@@@2@XZ 004256e0 f i BasicSpacecraft.obj
 0001:00024700       ?_Get_data@?$_Tree_comp_alloc@V?$_Tmap_traits@V?$basic_string@DU?$char_traits@D@std@@V?$allocator@D@2@@std@@V?$shared_ptr@VRawImageData@@@2@U?$less@V?$basic_string@DU?$char_traits@D@std@@V?$allocator@D@2@@std@@@2@V?$allocator@U?$pair@$$CBV?$basic_string@DU?$char_traits@D@std@@V?$allocator@D@2@@std@@V?$shared_ptr@VRawImageData@@@2@@std@@@2@$0A@@std@@@std@@QBEABV?$_Tree_val@U?$_Tree_simple_types@U?$pair@$$CBV?$basic_string@DU?$char_traits@D@std@@V?$allocator@D@2@@std@@V?$shared_ptr@VRawImageData@@@2@@std@@@std@@@2@XZ 00425700 f i BasicSpacecraft.obj
 0001:00024720       ?_Get_data@?$_Tree_comp_alloc@V?$_Tmap_traits@V?$basic_string@DU?$char_traits@D@std@@V?$allocator@D@2@@std@@V?$weak_ptr@USpriteData@@@2@U?$less@V?$basic_string@DU?$char_traits@D@std@@V?$allocator@D@2@@std@@@2@V?$allocator@U?$pair@$$CBV?$basic_string@DU?$char_traits@D@std@@V?$allocator@D@2@@std@@V?$weak_ptr@USpriteData@@@2@@std@@@2@$0A@@std@@@std@@QAEAAV?$_Tree_val@U?$_Tree_simple_types@U?$pair@$$CBV?$basic_string@DU?$char_traits@D@std@@V?$allocator@D@2@@std@@V?$weak_ptr@USpriteData@@@2@@std@@@std@@@2@XZ 00425720 f i BasicSpacecraft.obj
 0001:00024740       ?_Get_data@?$_Tree_comp_alloc@V?$_Tmap_traits@V?$basic_string@DU?$char_traits@D@std@@V?$allocator@D@2@@std@@V?$weak_ptr@USpriteData@@@2@U?$less@V?$basic_string@DU?$char_traits@D@std@@V?$allocator@D@2@@std@@@2@V?$allocator@U?$pair@$$CBV?$basic_string@DU?$char_traits@D@std@@V?$allocator@D@2@@std@@V?$weak_ptr@USpriteData@@@2@@std@@@2@$0A@@std@@@std@@QBEABV?$_Tree_val@U?$_Tree_simple_types@U?$pair@$$CBV?$basic_string@DU?$char_traits@D@std@@V?$allocator@D@2@@std@@V?$weak_ptr@USpriteData@@@2@@std@@@std@@@2@XZ 00425740 f i BasicSpacecraft.obj
 0001:00024760       ?_Get_data@?$_Tree_comp_alloc@V?$_Tmap_traits@V?$basic_string@DU?$char_traits@D@std@@V?$allocator@D@2@@std@@V?$weak_ptr@VRawImageData@@@2@U?$less@V?$basic_string@DU?$char_traits@D@std@@V?$allocator@D@2@@std@@@2@V?$allocator@U?$pair@$$CBV?$basic_string@DU?$char_traits@D@std@@V?$allocator@D@2@@std@@V?$weak_ptr@VRawImageData@@@2@@std@@@2@$0A@@std@@@std@@QAEAAV?$_Tree_val@U?$_Tree_simple_types@U?$pair@$$CBV?$basic_string@DU?$char_traits@D@std@@V?$allocator@D@2@@std@@V?$weak_ptr@VRawImageData@@@2@@std@@@std@@@2@XZ 00425760 f i BasicSpacecraft.obj
 0001:00024780       ?_Get_data@?$_Tree_comp_alloc@V?$_Tmap_traits@V?$basic_string@DU?$char_traits@D@std@@V?$allocator@D@2@@std@@V?$weak_ptr@VRawImageData@@@2@U?$less@V?$basic_string@DU?$char_traits@D@std@@V?$allocator@D@2@@std@@@2@V?$allocator@U?$pair@$$CBV?$basic_string@DU?$char_traits@D@std@@V?$allocator@D@2@@std@@V?$weak_ptr@VRawImageData@@@2@@std@@@2@$0A@@std@@@std@@QBEABV?$_Tree_val@U?$_Tree_simple_types@U?$pair@$$CBV?$basic_string@DU?$char_traits@D@std@@V?$allocator@D@2@@std@@V?$weak_ptr@VRawImageData@@@2@@std@@@std@@@2@XZ 00425780 f i BasicSpacecraft.obj
 0001:000247a0       ?_Get_deleter@_Ref_count_base@std@@UBEPAXABVtype_info@@@Z 004257a0 f i BasicSpacecraft.obj
 0001:000247c0       ?_Get_first@?$_Compressed_pair@U?$less@V?$basic_string@DU?$char_traits@D@std@@V?$allocator@D@2@@std@@@std@@V?$_Compressed_pair@V?$allocator@U?$_Tree_node@U?$pair@$$CBV?$basic_string@DU?$char_traits@D@std@@V?$allocator@D@2@@std@@V?$shared_ptr@VRawImageData@@@2@@std@@PAX@std@@@std@@V?$_Tree_val@U?$_Tree_simple_types@U?$pair@$$CBV?$basic_string@DU?$char_traits@D@std@@V?$allocator@D@2@@std@@V?$shared_ptr@VRawImageData@@@2@@std@@@std@@@2@$00@2@$00@std@@QAEAAU?$less@V?$basic_string@DU?$char_traits@D@std@@V?$allocator@D@2@@std@@@2@XZ 004257c0 f i BasicSpacecraft.obj
 0001:000247e0       ?_Get_first@?$_Compressed_pair@U?$less@V?$basic_string@DU?$char_traits@D@std@@V?$allocator@D@2@@std@@@std@@V?$_Compressed_pair@V?$allocator@U?$_Tree_node@U?$pair@$$CBV?$basic_string@DU?$char_traits@D@std@@V?$allocator@D@2@@std@@V?$weak_ptr@USpriteData@@@2@@std@@PAX@std@@@std@@V?$_Tree_val@U?$_Tree_simple_types@U?$pair@$$CBV?$basic_string@DU?$char_traits@D@std@@V?$allocator@D@2@@std@@V?$weak_ptr@USpriteData@@@2@@std@@@std@@@2@$00@2@$00@std@@QAEAAU?$less@V?$basic_string@DU?$char_traits@D@std@@V?$allocator@D@2@@std@@@2@XZ 004257e0 f i BasicSpacecraft.obj
 0001:00024800       ?_Get_first@?$_Compressed_pair@U?$less@V?$basic_string@DU?$char_traits@D@std@@V?$allocator@D@2@@std@@@std@@V?$_Compressed_pair@V?$allocator@U?$_Tree_node@U?$pair@$$CBV?$basic_string@DU?$char_traits@D@std@@V?$allocator@D@2@@std@@V?$weak_ptr@USpriteData@@@2@@std@@PAX@std@@@std@@V?$_Tree_val@U?$_Tree_simple_types@U?$pair@$$CBV?$basic_string@DU?$char_traits@D@std@@V?$allocator@D@2@@std@@V?$weak_ptr@USpriteData@@@2@@std@@@std@@@2@$00@2@$00@std@@QBEABU?$less@V?$basic_string@DU?$char_traits@D@std@@V?$allocator@D@2@@std@@@2@XZ 00425800 f i BasicSpacecraft.obj
 0001:00024820       ?_Get_first@?$_Compressed_pair@U?$less@V?$basic_string@DU?$char_traits@D@std@@V?$allocator@D@2@@std@@@std@@V?$_Compressed_pair@V?$allocator@U?$_Tree_node@U?$pair@$$CBV?$basic_string@DU?$char_traits@D@std@@V?$allocator@D@2@@std@@V?$weak_ptr@VRawImageData@@@2@@std@@PAX@std@@@std@@V?$_Tree_val@U?$_Tree_simple_types@U?$pair@$$CBV?$basic_string@DU?$char_traits@D@std@@V?$allocator@D@2@@std@@V?$weak_ptr@VRawImageData@@@2@@std@@@std@@@2@$00@2@$00@std@@QAEAAU?$less@V?$basic_string@DU?$char_traits@D@std@@V?$allocator@D@2@@std@@@2@XZ 00425820 f i BasicSpacecraft.obj
 0001:00024840       ?_Get_first@?$_Compressed_pair@U?$less@V?$basic_string@DU?$char_traits@D@std@@V?$allocator@D@2@@std@@@std@@V?$_Compressed_pair@V?$allocator@U?$_Tree_node@U?$pair@$$CBV?$basic_string@DU?$char_traits@D@std@@V?$allocator@D@2@@std@@V?$weak_ptr@VRawImageData@@@2@@std@@PAX@std@@@std@@V?$_Tree_val@U?$_Tree_simple_types@U?$pair@$$CBV?$basic_string@DU?$char_traits@D@std@@V?$allocator@D@2@@std@@V?$weak_ptr@VRawImageData@@@2@@std@@@std@@@2@$00@2@$00@std@@QBEABU?$less@V?$basic_string@DU?$char_traits@D@std@@V?$allocator@D@2@@std@@@2@XZ 00425840 f i BasicSpacecraft.obj
 0001:00024860       ?_Get_first@?$_Compressed_pair@V?$allocator@D@std@@V?$_String_val@U?$_Simple_types@D@std@@@2@$00@std@@QAEAAV?$allocator@D@2@XZ 00425860 f i BasicSpacecraft.obj
 0001:00024880       ?_Get_first@?$_Compressed_pair@V?$allocator@D@std@@V?$_String_val@U?$_Simple_types@D@std@@@2@$00@std@@QBEABV?$allocator@D@2@XZ 00425880 f i BasicSpacecraft.obj
 0001:000248a0       ?_Get_first@?$_Compressed_pair@V?$allocator@U?$_Tree_node@U?$pair@$$CBV?$basic_string@DU?$char_traits@D@std@@V?$allocator@D@2@@std@@V?$shared_ptr@VRawImageData@@@2@@std@@PAX@std@@@std@@V?$_Tree_val@U?$_Tree_simple_types@U?$pair@$$CBV?$basic_string@DU?$char_traits@D@std@@V?$allocator@D@2@@std@@V?$shared_ptr@VRawImageData@@@2@@std@@@std@@@2@$00@std@@QAEAAV?$allocator@U?$_Tree_node@U?$pair@$$CBV?$basic_string@DU?$char_traits@D@std@@V?$allocator@D@2@@std@@V?$shared_ptr@VRawImageData@@@2@@std@@PAX@std@@@2@XZ 004258a0 f i BasicSpacecraft.obj
 0001:000248c0       ?_Get_first@?$_Compressed_pair@V?$allocator@U?$_Tree_node@U?$pair@$$CBV?$basic_string@DU?$char_traits@D@std@@V?$allocator@D@2@@std@@V?$shared_ptr@VRawImageData@@@2@@std@@PAX@std@@@std@@V?$_Tree_val@U?$_Tree_simple_types@U?$pair@$$CBV?$basic_string@DU?$char_traits@D@std@@V?$allocator@D@2@@std@@V?$shared_ptr@VRawImageData@@@2@@std@@@std@@@2@$00@std@@QBEABV?$allocator@U?$_Tree_node@U?$pair@$$CBV?$basic_string@DU?$char_traits@D@std@@V?$allocator@D@2@@std@@V?$shared_ptr@VRawImageData@@@2@@std@@PAX@std@@@2@XZ 004258c0 f i BasicSpacecraft.obj
 0001:000248e0       ?_Get_first@?$_Compressed_pair@V?$allocator@U?$_Tree_node@U?$pair@$$CBV?$basic_string@DU?$char_traits@D@std@@V?$allocator@D@2@@std@@V?$weak_ptr@USpriteData@@@2@@std@@PAX@std@@@std@@V?$_Tree_val@U?$_Tree_simple_types@U?$pair@$$CBV?$basic_string@DU?$char_traits@D@std@@V?$allocator@D@2@@std@@V?$weak_ptr@USpriteData@@@2@@std@@@std@@@2@$00@std@@QAEAAV?$allocator@U?$_Tree_node@U?$pair@$$CBV?$basic_string@DU?$char_traits@D@std@@V?$allocator@D@2@@std@@V?$weak_ptr@USpriteData@@@2@@std@@PAX@std@@@2@XZ 004258e0 f i BasicSpacecraft.obj
 0001:00024900       ?_Get_first@?$_Compressed_pair@V?$allocator@U?$_Tree_node@U?$pair@$$CBV?$basic_string@DU?$char_traits@D@std@@V?$allocator@D@2@@std@@V?$weak_ptr@USpriteData@@@2@@std@@PAX@std@@@std@@V?$_Tree_val@U?$_Tree_simple_types@U?$pair@$$CBV?$basic_string@DU?$char_traits@D@std@@V?$allocator@D@2@@std@@V?$weak_ptr@USpriteData@@@2@@std@@@std@@@2@$00@std@@QBEABV?$allocator@U?$_Tree_node@U?$pair@$$CBV?$basic_string@DU?$char_traits@D@std@@V?$allocator@D@2@@std@@V?$weak_ptr@USpriteData@@@2@@std@@PAX@std@@@2@XZ 00425900 f i BasicSpacecraft.obj
 0001:00024920       ?_Get_first@?$_Compressed_pair@V?$allocator@U?$_Tree_node@U?$pair@$$CBV?$basic_string@DU?$char_traits@D@std@@V?$allocator@D@2@@std@@V?$weak_ptr@VRawImageData@@@2@@std@@PAX@std@@@std@@V?$_Tree_val@U?$_Tree_simple_types@U?$pair@$$CBV?$basic_string@DU?$char_traits@D@std@@V?$allocator@D@2@@std@@V?$weak_ptr@VRawImageData@@@2@@std@@@std@@@2@$00@std@@QAEAAV?$allocator@U?$_Tree_node@U?$pair@$$CBV?$basic_string@DU?$char_traits@D@std@@V?$allocator@D@2@@std@@V?$weak_ptr@VRawImageData@@@2@@std@@PAX@std@@@2@XZ 00425920 f i BasicSpacecraft.obj
 0001:00024940       ?_Get_first@?$_Compressed_pair@V?$allocator@U?$_Tree_node@U?$pair@$$CBV?$basic_string@DU?$char_traits@D@std@@V?$allocator@D@2@@std@@V?$weak_ptr@VRawImageData@@@2@@std@@PAX@std@@@std@@V?$_Tree_val@U?$_Tree_simple_types@U?$pair@$$CBV?$basic_string@DU?$char_traits@D@std@@V?$allocator@D@2@@std@@V?$weak_ptr@VRawImageData@@@2@@std@@@std@@@2@$00@std@@QBEABV?$allocator@U?$_Tree_node@U?$pair@$$CBV?$basic_string@DU?$char_traits@D@std@@V?$allocator@D@2@@std@@V?$weak_ptr@VRawImageData@@@2@@std@@PAX@std@@@2@XZ 00425940 f i BasicSpacecraft.obj
 0001:00024960       ?_Get_second@?$_Compressed_pair@U?$less@V?$basic_string@DU?$char_traits@D@std@@V?$allocator@D@2@@std@@@std@@V?$_Compressed_pair@V?$allocator@U?$_Tree_node@U?$pair@$$CBV?$basic_string@DU?$char_traits@D@std@@V?$allocator@D@2@@std@@V?$shared_ptr@VRawImageData@@@2@@std@@PAX@std@@@std@@V?$_Tree_val@U?$_Tree_simple_types@U?$pair@$$CBV?$basic_string@DU?$char_traits@D@std@@V?$allocator@D@2@@std@@V?$shared_ptr@VRawImageData@@@2@@std@@@std@@@2@$00@2@$00@std@@QAEAAV?$_Compressed_pair@V?$allocator@U?$_Tree_node@U?$pair@$$CBV?$basic_string@DU?$char_traits@D@std@@V?$allocator@D@2@@std@@V?$shared_ptr@VRawImageData@@@2@@std@@PAX@std@@@std@@V?$_Tree_val@U?$_Tree_simple_types@U?$pair@$$CBV?$basic_string@DU?$char_traits@D@std@@V?$allocator@D@2@@std@@V?$shared_ptr@VRawImageData@@@2@@std@@@std@@@2@$00@2@XZ 00425960 f i BasicSpacecraft.obj
 0001:00024980       ?_Get_second@?$_Compressed_pair@U?$less@V?$basic_string@DU?$char_traits@D@std@@V?$allocator@D@2@@std@@@std@@V?$_Compressed_pair@V?$allocator@U?$_Tree_node@U?$pair@$$CBV?$basic_string@DU?$char_traits@D@std@@V?$allocator@D@2@@std@@V?$shared_ptr@VRawImageData@@@2@@std@@PAX@std@@@std@@V?$_Tree_val@U?$_Tree_simple_types@U?$pair@$$CBV?$basic_string@DU?$char_traits@D@std@@V?$allocator@D@2@@std@@V?$shared_ptr@VRawImageData@@@2@@std@@@std@@@2@$00@2@$00@std@@QBEABV?$_Compressed_pair@V?$allocator@U?$_Tree_node@U?$pair@$$CBV?$basic_string@DU?$char_traits@D@std@@V?$allocator@D@2@@std@@V?$shared_ptr@VRawImageData@@@2@@std@@PAX@std@@@std@@V?$_Tree_val@U?$_Tree_simple_types@U?$pair@$$CBV?$basic_string@DU?$char_traits@D@std@@V?$allocator@D@2@@std@@V?$shared_ptr@VRawImageData@@@2@@std@@@std@@@2@$00@2@XZ 00425980 f i BasicSpacecraft.obj
 0001:000249a0       ?_Get_second@?$_Compressed_pair@U?$less@V?$basic_string@DU?$char_traits@D@std@@V?$allocator@D@2@@std@@@std@@V?$_Compressed_pair@V?$allocator@U?$_Tree_node@U?$pair@$$CBV?$basic_string@DU?$char_traits@D@std@@V?$allocator@D@2@@std@@V?$weak_ptr@USpriteData@@@2@@std@@PAX@std@@@std@@V?$_Tree_val@U?$_Tree_simple_types@U?$pair@$$CBV?$basic_string@DU?$char_traits@D@std@@V?$allocator@D@2@@std@@V?$weak_ptr@USpriteData@@@2@@std@@@std@@@2@$00@2@$00@std@@QAEAAV?$_Compressed_pair@V?$allocator@U?$_Tree_node@U?$pair@$$CBV?$basic_string@DU?$char_traits@D@std@@V?$allocator@D@2@@std@@V?$weak_ptr@USpriteData@@@2@@std@@PAX@std@@@std@@V?$_Tree_val@U?$_Tree_simple_types@U?$pair@$$CBV?$basic_string@DU?$char_traits@D@std@@V?$allocator@D@2@@std@@V?$weak_ptr@USpriteData@@@2@@std@@@std@@@2@$00@2@XZ 004259a0 f i BasicSpacecraft.obj
 0001:000249c0       ?_Get_second@?$_Compressed_pair@U?$less@V?$basic_string@DU?$char_traits@D@std@@V?$allocator@D@2@@std@@@std@@V?$_Compressed_pair@V?$allocator@U?$_Tree_node@U?$pair@$$CBV?$basic_string@DU?$char_traits@D@std@@V?$allocator@D@2@@std@@V?$weak_ptr@USpriteData@@@2@@std@@PAX@std@@@std@@V?$_Tree_val@U?$_Tree_simple_types@U?$pair@$$CBV?$basic_string@DU?$char_traits@D@std@@V?$allocator@D@2@@std@@V?$weak_ptr@USpriteData@@@2@@std@@@std@@@2@$00@2@$00@std@@QBEABV?$_Compressed_pair@V?$allocator@U?$_Tree_node@U?$pair@$$CBV?$basic_string@DU?$char_traits@D@std@@V?$allocator@D@2@@std@@V?$weak_ptr@USpriteData@@@2@@std@@PAX@std@@@std@@V?$_Tree_val@U?$_Tree_simple_types@U?$pair@$$CBV?$basic_string@DU?$char_traits@D@std@@V?$allocator@D@2@@std@@V?$weak_ptr@USpriteData@@@2@@std@@@std@@@2@$00@2@XZ 004259c0 f i BasicSpacecraft.obj
 0001:000249e0       ?_Get_second@?$_Compressed_pair@U?$less@V?$basic_string@DU?$char_traits@D@std@@V?$allocator@D@2@@std@@@std@@V?$_Compressed_pair@V?$allocator@U?$_Tree_node@U?$pair@$$CBV?$basic_string@DU?$char_traits@D@std@@V?$allocator@D@2@@std@@V?$weak_ptr@VRawImageData@@@2@@std@@PAX@std@@@std@@V?$_Tree_val@U?$_Tree_simple_types@U?$pair@$$CBV?$basic_string@DU?$char_traits@D@std@@V?$allocator@D@2@@std@@V?$weak_ptr@VRawImageData@@@2@@std@@@std@@@2@$00@2@$00@std@@QAEAAV?$_Compressed_pair@V?$allocator@U?$_Tree_node@U?$pair@$$CBV?$basic_string@DU?$char_traits@D@std@@V?$allocator@D@2@@std@@V?$weak_ptr@VRawImageData@@@2@@std@@PAX@std@@@std@@V?$_Tree_val@U?$_Tree_simple_types@U?$pair@$$CBV?$basic_string@DU?$char_traits@D@std@@V?$allocator@D@2@@std@@V?$weak_ptr@VRawImageData@@@2@@std@@@std@@@2@$00@2@XZ 004259e0 f i BasicSpacecraft.obj
 0001:00024a00       ?_Get_second@?$_Compressed_pair@U?$less@V?$basic_string@DU?$char_traits@D@std@@V?$allocator@D@2@@std@@@std@@V?$_Compressed_pair@V?$allocator@U?$_Tree_node@U?$pair@$$CBV?$basic_string@DU?$char_traits@D@std@@V?$allocator@D@2@@std@@V?$weak_ptr@VRawImageData@@@2@@std@@PAX@std@@@std@@V?$_Tree_val@U?$_Tree_simple_types@U?$pair@$$CBV?$basic_string@DU?$char_traits@D@std@@V?$allocator@D@2@@std@@V?$weak_ptr@VRawImageData@@@2@@std@@@std@@@2@$00@2@$00@std@@QBEABV?$_Compressed_pair@V?$allocator@U?$_Tree_node@U?$pair@$$CBV?$basic_string@DU?$char_traits@D@std@@V?$allocator@D@2@@std@@V?$weak_ptr@VRawImageData@@@2@@std@@PAX@std@@@std@@V?$_Tree_val@U?$_Tree_simple_types@U?$pair@$$CBV?$basic_string@DU?$char_traits@D@std@@V?$allocator@D@2@@std@@V?$weak_ptr@VRawImageData@@@2@@std@@@std@@@2@$00@2@XZ 00425a00 f i BasicSpacecraft.obj
 0001:00024a20       ?_Get_second@?$_Compressed_pair@V?$allocator@D@std@@V?$_String_val@U?$_Simple_types@D@std@@@2@$00@std@@QAEAAV?$_String_val@U?$_Simple_types@D@std@@@2@XZ 00425a20 f i BasicSpacecraft.obj
 0001:00024a40       ?_Get_second@?$_Compressed_pair@V?$allocator@D@std@@V?$_String_val@U?$_Simple_types@D@std@@@2@$00@std@@QBEABV?$_String_val@U?$_Simple_types@D@std@@@2@XZ 00425a40 f i BasicSpacecraft.obj
 0001:00024a60       ?_Get_second@?$_Compressed_pair@V?$allocator@U?$_Tree_node@U?$pair@$$CBV?$basic_string@DU?$char_traits@D@std@@V?$allocator@D@2@@std@@V?$shared_ptr@VRawImageData@@@2@@std@@PAX@std@@@std@@V?$_Tree_val@U?$_Tree_simple_types@U?$pair@$$CBV?$basic_string@DU?$char_traits@D@std@@V?$allocator@D@2@@std@@V?$shared_ptr@VRawImageData@@@2@@std@@@std@@@2@$00@std@@QAEAAV?$_Tree_val@U?$_Tree_simple_types@U?$pair@$$CBV?$basic_string@DU?$char_traits@D@std@@V?$allocator@D@2@@std@@V?$shared_ptr@VRawImageData@@@2@@std@@@std@@@2@XZ 00425a60 f i BasicSpacecraft.obj
 0001:00024a80       ?_Get_second@?$_Compressed_pair@V?$allocator@U?$_Tree_node@U?$pair@$$CBV?$basic_string@DU?$char_traits@D@std@@V?$allocator@D@2@@std@@V?$shared_ptr@VRawImageData@@@2@@std@@PAX@std@@@std@@V?$_Tree_val@U?$_Tree_simple_types@U?$pair@$$CBV?$basic_string@DU?$char_traits@D@std@@V?$allocator@D@2@@std@@V?$shared_ptr@VRawImageData@@@2@@std@@@std@@@2@$00@std@@QBEABV?$_Tree_val@U?$_Tree_simple_types@U?$pair@$$CBV?$basic_string@DU?$char_traits@D@std@@V?$allocator@D@2@@std@@V?$shared_ptr@VRawImageData@@@2@@std@@@std@@@2@XZ 00425a80 f i BasicSpacecraft.obj
 0001:00024aa0       ?_Get_second@?$_Compressed_pair@V?$allocator@U?$_Tree_node@U?$pair@$$CBV?$basic_string@DU?$char_traits@D@std@@V?$allocator@D@2@@std@@V?$weak_ptr@USpriteData@@@2@@std@@PAX@std@@@std@@V?$_Tree_val@U?$_Tree_simple_types@U?$pair@$$CBV?$basic_string@DU?$char_traits@D@std@@V?$allocator@D@2@@std@@V?$weak_ptr@USpriteData@@@2@@std@@@std@@@2@$00@std@@QAEAAV?$_Tree_val@U?$_Tree_simple_types@U?$pair@$$CBV?$basic_string@DU?$char_traits@D@std@@V?$allocator@D@2@@std@@V?$weak_ptr@USpriteData@@@2@@std@@@std@@@2@XZ 00425aa0 f i BasicSpacecraft.obj
 0001:00024ac0       ?_Get_second@?$_Compressed_pair@V?$allocator@U?$_Tree_node@U?$pair@$$CBV?$basic_string@DU?$char_traits@D@std@@V?$allocator@D@2@@std@@V?$weak_ptr@USpriteData@@@2@@std@@PAX@std@@@std@@V?$_Tree_val@U?$_Tree_simple_types@U?$pair@$$CBV?$basic_string@DU?$char_traits@D@std@@V?$allocator@D@2@@std@@V?$weak_ptr@USpriteData@@@2@@std@@@std@@@2@$00@std@@QBEABV?$_Tree_val@U?$_Tree_simple_types@U?$pair@$$CBV?$basic_string@DU?$char_traits@D@std@@V?$allocator@D@2@@std@@V?$weak_ptr@USpriteData@@@2@@std@@@std@@@2@XZ 00425ac0 f i BasicSpacecraft.obj
 0001:00024ae0       ?_Get_second@?$_Compressed_pair@V?$allocator@U?$_Tree_node@U?$pair@$$CBV?$basic_string@DU?$char_traits@D@std@@V?$allocator@D@2@@std@@V?$weak_ptr@VRawImageData@@@2@@std@@PAX@std@@@std@@V?$_Tree_val@U?$_Tree_simple_types@U?$pair@$$CBV?$basic_string@DU?$char_traits@D@std@@V?$allocator@D@2@@std@@V?$weak_ptr@VRawImageData@@@2@@std@@@std@@@2@$00@std@@QAEAAV?$_Tree_val@U?$_Tree_simple_types@U?$pair@$$CBV?$basic_string@DU?$char_traits@D@std@@V?$allocator@D@2@@std@@V?$weak_ptr@VRawImageData@@@2@@std@@@std@@@2@XZ 00425ae0 f i BasicSpacecraft.obj
 0001:00024b00       ?_Get_second@?$_Compressed_pair@V?$allocator@U?$_Tree_node@U?$pair@$$CBV?$basic_string@DU?$char_traits@D@std@@V?$allocator@D@2@@std@@V?$weak_ptr@VRawImageData@@@2@@std@@PAX@std@@@std@@V?$_Tree_val@U?$_Tree_simple_types@U?$pair@$$CBV?$basic_string@DU?$char_traits@D@std@@V?$allocator@D@2@@std@@V?$weak_ptr@VRawImageData@@@2@@std@@@std@@@2@$00@std@@QBEABV?$_Tree_val@U?$_Tree_simple_types@U?$pair@$$CBV?$basic_string@DU?$char_traits@D@std@@V?$allocator@D@2@@std@@V?$weak_ptr@VRawImageData@@@2@@std@@@std@@@2@XZ 00425b00 f i BasicSpacecraft.obj
 0001:00024b20       ?_Getal@?$_String_alloc@U?$_String_base_types@DV?$allocator@D@std@@@std@@@std@@QAEAAV?$allocator@D@2@XZ 00425b20 f i BasicSpacecraft.obj
 0001:00024b40       ?_Getal@?$_String_alloc@U?$_String_base_types@DV?$allocator@D@std@@@std@@@std@@QBEABV?$allocator@D@2@XZ 00425b40 f i BasicSpacecraft.obj
 0001:00024b60       ?_Getal@?$_Tree_comp_alloc@V?$_Tmap_traits@V?$basic_string@DU?$char_traits@D@std@@V?$allocator@D@2@@std@@V?$shared_ptr@VRawImageData@@@2@U?$less@V?$basic_string@DU?$char_traits@D@std@@V?$allocator@D@2@@std@@@2@V?$allocator@U?$pair@$$CBV?$basic_string@DU?$char_traits@D@std@@V?$allocator@D@2@@std@@V?$shared_ptr@VRawImageData@@@2@@std@@@2@$0A@@std@@@std@@QAEAAV?$allocator@U?$_Tree_node@U?$pair@$$CBV?$basic_string@DU?$char_traits@D@std@@V?$allocator@D@2@@std@@V?$shared_ptr@VRawImageData@@@2@@std@@PAX@std@@@2@XZ 00425b60 f i BasicSpacecraft.obj
 0001:00024b80       ?_Getal@?$_Tree_comp_alloc@V?$_Tmap_traits@V?$basic_string@DU?$char_traits@D@std@@V?$allocator@D@2@@std@@V?$shared_ptr@VRawImageData@@@2@U?$less@V?$basic_string@DU?$char_traits@D@std@@V?$allocator@D@2@@std@@@2@V?$allocator@U?$pair@$$CBV?$basic_string@DU?$char_traits@D@std@@V?$allocator@D@2@@std@@V?$shared_ptr@VRawImageData@@@2@@std@@@2@$0A@@std@@@std@@QBEABV?$allocator@U?$_Tree_node@U?$pair@$$CBV?$basic_string@DU?$char_traits@D@std@@V?$allocator@D@2@@std@@V?$shared_ptr@VRawImageData@@@2@@std@@PAX@std@@@2@XZ 00425b80 f i BasicSpacecraft.obj
 0001:00024ba0       ?_Getal@?$_Tree_comp_alloc@V?$_Tmap_traits@V?$basic_string@DU?$char_traits@D@std@@V?$allocator@D@2@@std@@V?$weak_ptr@USpriteData@@@2@U?$less@V?$basic_string@DU?$char_traits@D@std@@V?$allocator@D@2@@std@@@2@V?$allocator@U?$pair@$$CBV?$basic_string@DU?$char_traits@D@std@@V?$allocator@D@2@@std@@V?$weak_ptr@USpriteData@@@2@@std@@@2@$0A@@std@@@std@@QAEAAV?$allocator@U?$_Tree_node@U?$pair@$$CBV?$basic_string@DU?$char_traits@D@std@@V?$allocator@D@2@@std@@V?$weak_ptr@USpriteData@@@2@@std@@PAX@std@@@2@XZ 00425ba0 f i BasicSpacecraft.obj
 0001:00024bc0       ?_Getal@?$_Tree_comp_alloc@V?$_Tmap_traits@V?$basic_string@DU?$char_traits@D@std@@V?$allocator@D@2@@std@@V?$weak_ptr@USpriteData@@@2@U?$less@V?$basic_string@DU?$char_traits@D@std@@V?$allocator@D@2@@std@@@2@V?$allocator@U?$pair@$$CBV?$basic_string@DU?$char_traits@D@std@@V?$allocator@D@2@@std@@V?$weak_ptr@USpriteData@@@2@@std@@@2@$0A@@std@@@std@@QBEABV?$allocator@U?$_Tree_node@U?$pair@$$CBV?$basic_string@DU?$char_traits@D@std@@V?$allocator@D@2@@std@@V?$weak_ptr@USpriteData@@@2@@std@@PAX@std@@@2@XZ 00425bc0 f i BasicSpacecraft.obj
 0001:00024be0       ?_Getal@?$_Tree_comp_alloc@V?$_Tmap_traits@V?$basic_string@DU?$char_traits@D@std@@V?$allocator@D@2@@std@@V?$weak_ptr@VRawImageData@@@2@U?$less@V?$basic_string@DU?$char_traits@D@std@@V?$allocator@D@2@@std@@@2@V?$allocator@U?$pair@$$CBV?$basic_string@DU?$char_traits@D@std@@V?$allocator@D@2@@std@@V?$weak_ptr@VRawImageData@@@2@@std@@@2@$0A@@std@@@std@@QAEAAV?$allocator@U?$_Tree_node@U?$pair@$$CBV?$basic_string@DU?$char_traits@D@std@@V?$allocator@D@2@@std@@V?$weak_ptr@VRawImageData@@@2@@std@@PAX@std@@@2@XZ 00425be0 f i BasicSpacecraft.obj
 0001:00024c00       ?_Getal@?$_Tree_comp_alloc@V?$_Tmap_traits@V?$basic_string@DU?$char_traits@D@std@@V?$allocator@D@2@@std@@V?$weak_ptr@VRawImageData@@@2@U?$less@V?$basic_string@DU?$char_traits@D@std@@V?$allocator@D@2@@std@@@2@V?$allocator@U?$pair@$$CBV?$basic_string@DU?$char_traits@D@std@@V?$allocator@D@2@@std@@V?$weak_ptr@VRawImageData@@@2@@std@@@2@$0A@@std@@@std@@QBEABV?$allocator@U?$_Tree_node@U?$pair@$$CBV?$basic_string@DU?$char_traits@D@std@@V?$allocator@D@2@@std@@V?$weak_ptr@VRawImageData@@@2@@std@@PAX@std@@@2@XZ 00425c00 f i BasicSpacecraft.obj
 0001:00024c20       ?_Getcomp@?$_Tree_comp_alloc@V?$_Tmap_traits@V?$basic_string@DU?$char_traits@D@std@@V?$allocator@D@2@@std@@V?$shared_ptr@VRawImageData@@@2@U?$less@V?$basic_string@DU?$char_traits@D@std@@V?$allocator@D@2@@std@@@2@V?$allocator@U?$pair@$$CBV?$basic_string@DU?$char_traits@D@std@@V?$allocator@D@2@@std@@V?$shared_ptr@VRawImageData@@@2@@std@@@2@$0A@@std@@@std@@QAEAAU?$less@V?$basic_string@DU?$char_traits@D@std@@V?$allocator@D@2@@std@@@2@XZ 00425c20 f i BasicSpacecraft.obj
 0001:00024c40       ?_Getcomp@?$_Tree_comp_alloc@V?$_Tmap_traits@V?$basic_string@DU?$char_traits@D@std@@V?$allocator@D@2@@std@@V?$weak_ptr@USpriteData@@@2@U?$less@V?$basic_string@DU?$char_traits@D@std@@V?$allocator@D@2@@std@@@2@V?$allocator@U?$pair@$$CBV?$basic_string@DU?$char_traits@D@std@@V?$allocator@D@2@@std@@V?$weak_ptr@USpriteData@@@2@@std@@@2@$0A@@std@@@std@@QAEAAU?$less@V?$basic_string@DU?$char_traits@D@std@@V?$allocator@D@2@@std@@@2@XZ 00425c40 f i BasicSpacecraft.obj
 0001:00024c60       ?_Getcomp@?$_Tree_comp_alloc@V?$_Tmap_traits@V?$basic_string@DU?$char_traits@D@std@@V?$allocator@D@2@@std@@V?$weak_ptr@USpriteData@@@2@U?$less@V?$basic_string@DU?$char_traits@D@std@@V?$allocator@D@2@@std@@@2@V?$allocator@U?$pair@$$CBV?$basic_string@DU?$char_traits@D@std@@V?$allocator@D@2@@std@@V?$weak_ptr@USpriteData@@@2@@std@@@2@$0A@@std@@@std@@QBEABU?$less@V?$basic_string@DU?$char_traits@D@std@@V?$allocator@D@2@@std@@@2@XZ 00425c60 f i BasicSpacecraft.obj
 0001:00024c80       ?_Getcomp@?$_Tree_comp_alloc@V?$_Tmap_traits@V?$basic_string@DU?$char_traits@D@std@@V?$allocator@D@2@@std@@V?$weak_ptr@VRawImageData@@@2@U?$less@V?$basic_string@DU?$char_traits@D@std@@V?$allocator@D@2@@std@@@2@V?$allocator@U?$pair@$$CBV?$basic_string@DU?$char_traits@D@std@@V?$allocator@D@2@@std@@V?$weak_ptr@VRawImageData@@@2@@std@@@2@$0A@@std@@@std@@QAEAAU?$less@V?$basic_string@DU?$char_traits@D@std@@V?$allocator@D@2@@std@@@2@XZ 00425c80 f i BasicSpacecraft.obj
 0001:00024ca0       ?_Getcomp@?$_Tree_comp_alloc@V?$_Tmap_traits@V?$basic_string@DU?$char_traits@D@std@@V?$allocator@D@2@@std@@V?$weak_ptr@VRawImageData@@@2@U?$less@V?$basic_string@DU?$char_traits@D@std@@V?$allocator@D@2@@std@@@2@V?$allocator@U?$pair@$$CBV?$basic_string@DU?$char_traits@D@std@@V?$allocator@D@2@@std@@V?$weak_ptr@VRawImageData@@@2@@std@@@2@$0A@@std@@@std@@QBEABU?$less@V?$basic_string@DU?$char_traits@D@std@@V?$allocator@D@2@@std@@@2@XZ 00425ca0 f i BasicSpacecraft.obj
 0001:00024cc0       ?_Getcont@_Iterator_base12@std@@QBEPBU_Container_base12@2@XZ 00425cc0 f i BasicSpacecraft.obj
 0001:00024d00       ?_Getpfirst@?$_Tree_comp_alloc@V?$_Tmap_traits@V?$basic_string@DU?$char_traits@D@std@@V?$allocator@D@2@@std@@V?$shared_ptr@VRawImageData@@@2@U?$less@V?$basic_string@DU?$char_traits@D@std@@V?$allocator@D@2@@std@@@2@V?$allocator@U?$pair@$$CBV?$basic_string@DU?$char_traits@D@std@@V?$allocator@D@2@@std@@V?$shared_ptr@VRawImageData@@@2@@std@@@2@$0A@@std@@@std@@QBEPAPAU_Iterator_base12@2@XZ 00425d00 f i BasicSpacecraft.obj
 0001:00024d20       ?_Getpfirst@?$_Tree_comp_alloc@V?$_Tmap_traits@V?$basic_string@DU?$char_traits@D@std@@V?$allocator@D@2@@std@@V?$weak_ptr@USpriteData@@@2@U?$less@V?$basic_string@DU?$char_traits@D@std@@V?$allocator@D@2@@std@@@2@V?$allocator@U?$pair@$$CBV?$basic_string@DU?$char_traits@D@std@@V?$allocator@D@2@@std@@V?$weak_ptr@USpriteData@@@2@@std@@@2@$0A@@std@@@std@@QBEPAPAU_Iterator_base12@2@XZ 00425d20 f i BasicSpacecraft.obj
 0001:00024d40       ?_Getpfirst@?$_Tree_comp_alloc@V?$_Tmap_traits@V?$basic_string@DU?$char_traits@D@std@@V?$allocator@D@2@@std@@V?$weak_ptr@VRawImageData@@@2@U?$less@V?$basic_string@DU?$char_traits@D@std@@V?$allocator@D@2@@std@@@2@V?$allocator@U?$pair@$$CBV?$basic_string@DU?$char_traits@D@std@@V?$allocator@D@2@@std@@V?$weak_ptr@VRawImageData@@@2@@std@@@2@$0A@@std@@@std@@QBEPAPAU_Iterator_base12@2@XZ 00425d40 f i BasicSpacecraft.obj
 0001:00024d60       ?_Getpfirst@_Container_base12@std@@QBEPAPAU_Iterator_base12@2@XZ 00425d60 f i BasicSpacecraft.obj
 0001:00024da0       ?_Getpnext@_Iterator_base12@std@@QAEPAPAU12@XZ 00425da0 f i BasicSpacecraft.obj
 0001:00024dc0       ?_Incref@_Ref_count_base@std@@QAEXXZ 00425dc0 f i BasicSpacecraft.obj
 0001:00024de0       ?_Incref_nz@_Ref_count_base@std@@QAE_NXZ 00425de0 f i BasicSpacecraft.obj
 0001:00024e30       ?_Incwref@_Ref_count_base@std@@QAEXXZ 00425e30 f i BasicSpacecraft.obj
 0001:00024e50       ?_Key@?$_Tree@V?$_Tmap_traits@V?$basic_string@DU?$char_traits@D@std@@V?$allocator@D@2@@std@@V?$shared_ptr@VRawImageData@@@2@U?$less@V?$basic_string@DU?$char_traits@D@std@@V?$allocator@D@2@@std@@@2@V?$allocator@U?$pair@$$CBV?$basic_string@DU?$char_traits@D@std@@V?$allocator@D@2@@std@@V?$shared_ptr@VRawImageData@@@2@@std@@@2@$0A@@std@@@std@@IBEABV?$basic_string@DU?$char_traits@D@std@@V?$allocator@D@2@@2@PAU?$_Tree_node@U?$pair@$$CBV?$basic_string@DU?$char_traits@D@std@@V?$allocator@D@2@@std@@V?$shared_ptr@VRawImageData@@@2@@std@@PAX@2@@Z 00425e50 f i BasicSpacecraft.obj
 0001:00024e80       ?_Key@?$_Tree@V?$_Tmap_traits@V?$basic_string@DU?$char_traits@D@std@@V?$allocator@D@2@@std@@V?$weak_ptr@USpriteData@@@2@U?$less@V?$basic_string@DU?$char_traits@D@std@@V?$allocator@D@2@@std@@@2@V?$allocator@U?$pair@$$CBV?$basic_string@DU?$char_traits@D@std@@V?$allocator@D@2@@std@@V?$weak_ptr@USpriteData@@@2@@std@@@2@$0A@@std@@@std@@IBEABV?$basic_string@DU?$char_traits@D@std@@V?$allocator@D@2@@2@PAU?$_Tree_node@U?$pair@$$CBV?$basic_string@DU?$char_traits@D@std@@V?$allocator@D@2@@std@@V?$weak_ptr@USpriteData@@@2@@std@@PAX@2@@Z 00425e80 f i BasicSpacecraft.obj
 0001:00024eb0       ?_Key@?$_Tree@V?$_Tmap_traits@V?$basic_string@DU?$char_traits@D@std@@V?$allocator@D@2@@std@@V?$weak_ptr@VRawImageData@@@2@U?$less@V?$basic_string@DU?$char_traits@D@std@@V?$allocator@D@2@@std@@@2@V?$allocator@U?$pair@$$CBV?$basic_string@DU?$char_traits@D@std@@V?$allocator@D@2@@std@@V?$weak_ptr@VRawImageData@@@2@@std@@@2@$0A@@std@@@std@@IBEABV?$basic_string@DU?$char_traits@D@std@@V?$allocator@D@2@@2@PAU?$_Tree_node@U?$pair@$$CBV?$basic_string@DU?$char_traits@D@std@@V?$allocator@D@2@@std@@V?$weak_ptr@VRawImageData@@@2@@std@@PAX@2@@Z 00425eb0 f i BasicSpacecraft.obj
 0001:00024ee0       ?_Kfn@?$_Tree@V?$_Tmap_traits@V?$basic_string@DU?$char_traits@D@std@@V?$allocator@D@2@@std@@V?$shared_ptr@VRawImageData@@@2@U?$less@V?$basic_string@DU?$char_traits@D@std@@V?$allocator@D@2@@std@@@2@V?$allocator@U?$pair@$$CBV?$basic_string@DU?$char_traits@D@std@@V?$allocator@D@2@@std@@V?$shared_ptr@VRawImageData@@@2@@std@@@2@$0A@@std@@@std@@IBEABV?$basic_string@DU?$char_traits@D@std@@V?$allocator@D@2@@2@ABU?$pair@$$CBV?$basic_string@DU?$char_traits@D@std@@V?$allocator@D@2@@std@@V?$shared_ptr@VRawImageData@@@2@@2@@Z 00425ee0 f i BasicSpacecraft.obj
 0001:00024f00       ?_Kfn@?$_Tree@V?$_Tmap_traits@V?$basic_string@DU?$char_traits@D@std@@V?$allocator@D@2@@std@@V?$weak_ptr@USpriteData@@@2@U?$less@V?$basic_string@DU?$char_traits@D@std@@V?$allocator@D@2@@std@@@2@V?$allocator@U?$pair@$$CBV?$basic_string@DU?$char_traits@D@std@@V?$allocator@D@2@@std@@V?$weak_ptr@USpriteData@@@2@@std@@@2@$0A@@std@@@std@@IBEABV?$basic_string@DU?$char_traits@D@std@@V?$allocator@D@2@@2@ABU?$pair@$$CBV?$basic_string@DU?$char_traits@D@std@@V?$allocator@D@2@@std@@V?$weak_ptr@USpriteData@@@2@@2@@Z 00425f00 f i BasicSpacecraft.obj
 0001:00024f20       ?_Kfn@?$_Tree@V?$_Tmap_traits@V?$basic_string@DU?$char_traits@D@std@@V?$allocator@D@2@@std@@V?$weak_ptr@VRawImageData@@@2@U?$less@V?$basic_string@DU?$char_traits@D@std@@V?$allocator@D@2@@std@@@2@V?$allocator@U?$pair@$$CBV?$basic_string@DU?$char_traits@D@std@@V?$allocator@D@2@@std@@V?$weak_ptr@VRawImageData@@@2@@std@@@2@$0A@@std@@@std@@IBEABV?$basic_string@DU?$char_traits@D@std@@V?$allocator@D@2@@2@ABU?$pair@$$CBV?$basic_string@DU?$char_traits@D@std@@V?$allocator@D@2@@std@@V?$weak_ptr@VRawImageData@@@2@@2@@Z 00425f20 f i BasicSpacecraft.obj
 0001:00024f40       ?_Large_string_engaged@?$_String_val@U?$_Simple_types@D@std@@@std@@QBE_NXZ 00425f40 f i BasicSpacecraft.obj
 0001:00024f80       ?_Lmost@?$_Tree_val@U?$_Tree_simple_types@U?$pair@$$CBV?$basic_string@DU?$char_traits@D@std@@V?$allocator@D@2@@std@@V?$shared_ptr@VRawImageData@@@2@@std@@@std@@@std@@QBEAAPAU?$_Tree_node@U?$pair@$$CBV?$basic_string@DU?$char_traits@D@std@@V?$allocator@D@2@@std@@V?$shared_ptr@VRawImageData@@@2@@std@@PAX@2@XZ 00425f80 f i BasicSpacecraft.obj
 0001:00024fa0       ?_Lmost@?$_Tree_val@U?$_Tree_simple_types@U?$pair@$$CBV?$basic_string@DU?$char_traits@D@std@@V?$allocator@D@2@@std@@V?$weak_ptr@USpriteData@@@2@@std@@@std@@@std@@QBEAAPAU?$_Tree_node@U?$pair@$$CBV?$basic_string@DU?$char_traits@D@std@@V?$allocator@D@2@@std@@V?$weak_ptr@USpriteData@@@2@@std@@PAX@2@XZ 00425fa0 f i BasicSpacecraft.obj
 0001:00024fc0       ?_Lmost@?$_Tree_val@U?$_Tree_simple_types@U?$pair@$$CBV?$basic_string@DU?$char_traits@D@std@@V?$allocator@D@2@@std@@V?$weak_ptr@VRawImageData@@@2@@std@@@std@@@std@@QBEAAPAU?$_Tree_node@U?$pair@$$CBV?$basic_string@DU?$char_traits@D@std@@V?$allocator@D@2@@std@@V?$weak_ptr@VRawImageData@@@2@@std@@PAX@2@XZ 00425fc0 f i BasicSpacecraft.obj
 0001:00024fe0       ?_Lrotate@?$_Tree_val@U?$_Tree_simple_types@U?$pair@$$CBV?$basic_string@DU?$char_traits@D@std@@V?$allocator@D@2@@std@@V?$shared_ptr@VRawImageData@@@2@@std@@@std@@@std@@QAEXPAU?$_Tree_node@U?$pair@$$CBV?$basic_string@DU?$char_traits@D@std@@V?$allocator@D@2@@std@@V?$shared_ptr@VRawImageData@@@2@@std@@PAX@2@@Z 00425fe0 f i BasicSpacecraft.obj
 0001:000250a0       ?_Lrotate@?$_Tree_val@U?$_Tree_simple_types@U?$pair@$$CBV?$basic_string@DU?$char_traits@D@std@@V?$allocator@D@2@@std@@V?$weak_ptr@USpriteData@@@2@@std@@@std@@@std@@QAEXPAU?$_Tree_node@U?$pair@$$CBV?$basic_string@DU?$char_traits@D@std@@V?$allocator@D@2@@std@@V?$weak_ptr@USpriteData@@@2@@std@@PAX@2@@Z 004260a0 f i BasicSpacecraft.obj
 0001:00025160       ?_Lrotate@?$_Tree_val@U?$_Tree_simple_types@U?$pair@$$CBV?$basic_string@DU?$char_traits@D@std@@V?$allocator@D@2@@std@@V?$weak_ptr@VRawImageData@@@2@@std@@@std@@@std@@QAEXPAU?$_Tree_node@U?$pair@$$CBV?$basic_string@DU?$char_traits@D@std@@V?$allocator@D@2@@std@@V?$weak_ptr@VRawImageData@@@2@@std@@PAX@2@@Z 00426160 f i BasicSpacecraft.obj
 0001:00025220       ?_Max@?$_Tree_val@U?$_Tree_simple_types@U?$pair@$$CBV?$basic_string@DU?$char_traits@D@std@@V?$allocator@D@2@@std@@V?$shared_ptr@VRawImageData@@@2@@std@@@std@@@std@@SAPAU?$_Tree_node@U?$pair@$$CBV?$basic_string@DU?$char_traits@D@std@@V?$allocator@D@2@@std@@V?$shared_ptr@VRawImageData@@@2@@std@@PAX@2@PAU32@@Z 00426220 f i BasicSpacecraft.obj
 0001:00025250       ?_Max@?$_Tree_val@U?$_Tree_simple_types@U?$pair@$$CBV?$basic_string@DU?$char_traits@D@std@@V?$allocator@D@2@@std@@V?$weak_ptr@USpriteData@@@2@@std@@@std@@@std@@SAPAU?$_Tree_node@U?$pair@$$CBV?$basic_string@DU?$char_traits@D@std@@V?$allocator@D@2@@std@@V?$weak_ptr@USpriteData@@@2@@std@@PAX@2@PAU32@@Z 00426250 f i BasicSpacecraft.obj
 0001:00025280       ?_Max@?$_Tree_val@U?$_Tree_simple_types@U?$pair@$$CBV?$basic_string@DU?$char_traits@D@std@@V?$allocator@D@2@@std@@V?$weak_ptr@VRawImageData@@@2@@std@@@std@@@std@@SAPAU?$_Tree_node@U?$pair@$$CBV?$basic_string@DU?$char_traits@D@std@@V?$allocator@D@2@@std@@V?$weak_ptr@VRawImageData@@@2@@std@@PAX@2@PAU32@@Z 00426280 f i BasicSpacecraft.obj
 0001:000252b0       ?_Min@?$_Tree_val@U?$_Tree_simple_types@U?$pair@$$CBV?$basic_string@DU?$char_traits@D@std@@V?$allocator@D@2@@std@@V?$shared_ptr@VRawImageData@@@2@@std@@@std@@@std@@SAPAU?$_Tree_node@U?$pair@$$CBV?$basic_string@DU?$char_traits@D@std@@V?$allocator@D@2@@std@@V?$shared_ptr@VRawImageData@@@2@@std@@PAX@2@PAU32@@Z 004262b0 f i BasicSpacecraft.obj
 0001:000252e0       ?_Min@?$_Tree_val@U?$_Tree_simple_types@U?$pair@$$CBV?$basic_string@DU?$char_traits@D@std@@V?$allocator@D@2@@std@@V?$weak_ptr@USpriteData@@@2@@std@@@std@@@std@@SAPAU?$_Tree_node@U?$pair@$$CBV?$basic_string@DU?$char_traits@D@std@@V?$allocator@D@2@@std@@V?$weak_ptr@USpriteData@@@2@@std@@PAX@2@PAU32@@Z 004262e0 f i BasicSpacecraft.obj
 0001:00025310       ?_Min@?$_Tree_val@U?$_Tree_simple_types@U?$pair@$$CBV?$basic_string@DU?$char_traits@D@std@@V?$allocator@D@2@@std@@V?$weak_ptr@VRawImageData@@@2@@std@@@std@@@std@@SAPAU?$_Tree_node@U?$pair@$$CBV?$basic_string@DU?$char_traits@D@std@@V?$allocator@D@2@@std@@V?$weak_ptr@VRawImageData@@@2@@std@@PAX@2@PAU32@@Z 00426310 f i BasicSpacecraft.obj
 0001:00025340       ?_Myproxy@?$_String_alloc@U?$_String_base_types@DV?$allocator@D@std@@@std@@@std@@QAEAAPAU_Container_proxy@2@XZ 00426340 f i BasicSpacecraft.obj
 0001:00025360       ?_Myproxy@?$_Tree_comp_alloc@V?$_Tmap_traits@V?$basic_string@DU?$char_traits@D@std@@V?$allocator@D@2@@std@@V?$shared_ptr@VRawImageData@@@2@U?$less@V?$basic_string@DU?$char_traits@D@std@@V?$allocator@D@2@@std@@@2@V?$allocator@U?$pair@$$CBV?$basic_string@DU?$char_traits@D@std@@V?$allocator@D@2@@std@@V?$shared_ptr@VRawImageData@@@2@@std@@@2@$0A@@std@@@std@@QAEAAPAU_Container_proxy@2@XZ 00426360 f i BasicSpacecraft.obj
 0001:00025380       ?_Myproxy@?$_Tree_comp_alloc@V?$_Tmap_traits@V?$basic_string@DU?$char_traits@D@std@@V?$allocator@D@2@@std@@V?$weak_ptr@USpriteData@@@2@U?$less@V?$basic_string@DU?$char_traits@D@std@@V?$allocator@D@2@@std@@@2@V?$allocator@U?$pair@$$CBV?$basic_string@DU?$char_traits@D@std@@V?$allocator@D@2@@std@@V?$weak_ptr@USpriteData@@@2@@std@@@2@$0A@@std@@@std@@QAEAAPAU_Container_proxy@2@XZ 00426380 f i BasicSpacecraft.obj
 0001:000253a0       ?_Myproxy@?$_Tree_comp_alloc@V?$_Tmap_traits@V?$basic_string@DU?$char_traits@D@std@@V?$allocator@D@2@@std@@V?$weak_ptr@VRawImageData@@@2@U?$less@V?$basic_string@DU?$char_traits@D@std@@V?$allocator@D@2@@std@@@2@V?$allocator@U?$pair@$$CBV?$basic_string@DU?$char_traits@D@std@@V?$allocator@D@2@@std@@V?$weak_ptr@VRawImageData@@@2@@std@@@2@$0A@@std@@@std@@QAEAAPAU_Container_proxy@2@XZ 004263a0 f i BasicSpacecraft.obj
 0001:000253c0       ?_Myptr@?$_String_val@U?$_Simple_types@D@std@@@std@@QAEPADXZ 004263c0 f i BasicSpacecraft.obj
 0001:00025410       ?_Myptr@?$_String_val@U?$_Simple_types@D@std@@@std@@QBEPBDXZ 00426410 f i BasicSpacecraft.obj
 0001:00025460       ?_Orphan_all@?$_String_alloc@U?$_String_base_types@DV?$allocator@D@std@@@std@@@std@@QAEXXZ 00426460 f i BasicSpacecraft.obj
 0001:00025480       ?_Orphan_all@?$_Tree_comp_alloc@V?$_Tmap_traits@V?$basic_string@DU?$char_traits@D@std@@V?$allocator@D@2@@std@@V?$shared_ptr@VRawImageData@@@2@U?$less@V?$basic_string@DU?$char_traits@D@std@@V?$allocator@D@2@@std@@@2@V?$allocator@U?$pair@$$CBV?$basic_string@DU?$char_traits@D@std@@V?$allocator@D@2@@std@@V?$shared_ptr@VRawImageData@@@2@@std@@@2@$0A@@std@@@std@@QAEXXZ 00426480 f i BasicSpacecraft.obj
 0001:000254a0       ?_Orphan_all@?$_Tree_comp_alloc@V?$_Tmap_traits@V?$basic_string@DU?$char_traits@D@std@@V?$allocator@D@2@@std@@V?$weak_ptr@USpriteData@@@2@U?$less@V?$basic_string@DU?$char_traits@D@std@@V?$allocator@D@2@@std@@@2@V?$allocator@U?$pair@$$CBV?$basic_string@DU?$char_traits@D@std@@V?$allocator@D@2@@std@@V?$weak_ptr@USpriteData@@@2@@std@@@2@$0A@@std@@@std@@QAEXXZ 004264a0 f i BasicSpacecraft.obj
 0001:000254c0       ?_Orphan_all@?$_Tree_comp_alloc@V?$_Tmap_traits@V?$basic_string@DU?$char_traits@D@std@@V?$allocator@D@2@@std@@V?$weak_ptr@VRawImageData@@@2@U?$less@V?$basic_string@DU?$char_traits@D@std@@V?$allocator@D@2@@std@@@2@V?$allocator@U?$pair@$$CBV?$basic_string@DU?$char_traits@D@std@@V?$allocator@D@2@@std@@V?$weak_ptr@VRawImageData@@@2@@std@@@2@$0A@@std@@@std@@QAEXXZ 004264c0 f i BasicSpacecraft.obj
 0001:000254e0       ?_Orphan_all@_Container_base12@std@@QAEXXZ 004264e0 f i BasicSpacecraft.obj
 0001:000255a0       ?_Orphan_me@_Iterator_base12@std@@QAEXXZ 004265a0 f i BasicSpacecraft.obj
 0001:00025680       ?_Orphan_ptr@?$_Tree@V?$_Tmap_traits@V?$basic_string@DU?$char_traits@D@std@@V?$allocator@D@2@@std@@V?$shared_ptr@VRawImageData@@@2@U?$less@V?$basic_string@DU?$char_traits@D@std@@V?$allocator@D@2@@std@@@2@V?$allocator@U?$pair@$$CBV?$basic_string@DU?$char_traits@D@std@@V?$allocator@D@2@@std@@V?$shared_ptr@VRawImageData@@@2@@std@@@2@$0A@@std@@@std@@IAEXPAU?$_Tree_node@U?$pair@$$CBV?$basic_string@DU?$char_traits@D@std@@V?$allocator@D@2@@std@@V?$shared_ptr@VRawImageData@@@2@@std@@PAX@2@@Z 00426680 f i BasicSpacecraft.obj
 0001:00025780       ?_Orphan_ptr@?$_Tree@V?$_Tmap_traits@V?$basic_string@DU?$char_traits@D@std@@V?$allocator@D@2@@std@@V?$weak_ptr@USpriteData@@@2@U?$less@V?$basic_string@DU?$char_traits@D@std@@V?$allocator@D@2@@std@@@2@V?$allocator@U?$pair@$$CBV?$basic_string@DU?$char_traits@D@std@@V?$allocator@D@2@@std@@V?$weak_ptr@USpriteData@@@2@@std@@@2@$0A@@std@@@std@@IAEXPAU?$_Tree_node@U?$pair@$$CBV?$basic_string@DU?$char_traits@D@std@@V?$allocator@D@2@@std@@V?$weak_ptr@USpriteData@@@2@@std@@PAX@2@@Z 00426780 f i BasicSpacecraft.obj
 0001:00025880       ?_Orphan_ptr@?$_Tree@V?$_Tmap_traits@V?$basic_string@DU?$char_traits@D@std@@V?$allocator@D@2@@std@@V?$weak_ptr@VRawImageData@@@2@U?$less@V?$basic_string@DU?$char_traits@D@std@@V?$allocator@D@2@@std@@@2@V?$allocator@U?$pair@$$CBV?$basic_string@DU?$char_traits@D@std@@V?$allocator@D@2@@std@@V?$weak_ptr@VRawImageData@@@2@@std@@@2@$0A@@std@@@std@@IAEXPAU?$_Tree_node@U?$pair@$$CBV?$basic_string@DU?$char_traits@D@std@@V?$allocator@D@2@@std@@V?$weak_ptr@VRawImageData@@@2@@std@@PAX@2@@Z 00426880 f i BasicSpacecraft.obj
 0001:00025980       ?_Rmost@?$_Tree_val@U?$_Tree_simple_types@U?$pair@$$CBV?$basic_string@DU?$char_traits@D@std@@V?$allocator@D@2@@std@@V?$shared_ptr@VRawImageData@@@2@@std@@@std@@@std@@QBEAAPAU?$_Tree_node@U?$pair@$$CBV?$basic_string@DU?$char_traits@D@std@@V?$allocator@D@2@@std@@V?$shared_ptr@VRawImageData@@@2@@std@@PAX@2@XZ 00426980 f i BasicSpacecraft.obj
 0001:000259a0       ?_Rmost@?$_Tree_val@U?$_Tree_simple_types@U?$pair@$$CBV?$basic_string@DU?$char_traits@D@std@@V?$allocator@D@2@@std@@V?$weak_ptr@USpriteData@@@2@@std@@@std@@@std@@QBEAAPAU?$_Tree_node@U?$pair@$$CBV?$basic_string@DU?$char_traits@D@std@@V?$allocator@D@2@@std@@V?$weak_ptr@USpriteData@@@2@@std@@PAX@2@XZ 004269a0 f i BasicSpacecraft.obj
 0001:000259c0       ?_Rmost@?$_Tree_val@U?$_Tree_simple_types@U?$pair@$$CBV?$basic_string@DU?$char_traits@D@std@@V?$allocator@D@2@@std@@V?$weak_ptr@VRawImageData@@@2@@std@@@std@@@std@@QBEAAPAU?$_Tree_node@U?$pair@$$CBV?$basic_string@DU?$char_traits@D@std@@V?$allocator@D@2@@std@@V?$weak_ptr@VRawImageData@@@2@@std@@PAX@2@XZ 004269c0 f i BasicSpacecraft.obj
 0001:000259e0       ?_Root@?$_Tree_val@U?$_Tree_simple_types@U?$pair@$$CBV?$basic_string@DU?$char_traits@D@std@@V?$allocator@D@2@@std@@V?$shared_ptr@VRawImageData@@@2@@std@@@std@@@std@@QBEAAPAU?$_Tree_node@U?$pair@$$CBV?$basic_string@DU?$char_traits@D@std@@V?$allocator@D@2@@std@@V?$shared_ptr@VRawImageData@@@2@@std@@PAX@2@XZ 004269e0 f i BasicSpacecraft.obj
 0001:00025a00       ?_Root@?$_Tree_val@U?$_Tree_simple_types@U?$pair@$$CBV?$basic_string@DU?$char_traits@D@std@@V?$allocator@D@2@@std@@V?$weak_ptr@USpriteData@@@2@@std@@@std@@@std@@QBEAAPAU?$_Tree_node@U?$pair@$$CBV?$basic_string@DU?$char_traits@D@std@@V?$allocator@D@2@@std@@V?$weak_ptr@USpriteData@@@2@@std@@PAX@2@XZ 00426a00 f i BasicSpacecraft.obj
 0001:00025a20       ?_Root@?$_Tree_val@U?$_Tree_simple_types@U?$pair@$$CBV?$basic_string@DU?$char_traits@D@std@@V?$allocator@D@2@@std@@V?$weak_ptr@VRawImageData@@@2@@std@@@std@@@std@@QBEAAPAU?$_Tree_node@U?$pair@$$CBV?$basic_string@DU?$char_traits@D@std@@V?$allocator@D@2@@std@@V?$weak_ptr@VRawImageData@@@2@@std@@PAX@2@XZ 00426a20 f i BasicSpacecraft.obj
 0001:00025a40       ?_Rrotate@?$_Tree_val@U?$_Tree_simple_types@U?$pair@$$CBV?$basic_string@DU?$char_traits@D@std@@V?$allocator@D@2@@std@@V?$shared_ptr@VRawImageData@@@2@@std@@@std@@@std@@QAEXPAU?$_Tree_node@U?$pair@$$CBV?$basic_string@DU?$char_traits@D@std@@V?$allocator@D@2@@std@@V?$shared_ptr@VRawImageData@@@2@@std@@PAX@2@@Z 00426a40 f i BasicSpacecraft.obj
 0001:00025b10       ?_Rrotate@?$_Tree_val@U?$_Tree_simple_types@U?$pair@$$CBV?$basic_string@DU?$char_traits@D@std@@V?$allocator@D@2@@std@@V?$weak_ptr@USpriteData@@@2@@std@@@std@@@std@@QAEXPAU?$_Tree_node@U?$pair@$$CBV?$basic_string@DU?$char_traits@D@std@@V?$allocator@D@2@@std@@V?$weak_ptr@USpriteData@@@2@@std@@PAX@2@@Z 00426b10 f i BasicSpacecraft.obj
 0001:00025be0       ?_Rrotate@?$_Tree_val@U?$_Tree_simple_types@U?$pair@$$CBV?$basic_string@DU?$char_traits@D@std@@V?$allocator@D@2@@std@@V?$weak_ptr@VRawImageData@@@2@@std@@@std@@@std@@QAEXPAU?$_Tree_node@U?$pair@$$CBV?$basic_string@DU?$char_traits@D@std@@V?$allocator@D@2@@std@@V?$weak_ptr@VRawImageData@@@2@@std@@PAX@2@@Z 00426be0 f i BasicSpacecraft.obj
 0001:00025cb0       ?_Set_ptr_rep@?$_Ptr_base@USpriteData@@@std@@IAEXPAUSpriteData@@PAV_Ref_count_base@2@@Z 00426cb0 f i BasicSpacecraft.obj
 0001:00025ce0       ?_Set_ptr_rep@?$_Ptr_base@VRawImageData@@@std@@IAEXPAVRawImageData@@PAV_Ref_count_base@2@@Z 00426ce0 f i BasicSpacecraft.obj
 0001:00025d10       ?_Swap@?$_Ptr_base@VRawImageData@@@std@@IAEXAAV12@@Z 00426d10 f i BasicSpacecraft.obj
 0001:00025d50       ?_Swap_all@?$_String_alloc@U?$_String_base_types@DV?$allocator@D@std@@@std@@@std@@QAEXAAV12@@Z 00426d50 f i BasicSpacecraft.obj
 0001:00025d80       ?_Swap_all@_Container_base12@std@@QAEXAAU12@@Z 00426d80 f i BasicSpacecraft.obj
 0001:00025e30       ?_Tidy@?$_Tree@V?$_Tmap_traits@V?$basic_string@DU?$char_traits@D@std@@V?$allocator@D@2@@std@@V?$shared_ptr@VRawImageData@@@2@U?$less@V?$basic_string@DU?$char_traits@D@std@@V?$allocator@D@2@@std@@@2@V?$allocator@U?$pair@$$CBV?$basic_string@DU?$char_traits@D@std@@V?$allocator@D@2@@std@@V?$shared_ptr@VRawImageData@@@2@@std@@@2@$0A@@std@@@std@@IAEXXZ 00426e30 f i BasicSpacecraft.obj
 0001:00025f30       ?_Tidy@?$_Tree@V?$_Tmap_traits@V?$basic_string@DU?$char_traits@D@std@@V?$allocator@D@2@@std@@V?$weak_ptr@USpriteData@@@2@U?$less@V?$basic_string@DU?$char_traits@D@std@@V?$allocator@D@2@@std@@@2@V?$allocator@U?$pair@$$CBV?$basic_string@DU?$char_traits@D@std@@V?$allocator@D@2@@std@@V?$weak_ptr@USpriteData@@@2@@std@@@2@$0A@@std@@@std@@IAEXXZ 00426f30 f i BasicSpacecraft.obj
 0001:00026030       ?_Tidy@?$_Tree@V?$_Tmap_traits@V?$basic_string@DU?$char_traits@D@std@@V?$allocator@D@2@@std@@V?$weak_ptr@VRawImageData@@@2@U?$less@V?$basic_string@DU?$char_traits@D@std@@V?$allocator@D@2@@std@@@2@V?$allocator@U?$pair@$$CBV?$basic_string@DU?$char_traits@D@std@@V?$allocator@D@2@@std@@V?$weak_ptr@VRawImageData@@@2@@std@@@2@$0A@@std@@@std@@IAEXXZ 00427030 f i BasicSpacecraft.obj
 0001:00026130       ?_Tidy_deallocate@?$basic_string@DU?$char_traits@D@std@@V?$allocator@D@2@@std@@QAEXXZ 00427130 f i BasicSpacecraft.obj
 0001:00026210       ?_Tidy_init@?$basic_string@DU?$char_traits@D@std@@V?$allocator@D@2@@std@@QAEXXZ 00427210 f i BasicSpacecraft.obj
 0001:00026270       ?_Use_count@_Ref_count_base@std@@QBEJXZ 00427270 f i BasicSpacecraft.obj
 0001:000262d0       ?_Xlen@?$basic_string@DU?$char_traits@D@std@@V?$allocator@D@2@@std@@SAXXZ 004272d0 f i BasicSpacecraft.obj
 0001:000262f0       ?__empty_global_delete@@YAXPAX@Z 004272f0 f i BasicSpacecraft.obj
 0001:00026300       ?__global_delete@@YAXPAXI@Z 00427300 f i BasicSpacecraft.obj
 0001:00026300       ?__empty_global_delete@@YAXPAXI@Z 00427300 f i BasicSpacecraft.obj
 0001:00026310       ?abs@@YAOO@Z               00427310 f i BasicSpacecraft.obj
 0001:00026330       ?addBoundsCheck@DrawingSurface@@QAEXHHHH@Z 00427330 f i BasicSpacecraft.obj
 0001:00026380       ?allocate@?$allocator@D@std@@QAEPADI@Z 00427380 f i BasicSpacecraft.obj
 0001:000263b0       ?allocate@?$allocator@U?$_Tree_node@U?$pair@$$CBV?$basic_string@DU?$char_traits@D@std@@V?$allocator@D@2@@std@@V?$shared_ptr@VRawImageData@@@2@@std@@PAX@std@@@std@@QAEPAU?$_Tree_node@U?$pair@$$CBV?$basic_string@DU?$char_traits@D@std@@V?$allocator@D@2@@std@@V?$shared_ptr@VRawImageData@@@2@@std@@PAX@2@I@Z 004273b0 f i BasicSpacecraft.obj
 0001:000263e0       ?allocate@?$allocator@U?$_Tree_node@U?$pair@$$CBV?$basic_string@DU?$char_traits@D@std@@V?$allocator@D@2@@std@@V?$weak_ptr@USpriteData@@@2@@std@@PAX@std@@@std@@QAEPAU?$_Tree_node@U?$pair@$$CBV?$basic_string@DU?$char_traits@D@std@@V?$allocator@D@2@@std@@V?$weak_ptr@USpriteData@@@2@@std@@PAX@2@I@Z 004273e0 f i BasicSpacecraft.obj
 0001:00026410       ?allocate@?$allocator@U?$_Tree_node@U?$pair@$$CBV?$basic_string@DU?$char_traits@D@std@@V?$allocator@D@2@@std@@V?$weak_ptr@VRawImageData@@@2@@std@@PAX@std@@@std@@QAEPAU?$_Tree_node@U?$pair@$$CBV?$basic_string@DU?$char_traits@D@std@@V?$allocator@D@2@@std@@V?$weak_ptr@VRawImageData@@@2@@std@@PAX@2@I@Z 00427410 f i BasicSpacecraft.obj
 0001:00026440       ?allocate@?$allocator@U_Container_proxy@std@@@std@@QAEPAU_Container_proxy@2@I@Z 00427440 f i BasicSpacecraft.obj
 0001:00026470       ?applyForceFromDir@PhysBody@@QAEXVMat22@@N@Z 00427470 f i BasicSpacecraft.obj
 0001:000265b0       ?assign@?$basic_string@DU?$char_traits@D@std@@V?$allocator@D@2@@std@@QAEAAV12@QBD@Z 004275b0 f i BasicSpacecraft.obj
 0001:000265f0       ?assign@?$basic_string@DU?$char_traits@D@std@@V?$allocator@D@2@@std@@QAEAAV12@QBDI@Z 004275f0 f i BasicSpacecraft.obj
 0001:000266a0       ?assign@?$char_traits@D@std@@SAXAADABD@Z 004276a0 f i BasicSpacecraft.obj
 0001:000266c0       ?atan2@@YAOOO@Z            004276c0 f i BasicSpacecraft.obj
 0001:000266f0       ?begin@?$GenericArray@$0A@V?$GenericValue@U?$UTF8@D@rapidjson@@V?$MemoryPoolAllocator@VCrtAllocator@rapidjson@@@2@@rapidjson@@@rapidjson@@QBEPAV?$GenericValue@U?$UTF8@D@rapidjson@@V?$MemoryPoolAllocator@VCrtAllocator@rapidjson@@@2@@2@XZ 004276f0 f i BasicSpacecraft.obj
 0001:00026710       ?begin@?$_Tree@V?$_Tmap_traits@V?$basic_string@DU?$char_traits@D@std@@V?$allocator@D@2@@std@@V?$shared_ptr@VRawImageData@@@2@U?$less@V?$basic_string@DU?$char_traits@D@std@@V?$allocator@D@2@@std@@@2@V?$allocator@U?$pair@$$CBV?$basic_string@DU?$char_traits@D@std@@V?$allocator@D@2@@std@@V?$shared_ptr@VRawImageData@@@2@@std@@@2@$0A@@std@@@std@@QAE?AV?$_Tree_iterator@V?$_Tree_val@U?$_Tree_simple_types@U?$pair@$$CBV?$basic_string@DU?$char_traits@D@std@@V?$allocator@D@2@@std@@V?$shared_ptr@VRawImageData@@@2@@std@@@std@@@std@@@2@XZ 00427710 f i BasicSpacecraft.obj
 0001:00026790       ?begin@?$_Tree@V?$_Tmap_traits@V?$basic_string@DU?$char_traits@D@std@@V?$allocator@D@2@@std@@V?$weak_ptr@USpriteData@@@2@U?$less@V?$basic_string@DU?$char_traits@D@std@@V?$allocator@D@2@@std@@@2@V?$allocator@U?$pair@$$CBV?$basic_string@DU?$char_traits@D@std@@V?$allocator@D@2@@std@@V?$weak_ptr@USpriteData@@@2@@std@@@2@$0A@@std@@@std@@QAE?AV?$_Tree_iterator@V?$_Tree_val@U?$_Tree_simple_types@U?$pair@$$CBV?$basic_string@DU?$char_traits@D@std@@V?$allocator@D@2@@std@@V?$weak_ptr@USpriteData@@@2@@std@@@std@@@std@@@2@XZ 00427790 f i BasicSpacecraft.obj
 0001:00026810       ?begin@?$_Tree@V?$_Tmap_traits@V?$basic_string@DU?$char_traits@D@std@@V?$allocator@D@2@@std@@V?$weak_ptr@VRawImageData@@@2@U?$less@V?$basic_string@DU?$char_traits@D@std@@V?$allocator@D@2@@std@@@2@V?$allocator@U?$pair@$$CBV?$basic_string@DU?$char_traits@D@std@@V?$allocator@D@2@@std@@V?$weak_ptr@VRawImageData@@@2@@std@@@2@$0A@@std@@@std@@QAE?AV?$_Tree_iterator@V?$_Tree_val@U?$_Tree_simple_types@U?$pair@$$CBV?$basic_string@DU?$char_traits@D@std@@V?$allocator@D@2@@std@@V?$weak_ptr@VRawImageData@@@2@@std@@@std@@@std@@@2@XZ 00427810 f i BasicSpacecraft.obj
 0001:00026890       ?bindRotMatrix@FilterPointsRotate@@QAEXPAVMat22@@@Z 00427890 f i BasicSpacecraft.obj
 0001:000268b0       ?bindZoom@FilterPointsZoom@@QAEXPAN@Z 004278b0 f i BasicSpacecraft.obj
 0001:000268d0       ?c_str@?$basic_string@DU?$char_traits@D@std@@V?$allocator@D@2@@std@@QBEPBDXZ 004278d0 f i BasicSpacecraft.obj
 0001:00026930       ?checkWritable@DrawingSurface@@QAEXXZ 00427930 f i BasicSpacecraft.obj
 0001:00026980       ?clear@?$_Tree@V?$_Tmap_traits@V?$basic_string@DU?$char_traits@D@std@@V?$allocator@D@2@@std@@V?$shared_ptr@VRawImageData@@@2@U?$less@V?$basic_string@DU?$char_traits@D@std@@V?$allocator@D@2@@std@@@2@V?$allocator@U?$pair@$$CBV?$basic_string@DU?$char_traits@D@std@@V?$allocator@D@2@@std@@V?$shared_ptr@VRawImageData@@@2@@std@@@2@$0A@@std@@@std@@QAEXXZ 00427980 f i BasicSpacecraft.obj
 0001:00026a40       ?clear@?$_Tree@V?$_Tmap_traits@V?$basic_string@DU?$char_traits@D@std@@V?$allocator@D@2@@std@@V?$weak_ptr@USpriteData@@@2@U?$less@V?$basic_string@DU?$char_traits@D@std@@V?$allocator@D@2@@std@@@2@V?$allocator@U?$pair@$$CBV?$basic_string@DU?$char_traits@D@std@@V?$allocator@D@2@@std@@V?$weak_ptr@USpriteData@@@2@@std@@@2@$0A@@std@@@std@@QAEXXZ 00427a40 f i BasicSpacecraft.obj
 0001:00026b00       ?clear@?$_Tree@V?$_Tmap_traits@V?$basic_string@DU?$char_traits@D@std@@V?$allocator@D@2@@std@@V?$weak_ptr@VRawImageData@@@2@U?$less@V?$basic_string@DU?$char_traits@D@std@@V?$allocator@D@2@@std@@@2@V?$allocator@U?$pair@$$CBV?$basic_string@DU?$char_traits@D@std@@V?$allocator@D@2@@std@@V?$weak_ptr@VRawImageData@@@2@@std@@@2@$0A@@std@@@std@@QAEXXZ 00427b00 f i BasicSpacecraft.obj
 0001:00026bc0       ?clzll@internal@rapidjson@@YAI_K@Z 00427bc0 f i BasicSpacecraft.obj
 0001:00026c50       ?compare@?$basic_string@DU?$char_traits@D@std@@V?$allocator@D@2@@std@@QBEHABV12@@Z 00427c50 f i BasicSpacecraft.obj
 0001:00026cf0       ?compare@?$char_traits@D@std@@SAHQBD0I@Z 00427cf0 f i BasicSpacecraft.obj
 0001:00026d10       ?copy@?$char_traits@D@std@@SAPADQADQBDI@Z 00427d10 f i BasicSpacecraft.obj
 0001:00026d30       ?createSurface@DrawingSurface@@QAEXHH@Z 00427d30 f i BasicSpacecraft.obj
 0001:00026d80       ?data@?$basic_string@DU?$char_traits@D@std@@V?$allocator@D@2@@std@@QBEPBDXZ 00427d80 f i BasicSpacecraft.obj
 0001:00026de0       ?deallocate@?$_Default_allocator_traits@V?$allocator@U?$_Tree_node@U?$pair@$$CBV?$basic_string@DU?$char_traits@D@std@@V?$allocator@D@2@@std@@V?$shared_ptr@VRawImageData@@@2@@std@@PAX@std@@@std@@@std@@SAXAAV?$allocator@U?$_Tree_node@U?$pair@$$CBV?$basic_string@DU?$char_traits@D@std@@V?$allocator@D@2@@std@@V?$shared_ptr@VRawImageData@@@2@@std@@PAX@std@@@2@QAU?$_Tree_node@U?$pair@$$CBV?$basic_string@DU?$char_traits@D@std@@V?$allocator@D@2@@std@@V?$shared_ptr@VRawImageData@@@2@@std@@PAX@2@I@Z 00427de0 f i BasicSpacecraft.obj
 0001:00026e00       ?deallocate@?$_Default_allocator_traits@V?$allocator@U?$_Tree_node@U?$pair@$$CBV?$basic_string@DU?$char_traits@D@std@@V?$allocator@D@2@@std@@V?$weak_ptr@USpriteData@@@2@@std@@PAX@std@@@std@@@std@@SAXAAV?$allocator@U?$_Tree_node@U?$pair@$$CBV?$basic_string@DU?$char_traits@D@std@@V?$allocator@D@2@@std@@V?$weak_ptr@USpriteData@@@2@@std@@PAX@std@@@2@QAU?$_Tree_node@U?$pair@$$CBV?$basic_string@DU?$char_traits@D@std@@V?$allocator@D@2@@std@@V?$weak_ptr@USpriteData@@@2@@std@@PAX@2@I@Z 00427e00 f i BasicSpacecraft.obj
 0001:00026e20       ?deallocate@?$_Default_allocator_traits@V?$allocator@U?$_Tree_node@U?$pair@$$CBV?$basic_string@DU?$char_traits@D@std@@V?$allocator@D@2@@std@@V?$weak_ptr@VRawImageData@@@2@@std@@PAX@std@@@std@@@std@@SAXAAV?$allocator@U?$_Tree_node@U?$pair@$$CBV?$basic_string@DU?$char_traits@D@std@@V?$allocator@D@2@@std@@V?$weak_ptr@VRawImageData@@@2@@std@@PAX@std@@@2@QAU?$_Tree_node@U?$pair@$$CBV?$basic_string@DU?$char_traits@D@std@@V?$allocator@D@2@@std@@V?$weak_ptr@VRawImageData@@@2@@std@@PAX@2@I@Z 00427e20 f i BasicSpacecraft.obj
 0001:00026e40       ?deallocate@?$_Default_allocator_traits@V?$allocator@U_Container_proxy@std@@@std@@@std@@SAXAAV?$allocator@U_Container_proxy@std@@@2@QAU_Container_proxy@2@I@Z 00427e40 f i BasicSpacecraft.obj
 0001:00026e60       ?deallocate@?$allocator@D@std@@QAEXQADI@Z 00427e60 f i BasicSpacecraft.obj
 0001:00026e90       ?deallocate@?$allocator@U?$_Tree_node@U?$pair@$$CBV?$basic_string@DU?$char_traits@D@std@@V?$allocator@D@2@@std@@V?$shared_ptr@VRawImageData@@@2@@std@@PAX@std@@@std@@QAEXQAU?$_Tree_node@U?$pair@$$CBV?$basic_string@DU?$char_traits@D@std@@V?$allocator@D@2@@std@@V?$shared_ptr@VRawImageData@@@2@@std@@PAX@2@I@Z 00427e90 f i BasicSpacecraft.obj
 0001:00026ec0       ?deallocate@?$allocator@U?$_Tree_node@U?$pair@$$CBV?$basic_string@DU?$char_traits@D@std@@V?$allocator@D@2@@std@@V?$weak_ptr@USpriteData@@@2@@std@@PAX@std@@@std@@QAEXQAU?$_Tree_node@U?$pair@$$CBV?$basic_string@DU?$char_traits@D@std@@V?$allocator@D@2@@std@@V?$weak_ptr@USpriteData@@@2@@std@@PAX@2@I@Z 00427ec0 f i BasicSpacecraft.obj
 0001:00026ef0       ?deallocate@?$allocator@U?$_Tree_node@U?$pair@$$CBV?$basic_string@DU?$char_traits@D@std@@V?$allocator@D@2@@std@@V?$weak_ptr@VRawImageData@@@2@@std@@PAX@std@@@std@@QAEXQAU?$_Tree_node@U?$pair@$$CBV?$basic_string@DU?$char_traits@D@std@@V?$allocator@D@2@@std@@V?$weak_ptr@VRawImageData@@@2@@std@@PAX@2@I@Z 00427ef0 f i BasicSpacecraft.obj
 0001:00026f20       ?deleteOnRemoval@DisplayableObject@@UBE_NXZ 00427f20 f i BasicSpacecraft.obj
 0001:00026f40       ?dotproduct@Vec2D@@QBEOABV1@@Z 00427f40 f i BasicSpacecraft.obj
 0001:00026f90       ?draw@AnimatedSprite@@QAEXPAVBaseEngine@@PAVDrawingSurface@@HH@Z 00427f90 f i BasicSpacecraft.obj
 0001:000270b0       ?end@?$GenericArray@$0A@V?$GenericValue@U?$UTF8@D@rapidjson@@V?$MemoryPoolAllocator@VCrtAllocator@rapidjson@@@2@@rapidjson@@@rapidjson@@QBEPAV?$GenericValue@U?$UTF8@D@rapidjson@@V?$MemoryPoolAllocator@VCrtAllocator@rapidjson@@@2@@2@XZ 004280b0 f i BasicSpacecraft.obj
 0001:000270d0       ?end@?$_Tree@V?$_Tmap_traits@V?$basic_string@DU?$char_traits@D@std@@V?$allocator@D@2@@std@@V?$shared_ptr@VRawImageData@@@2@U?$less@V?$basic_string@DU?$char_traits@D@std@@V?$allocator@D@2@@std@@@2@V?$allocator@U?$pair@$$CBV?$basic_string@DU?$char_traits@D@std@@V?$allocator@D@2@@std@@V?$shared_ptr@VRawImageData@@@2@@std@@@2@$0A@@std@@@std@@QAE?AV?$_Tree_iterator@V?$_Tree_val@U?$_Tree_simple_types@U?$pair@$$CBV?$basic_string@DU?$char_traits@D@std@@V?$allocator@D@2@@std@@V?$shared_ptr@VRawImageData@@@2@@std@@@std@@@std@@@2@XZ 004280d0 f i BasicSpacecraft.obj
 0001:00027150       ?end@?$_Tree@V?$_Tmap_traits@V?$basic_string@DU?$char_traits@D@std@@V?$allocator@D@2@@std@@V?$weak_ptr@USpriteData@@@2@U?$less@V?$basic_string@DU?$char_traits@D@std@@V?$allocator@D@2@@std@@@2@V?$allocator@U?$pair@$$CBV?$basic_string@DU?$char_traits@D@std@@V?$allocator@D@2@@std@@V?$weak_ptr@USpriteData@@@2@@std@@@2@$0A@@std@@@std@@QAE?AV?$_Tree_iterator@V?$_Tree_val@U?$_Tree_simple_types@U?$pair@$$CBV?$basic_string@DU?$char_traits@D@std@@V?$allocator@D@2@@std@@V?$weak_ptr@USpriteData@@@2@@std@@@std@@@std@@@2@XZ 00428150 f i BasicSpacecraft.obj
 0001:000271d0       ?end@?$_Tree@V?$_Tmap_traits@V?$basic_string@DU?$char_traits@D@std@@V?$allocator@D@2@@std@@V?$weak_ptr@VRawImageData@@@2@U?$less@V?$basic_string@DU?$char_traits@D@std@@V?$allocator@D@2@@std@@@2@V?$allocator@U?$pair@$$CBV?$basic_string@DU?$char_traits@D@std@@V?$allocator@D@2@@std@@V?$weak_ptr@VRawImageData@@@2@@std@@@2@$0A@@std@@@std@@QAE?AV?$_Tree_iterator@V?$_Tree_val@U?$_Tree_simple_types@U?$pair@$$CBV?$basic_string@DU?$char_traits@D@std@@V?$allocator@D@2@@std@@V?$weak_ptr@VRawImageData@@@2@@std@@@std@@@std@@@2@XZ 004281d0 f i BasicSpacecraft.obj
 0001:00027250       ?eof@?$char_traits@D@std@@SAHXZ 00428250 f i BasicSpacecraft.obj
 0001:00027260       ?eq_int_type@?$char_traits@D@std@@SA_NABH0@Z 00428260 f i BasicSpacecraft.obj
 0001:00027290       ?erase@?$_Tree@V?$_Tmap_traits@V?$basic_string@DU?$char_traits@D@std@@V?$allocator@D@2@@std@@V?$shared_ptr@VRawImageData@@@2@U?$less@V?$basic_string@DU?$char_traits@D@std@@V?$allocator@D@2@@std@@@2@V?$allocator@U?$pair@$$CBV?$basic_string@DU?$char_traits@D@std@@V?$allocator@D@2@@std@@V?$shared_ptr@VRawImageData@@@2@@std@@@2@$0A@@std@@@std@@QAE?AV?$_Tree_iterator@V?$_Tree_val@U?$_Tree_simple_types@U?$pair@$$CBV?$basic_string@DU?$char_traits@D@std@@V?$allocator@D@2@@std@@V?$shared_ptr@VRawImageData@@@2@@std@@@std@@@std@@@2@V?$_Tree_const_iterator@V?$_Tree_val@U?$_Tree_simple_types@U?$pair@$$CBV?$basic_string@DU?$char_traits@D@std@@V?$allocator@D@2@@std@@V?$shared_ptr@VRawImageData@@@2@@std@@@std@@@std@@@2@0@Z 00428290 f i BasicSpacecraft.obj
 0001:00027500       ?erase@?$_Tree@V?$_Tmap_traits@V?$basic_string@DU?$char_traits@D@std@@V?$allocator@D@2@@std@@V?$shared_ptr@VRawImageData@@@2@U?$less@V?$basic_string@DU?$char_traits@D@std@@V?$allocator@D@2@@std@@@2@V?$allocator@U?$pair@$$CBV?$basic_string@DU?$char_traits@D@std@@V?$allocator@D@2@@std@@V?$shared_ptr@VRawImageData@@@2@@std@@@2@$0A@@std@@@std@@QAE?AV?$_Tree_iterator@V?$_Tree_val@U?$_Tree_simple_types@U?$pair@$$CBV?$basic_string@DU?$char_traits@D@std@@V?$allocator@D@2@@std@@V?$shared_ptr@VRawImageData@@@2@@std@@@std@@@std@@@2@V?$_Tree_const_iterator@V?$_Tree_val@U?$_Tree_simple_types@U?$pair@$$CBV?$basic_string@DU?$char_traits@D@std@@V?$allocator@D@2@@std@@V?$shared_ptr@VRawImageData@@@2@@std@@@std@@@std@@@2@@Z 00428500 f i BasicSpacecraft.obj
 0001:000276f0       ?erase@?$_Tree@V?$_Tmap_traits@V?$basic_string@DU?$char_traits@D@std@@V?$allocator@D@2@@std@@V?$weak_ptr@USpriteData@@@2@U?$less@V?$basic_string@DU?$char_traits@D@std@@V?$allocator@D@2@@std@@@2@V?$allocator@U?$pair@$$CBV?$basic_string@DU?$char_traits@D@std@@V?$allocator@D@2@@std@@V?$weak_ptr@USpriteData@@@2@@std@@@2@$0A@@std@@@std@@QAE?AV?$_Tree_iterator@V?$_Tree_val@U?$_Tree_simple_types@U?$pair@$$CBV?$basic_string@DU?$char_traits@D@std@@V?$allocator@D@2@@std@@V?$weak_ptr@USpriteData@@@2@@std@@@std@@@std@@@2@V?$_Tree_const_iterator@V?$_Tree_val@U?$_Tree_simple_types@U?$pair@$$CBV?$basic_string@DU?$char_traits@D@std@@V?$allocator@D@2@@std@@V?$weak_ptr@USpriteData@@@2@@std@@@std@@@std@@@2@0@Z 004286f0 f i BasicSpacecraft.obj
 0001:00027960       ?erase@?$_Tree@V?$_Tmap_traits@V?$basic_string@DU?$char_traits@D@std@@V?$allocator@D@2@@std@@V?$weak_ptr@USpriteData@@@2@U?$less@V?$basic_string@DU?$char_traits@D@std@@V?$allocator@D@2@@std@@@2@V?$allocator@U?$pair@$$CBV?$basic_string@DU?$char_traits@D@std@@V?$allocator@D@2@@std@@V?$weak_ptr@USpriteData@@@2@@std@@@2@$0A@@std@@@std@@QAE?AV?$_Tree_iterator@V?$_Tree_val@U?$_Tree_simple_types@U?$pair@$$CBV?$basic_string@DU?$char_traits@D@std@@V?$allocator@D@2@@std@@V?$weak_ptr@USpriteData@@@2@@std@@@std@@@std@@@2@V?$_Tree_const_iterator@V?$_Tree_val@U?$_Tree_simple_types@U?$pair@$$CBV?$basic_string@DU?$char_traits@D@std@@V?$allocator@D@2@@std@@V?$weak_ptr@USpriteData@@@2@@std@@@std@@@std@@@2@@Z 00428960 f i BasicSpacecraft.obj
 0001:00027b50       ?erase@?$_Tree@V?$_Tmap_traits@V?$basic_string@DU?$char_traits@D@std@@V?$allocator@D@2@@std@@V?$weak_ptr@VRawImageData@@@2@U?$less@V?$basic_string@DU?$char_traits@D@std@@V?$allocator@D@2@@std@@@2@V?$allocator@U?$pair@$$CBV?$basic_string@DU?$char_traits@D@std@@V?$allocator@D@2@@std@@V?$weak_ptr@VRawImageData@@@2@@std@@@2@$0A@@std@@@std@@QAE?AV?$_Tree_iterator@V?$_Tree_val@U?$_Tree_simple_types@U?$pair@$$CBV?$basic_string@DU?$char_traits@D@std@@V?$allocator@D@2@@std@@V?$weak_ptr@VRawImageData@@@2@@std@@@std@@@std@@@2@V?$_Tree_const_iterator@V?$_Tree_val@U?$_Tree_simple_types@U?$pair@$$CBV?$basic_string@DU?$char_traits@D@std@@V?$allocator@D@2@@std@@V?$weak_ptr@VRawImageData@@@2@@std@@@std@@@std@@@2@0@Z 00428b50 f i BasicSpacecraft.obj
 0001:00027dc0       ?erase@?$_Tree@V?$_Tmap_traits@V?$basic_string@DU?$char_traits@D@std@@V?$allocator@D@2@@std@@V?$weak_ptr@VRawImageData@@@2@U?$less@V?$basic_string@DU?$char_traits@D@std@@V?$allocator@D@2@@std@@@2@V?$allocator@U?$pair@$$CBV?$basic_string@DU?$char_traits@D@std@@V?$allocator@D@2@@std@@V?$weak_ptr@VRawImageData@@@2@@std@@@2@$0A@@std@@@std@@QAE?AV?$_Tree_iterator@V?$_Tree_val@U?$_Tree_simple_types@U?$pair@$$CBV?$basic_string@DU?$char_traits@D@std@@V?$allocator@D@2@@std@@V?$weak_ptr@VRawImageData@@@2@@std@@@std@@@std@@@2@V?$_Tree_const_iterator@V?$_Tree_val@U?$_Tree_simple_types@U?$pair@$$CBV?$basic_string@DU?$char_traits@D@std@@V?$allocator@D@2@@std@@V?$weak_ptr@VRawImageData@@@2@@std@@@std@@@std@@@2@@Z 00428dc0 f i BasicSpacecraft.obj
 0001:00027fb0       ?expired@?$weak_ptr@USpriteData@@@std@@QBE_NXZ 00428fb0 f i BasicSpacecraft.obj
 0001:00027ff0       ?expired@?$weak_ptr@VRawImageData@@@std@@QBE_NXZ 00428ff0 f i BasicSpacecraft.obj
 0001:00028030       ?fillSurface@DrawingSurface@@QAEXI@Z 00429030 f i BasicSpacecraft.obj
 0001:000280c0       ?filter@FilterPointsRotate@@UAE_NPAVDrawingSurface@@AAH1AAI@Z 004290c0 f i BasicSpacecraft.obj
 0001:000280f0       ?filter@FilterPointsWithinSurfaceBounds@@UAE_NPAVDrawingSurface@@AAH1AAI@Z 004290f0 f i BasicSpacecraft.obj
 0001:00028150       ?filter@FilterPointsZoom@@UAE_NPAVDrawingSurface@@AAH1AAI@Z 00429150 f i BasicSpacecraft.obj
 0001:00028420       ?filterConvertRealToVirtualXPosition@FilterPoints@@UAEHH@Z 00429420 f i BasicSpacecraft.obj
 0001:00028440       ?filterConvertRealToVirtualYPosition@FilterPoints@@UAEHH@Z 00429440 f i BasicSpacecraft.obj
 0001:00028460       ?filterConvertVirtualToRealXPosition@FilterPoints@@UAEHH@Z 00429460 f i BasicSpacecraft.obj
 0001:00028480       ?filterConvertVirtualToRealYPosition@FilterPoints@@UAEHH@Z 00429480 f i BasicSpacecraft.obj
 0001:000284a0       ?find@?$_Tree@V?$_Tmap_traits@V?$basic_string@DU?$char_traits@D@std@@V?$allocator@D@2@@std@@V?$weak_ptr@USpriteData@@@2@U?$less@V?$basic_string@DU?$char_traits@D@std@@V?$allocator@D@2@@std@@@2@V?$allocator@U?$pair@$$CBV?$basic_string@DU?$char_traits@D@std@@V?$allocator@D@2@@std@@V?$weak_ptr@USpriteData@@@2@@std@@@2@$0A@@std@@@std@@QAE?AV?$_Tree_iterator@V?$_Tree_val@U?$_Tree_simple_types@U?$pair@$$CBV?$basic_string@DU?$char_traits@D@std@@V?$allocator@D@2@@std@@V?$weak_ptr@USpriteData@@@2@@std@@@std@@@std@@@2@ABV?$basic_string@DU?$char_traits@D@std@@V?$allocator@D@2@@2@@Z 004294a0 f i BasicSpacecraft.obj
 0001:00028660       ?find@?$_Tree@V?$_Tmap_traits@V?$basic_string@DU?$char_traits@D@std@@V?$allocator@D@2@@std@@V?$weak_ptr@VRawImageData@@@2@U?$less@V?$basic_string@DU?$char_traits@D@std@@V?$allocator@D@2@@std@@@2@V?$allocator@U?$pair@$$CBV?$basic_string@DU?$char_traits@D@std@@V?$allocator@D@2@@std@@V?$weak_ptr@VRawImageData@@@2@@std@@@2@$0A@@std@@@std@@QAE?AV?$_Tree_iterator@V?$_Tree_val@U?$_Tree_simple_types@U?$pair@$$CBV?$basic_string@DU?$char_traits@D@std@@V?$allocator@D@2@@std@@V?$weak_ptr@VRawImageData@@@2@@std@@@std@@@std@@@2@ABV?$basic_string@DU?$char_traits@D@std@@V?$allocator@D@2@@2@@Z 00429660 f i BasicSpacecraft.obj
 0001:00028820       ?freeSurface@RawImageData@@QAEXXZ 00429820 f i BasicSpacecraft.obj
 0001:00028860       ?get@?$_Ptr_base@USpriteData@@@std@@IBEPAUSpriteData@@XZ 00429860 f i BasicSpacecraft.obj
 0001:00028880       ?get@?$_Ptr_base@VRawImageData@@@std@@IBEPAVRawImageData@@XZ 00429880 f i BasicSpacecraft.obj
 0001:000288a0       ?get@GUIManager@@SAPAV1@XZ 004298a0 f i BasicSpacecraft.obj
 0001:000288b0       ?get@ImageManager@@SAPAV1@XZ 004298b0 f i BasicSpacecraft.obj
 0001:00028960       ?get@SimpleTrig@@SAPAV1@XZ 00429960 f i BasicSpacecraft.obj
 0001:00028970       ?getEngine@DisplayableObject@@QBEPAVBaseEngine@@XZ 00429970 f i BasicSpacecraft.obj
 0001:00028990       ?getForegroundSurface@BaseEngine@@QAEPAVDrawingSurface@@XZ 00429990 f i BasicSpacecraft.obj
 0001:000289b0       ?getHeight@RawImageData@@QBEHXZ 004299b0 f i BasicSpacecraft.obj
 0001:000289d0       ?getHeight@SimpleImage@@QBEHXZ 004299d0 f i BasicSpacecraft.obj
 0001:00028a00       ?getImagePtrbyURL@ImageManager@@QAE?AV?$shared_ptr@VRawImageData@@@std@@V?$basic_string@DU?$char_traits@D@std@@V?$allocator@D@2@@3@_N1@Z 00429a00 f i BasicSpacecraft.obj
 0001:00028e60       ?getImagebyURL@ImageManager@@QAE?AVSimpleImage@@V?$basic_string@DU?$char_traits@D@std@@V?$allocator@D@2@@std@@_N1@Z 00429e60 f i BasicSpacecraft.obj
 0001:00028f30       ?getIntsPerWindowRow@DrawingSurface@@QBEIXZ 00429f30 f i BasicSpacecraft.obj
 0001:00028f50       ?getSpriteData@ImageManager@@QAE?AV?$shared_ptr@USpriteData@@@std@@V?$basic_string@DU?$char_traits@D@std@@V?$allocator@D@2@@3@@Z 00429f50 f i BasicSpacecraft.obj
 0001:00029640       ?getSpriteFromImg@ImageManager@@QAE?AVSimpleImage@@V?$shared_ptr@USpriteData@@@std@@@Z 0042a640 f i BasicSpacecraft.obj
 0001:00029950       ?getSurfaceHeight@DrawingSurface@@QBEHXZ 0042a950 f i BasicSpacecraft.obj
 0001:00029970       ?getSurfaceWidth@DrawingSurface@@QBEHXZ 0042a970 f i BasicSpacecraft.obj
 0001:00029990       ?getTheData@SimpleImage@@QBEABV?$shared_ptr@VRawImageData@@@std@@XZ 0042a990 f i BasicSpacecraft.obj
 0001:000299b0       ?getWidth@RawImageData@@QBEHXZ 0042a9b0 f i BasicSpacecraft.obj
 0001:000299d0       ?getWidth@SimpleImage@@QBEHXZ 0042a9d0 f i BasicSpacecraft.obj
 0001:00029a00       ?getXForRotationAndCrop@RawImageData@@SAHHHHHHH@Z 0042aa00 f i BasicSpacecraft.obj
 0001:00029a70       ?getYForRotationAndCrop@RawImageData@@SAHHHHHHH@Z 0042aa70 f i BasicSpacecraft.obj
 0001:00029ae0       ?infinity@?$numeric_limits@N@std@@SANXZ 0042aae0 f i BasicSpacecraft.obj
 0001:00029af0       ?isVisible@DisplayableObject@@QBE_NXZ 0042aaf0 f i BasicSpacecraft.obj
 0001:00029b10       ?length@?$char_traits@D@std@@SAIQBD@Z 0042ab10 f i BasicSpacecraft.obj
 0001:00029b30       ?loadAsNew@ImageManager@@QAE?AV?$shared_ptr@VRawImageData@@@std@@V?$basic_string@DU?$char_traits@D@std@@V?$allocator@D@2@@3@@Z 0042ab30 f i BasicSpacecraft.obj
 0001:00029d00       ?loadImage@RawImageData@@QAE_NV?$basic_string@DU?$char_traits@D@std@@V?$allocator@D@2@@std@@HHHHH_N@Z 0042ad00 f i BasicSpacecraft.obj
 0001:0002a010       ?lock@?$weak_ptr@USpriteData@@@std@@QBE?AV?$shared_ptr@USpriteData@@@2@XZ 0042b010 f i BasicSpacecraft.obj
 0001:0002a090       ?lock@?$weak_ptr@VRawImageData@@@std@@QBE?AV?$shared_ptr@VRawImageData@@@2@XZ 0042b090 f i BasicSpacecraft.obj
 0001:0002a110       ?lower_bound@?$_Tree@V?$_Tmap_traits@V?$basic_string@DU?$char_traits@D@std@@V?$allocator@D@2@@std@@V?$weak_ptr@USpriteData@@@2@U?$less@V?$basic_string@DU?$char_traits@D@std@@V?$allocator@D@2@@std@@@2@V?$allocator@U?$pair@$$CBV?$basic_string@DU?$char_traits@D@std@@V?$allocator@D@2@@std@@V?$weak_ptr@USpriteData@@@2@@std@@@2@$0A@@std@@@std@@QAE?AV?$_Tree_iterator@V?$_Tree_val@U?$_Tree_simple_types@U?$pair@$$CBV?$basic_string@DU?$char_traits@D@std@@V?$allocator@D@2@@std@@V?$weak_ptr@USpriteData@@@2@@std@@@std@@@std@@@2@ABV?$basic_string@DU?$char_traits@D@std@@V?$allocator@D@2@@2@@Z 0042b110 f i BasicSpacecraft.obj
 0001:0002a170       ?lower_bound@?$_Tree@V?$_Tmap_traits@V?$basic_string@DU?$char_traits@D@std@@V?$allocator@D@2@@std@@V?$weak_ptr@VRawImageData@@@2@U?$less@V?$basic_string@DU?$char_traits@D@std@@V?$allocator@D@2@@std@@@2@V?$allocator@U?$pair@$$CBV?$basic_string@DU?$char_traits@D@std@@V?$allocator@D@2@@std@@V?$weak_ptr@VRawImageData@@@2@@std@@@2@$0A@@std@@@std@@QAE?AV?$_Tree_iterator@V?$_Tree_val@U?$_Tree_simple_types@U?$pair@$$CBV?$basic_string@DU?$char_traits@D@std@@V?$allocator@D@2@@std@@V?$weak_ptr@VRawImageData@@@2@@std@@@std@@@std@@@2@ABV?$basic_string@DU?$char_traits@D@std@@V?$allocator@D@2@@2@@Z 0042b170 f i BasicSpacecraft.obj
 0001:0002a1d0       ?magnitude@Vec2D@@QBEOXZ   0042b1d0 f i BasicSpacecraft.obj
 0001:0002a220       ?max@?$numeric_limits@H@std@@SAHXZ 0042b220 f i BasicSpacecraft.obj
 0001:0002a230       ?max@?$numeric_limits@N@std@@SANXZ 0042b230 f i BasicSpacecraft.obj
 0001:0002a240       ?max_size@?$_Default_allocator_traits@V?$allocator@D@std@@@std@@SAIABV?$allocator@D@2@@Z 0042b240 f i BasicSpacecraft.obj
 0001:0002a250       ?max_size@?$_Default_allocator_traits@V?$allocator@U?$_Tree_node@U?$pair@$$CBV?$basic_string@DU?$char_traits@D@std@@V?$allocator@D@2@@std@@V?$shared_ptr@VRawImageData@@@2@@std@@PAX@std@@@std@@@std@@SAIABV?$allocator@U?$_Tree_node@U?$pair@$$CBV?$basic_string@DU?$char_traits@D@std@@V?$allocator@D@2@@std@@V?$shared_ptr@VRawImageData@@@2@@std@@PAX@std@@@2@@Z 0042b250 f i BasicSpacecraft.obj
 0001:0002a260       ?max_size@?$_Default_allocator_traits@V?$allocator@U?$_Tree_node@U?$pair@$$CBV?$basic_string@DU?$char_traits@D@std@@V?$allocator@D@2@@std@@V?$weak_ptr@USpriteData@@@2@@std@@PAX@std@@@std@@@std@@SAIABV?$allocator@U?$_Tree_node@U?$pair@$$CBV?$basic_string@DU?$char_traits@D@std@@V?$allocator@D@2@@std@@V?$weak_ptr@USpriteData@@@2@@std@@PAX@std@@@2@@Z 0042b260 f i BasicSpacecraft.obj
 0001:0002a270       ?max_size@?$_Default_allocator_traits@V?$allocator@U?$_Tree_node@U?$pair@$$CBV?$basic_string@DU?$char_traits@D@std@@V?$allocator@D@2@@std@@V?$weak_ptr@VRawImageData@@@2@@std@@PAX@std@@@std@@@std@@SAIABV?$allocator@U?$_Tree_node@U?$pair@$$CBV?$basic_string@DU?$char_traits@D@std@@V?$allocator@D@2@@std@@V?$weak_ptr@VRawImageData@@@2@@std@@PAX@std@@@2@@Z 0042b270 f i BasicSpacecraft.obj
 0001:0002a280       ?max_size@?$_Tree@V?$_Tmap_traits@V?$basic_string@DU?$char_traits@D@std@@V?$allocator@D@2@@std@@V?$shared_ptr@VRawImageData@@@2@U?$less@V?$basic_string@DU?$char_traits@D@std@@V?$allocator@D@2@@std@@@2@V?$allocator@U?$pair@$$CBV?$basic_string@DU?$char_traits@D@std@@V?$allocator@D@2@@std@@V?$shared_ptr@VRawImageData@@@2@@std@@@2@$0A@@std@@@std@@QBEIXZ 0042b280 f i BasicSpacecraft.obj
 0001:0002a2b0       ?max_size@?$_Tree@V?$_Tmap_traits@V?$basic_string@DU?$char_traits@D@std@@V?$allocator@D@2@@std@@V?$weak_ptr@USpriteData@@@2@U?$less@V?$basic_string@DU?$char_traits@D@std@@V?$allocator@D@2@@std@@@2@V?$allocator@U?$pair@$$CBV?$basic_string@DU?$char_traits@D@std@@V?$allocator@D@2@@std@@V?$weak_ptr@USpriteData@@@2@@std@@@2@$0A@@std@@@std@@QBEIXZ 0042b2b0 f i BasicSpacecraft.obj
 0001:0002a2e0       ?max_size@?$_Tree@V?$_Tmap_traits@V?$basic_string@DU?$char_traits@D@std@@V?$allocator@D@2@@std@@V?$weak_ptr@VRawImageData@@@2@U?$less@V?$basic_string@DU?$char_traits@D@std@@V?$allocator@D@2@@std@@@2@V?$allocator@U?$pair@$$CBV?$basic_string@DU?$char_traits@D@std@@V?$allocator@D@2@@std@@V?$weak_ptr@VRawImageData@@@2@@std@@@2@$0A@@std@@@std@@QBEIXZ 0042b2e0 f i BasicSpacecraft.obj
 0001:0002a310       ?max_size@?$basic_string@DU?$char_traits@D@std@@V?$allocator@D@2@@std@@QBEIXZ 0042b310 f i BasicSpacecraft.obj
 0001:0002a390       ?move@?$char_traits@D@std@@SAPADQADQBDI@Z 0042b390 f i BasicSpacecraft.obj
 0001:0002a3b0       ?mySDLTempRelockSurface@DrawingSurface@@QAEXXZ 0042b3b0 f i BasicSpacecraft.obj
 0001:0002a400       ?mySDLTempUnlockSurface@DrawingSurface@@QAEXXZ 0042b400 f i BasicSpacecraft.obj
 0001:0002a450       ?pointer_to@?$pointer_traits@PAU?$pair@$$CBV?$basic_string@DU?$char_traits@D@std@@V?$allocator@D@2@@std@@V?$weak_ptr@USpriteData@@@2@@std@@@std@@SAPAU?$pair@$$CBV?$basic_string@DU?$char_traits@D@std@@V?$allocator@D@2@@std@@V?$weak_ptr@USpriteData@@@2@@2@AAU32@@Z 0042b450 f i BasicSpacecraft.obj
 0001:0002a470       ?pointer_to@?$pointer_traits@PAU?$pair@$$CBV?$basic_string@DU?$char_traits@D@std@@V?$allocator@D@2@@std@@V?$weak_ptr@VRawImageData@@@2@@std@@@std@@SAPAU?$pair@$$CBV?$basic_string@DU?$char_traits@D@std@@V?$allocator@D@2@@std@@V?$weak_ptr@VRawImageData@@@2@@2@AAU32@@Z 0042b470 f i BasicSpacecraft.obj
 0001:0002a490       ?quiet_NaN@?$numeric_limits@N@std@@SANXZ 0042b490 f i BasicSpacecraft.obj
 0001:0002a4a0       ?rawSetPixel@DrawingSurface@@QAEXHHI@Z 0042b4a0 f i BasicSpacecraft.obj
 0001:0002a550       ?resetOptions@ImageManager@@QAEXXZ 0042b550 f i BasicSpacecraft.obj
 0001:0002a590       ?rotate@PhysBody@@QAEXN@Z  0042b590 f i BasicSpacecraft.obj
 0001:0002a600       ?rotate@Vec2D@@QAEAAV1@N@Z 0042b600 f i BasicSpacecraft.obj
 0001:0002a720       ?select_on_container_copy_construction@?$_Default_allocator_traits@V?$allocator@D@std@@@std@@SA?AV?$allocator@D@2@ABV32@@Z 0042b720 f i BasicSpacecraft.obj
 0001:0002a730       ?setAlpha@DrawingSurface@@QAEXI@Z 0042b730 f i BasicSpacecraft.obj
 0001:0002a7e0       ?setDrawPointsFilter@DrawingSurface@@QAEXPAVFilterPoints@@@Z 0042b7e0 f i BasicSpacecraft.obj
 0001:0002a800       ?setOpaque@RawImageData@@QAEXXZ 0042b800 f i BasicSpacecraft.obj
 0001:0002a870       ?setPosition@DisplayableObject@@UAEXHH@Z 0042b870 f i BasicSpacecraft.obj
 0001:0002a8b0       ?setSize@DisplayableObject@@QAEXHH@Z 0042b8b0 f i BasicSpacecraft.obj
 0001:0002a8e0       ?setTransparencyColour@SimpleImage@@QAEXH@Z 0042b8e0 f i BasicSpacecraft.obj
 0001:0002a950       ?setTransparentColour@RawImageData@@QAEXI@Z 0042b950 f i BasicSpacecraft.obj
 0001:0002aa70       ?size@?$basic_string@DU?$char_traits@D@std@@V?$allocator@D@2@@std@@QBEIXZ 0042ba70 f i BasicSpacecraft.obj
 0001:0002aa90       ?sqrt@@YAOO@Z              0042ba90 f i BasicSpacecraft.obj
 0001:0002aab0       ?swap@?$shared_ptr@VRawImageData@@@std@@QAEXAAV12@@Z 0042bab0 f i BasicSpacecraft.obj
 0001:0002aad0       ?transform@FilterPointsRotate@@QAEXPAVDrawingSurface@@AAH1AAI@Z 0042bad0 f i BasicSpacecraft.obj
 0001:0002ac90       ?updateShape@CollisionShape@@UAEXABVVec2D@@ABVMat22@@@Z 0042bc90 f i BasicSpacecraft.obj
 0001:0002aca0       ?updateShape@OBB@@UAEXABVVec2D@@ABVMat22@@@Z 0042bca0 f i BasicSpacecraft.obj
 0001:0002af60       ?use_count@?$_Ptr_base@USpriteData@@@std@@QBEJXZ 0042bf60 f i BasicSpacecraft.obj
 0001:0002afa0       ?use_count@?$_Ptr_base@VRawImageData@@@std@@QBEJXZ 0042bfa0 f i BasicSpacecraft.obj
 0001:0002afe0       ?virtIsPositionWithinObject@DisplayableObject@@UAE_NHH@Z 0042bfe0 f i BasicSpacecraft.obj
 0001:0002b070       ?virtKeyDown@DisplayableObject@@UAEXH@Z 0042c070 f i BasicSpacecraft.obj
 0001:0002b080       ?virtKeyUp@DisplayableObject@@UAEXH@Z 0042c080 f i BasicSpacecraft.obj
 0001:0002b090       ?virtMouseDown@DisplayableObject@@UAEXHHH@Z 0042c090 f i BasicSpacecraft.obj
 0001:0002b0a0       ?virtMouseMoved@DisplayableObject@@UAEXHH@Z 0042c0a0 f i BasicSpacecraft.obj
 0001:0002b0b0       ?virtMouseUp@DisplayableObject@@UAEXHHH@Z 0042c0b0 f i BasicSpacecraft.obj
 0001:0002b0c0       ?virtNotify@DisplayableObject@@UAEJHHH@Z 0042c0c0 f i BasicSpacecraft.obj
 0001:0002b0e0       ?virtSingleItemMouseDown@DisplayableObject@@UAE_NHHH@Z 0042c0e0 f i BasicSpacecraft.obj
 0001:0002b100       ___local_stdio_printf_options 0042c100 f i BasicSpacecraft.obj
 0001:0002b110       __vfprintf_l               0042c110 f i BasicSpacecraft.obj
 0001:0002b150       _atan2l                    0042c150 f i BasicSpacecraft.obj
 0001:0002b180       _fabsl                     0042c180 f i BasicSpacecraft.obj
 0001:0002b1a0       _printf                    0042c1a0 f i BasicSpacecraft.obj
 0001:0002b1f0       _sqrtl                     0042c1f0 f i BasicSpacecraft.obj
 0001:0002b210       ??0BuilderUI@@QAE@PAVKSP2D@@@Z 0042c210 f   BuilderUI.obj
 0001:0002b580       ??1BuilderUI@@QAE@XZ       0042c580 f   BuilderUI.obj
 0001:0002b6b0       ?draw@BuilderUI@@QAEXH@Z   0042c6b0 f   BuilderUI.obj
 0001:0002b760       ?addObjectsToEngine@BuilderUI@@QAEXXZ 0042c760 f   BuilderUI.obj
 0001:0002b800       ?update@BuilderUI@@QAEXH@Z 0042c800 f   BuilderUI.obj
 0001:0002b9f0       ?setVisible@BuilderUI@@QAEX_N@Z 0042c9f0 f   BuilderUI.obj
 0001:0002ba50       ?makeShip@BuilderUI@@QAEPAVSpacecraft@@PAVKSP2D@@ABVVec2D@@1PAV4@@Z 0042ca50 f   BuilderUI.obj
 0001:0002baa0       ?drawShipInfo@BuilderUI@@QAEXPAVDrawingSurface@@@Z 0042caa0 f   BuilderUI.obj
 0001:0002c180       ?saveShip@BuilderUI@@QAEXXZ 0042d180 f   BuilderUI.obj
 0001:0002c2f0       ?loadShip@BuilderUI@@QAEXXZ 0042d2f0 f   BuilderUI.obj
 0001:0002c880       ?stringifyPartData@BuilderUI@@QAE?AV?$basic_string@DU?$char_traits@D@std@@V?$allocator@D@2@@std@@PAUPartData@@H@Z 0042d880 f   BuilderUI.obj
 0001:0002cb60       ?recursivelyAddParts@BuilderUI@@QAE_NAAV?$GenericValue@U?$UTF8@D@rapidjson@@V?$MemoryPoolAllocator@VCrtAllocator@rapidjson@@@2@@rapidjson@@W4Side@RocketPart@@PAV5@PAVSpacecraftParts@@AAV?$vector@PAVRocketPart@@V?$allocator@PAVRocketPart@@@std@@@std@@@Z 0042db60 f   BuilderUI.obj
 0001:0002d4d0       ??$?0$$V@?$_Compressed_pair@V?$allocator@PAVRocketPart@@@std@@V?$_Vector_val@U?$_Simple_types@PAVRocketPart@@@std@@@2@$00@std@@QAE@U_Zero_then_variadic_args_t@1@@Z 0042e4d0 f i BuilderUI.obj
 0001:0002d500       ??$?0AAPAV_Facet_base@std@@@?$_Compressed_pair@U?$default_delete@V_Facet_base@std@@@std@@PAV_Facet_base@2@$00@std@@QAE@U_Zero_then_variadic_args_t@1@AAPAV_Facet_base@1@@Z 0042e500 f i BuilderUI.obj
 0001:0002d620       ??$?0ABV?$allocator@D@std@@$$V@?$_Compressed_pair@V?$allocator@D@std@@V?$_String_val@U?$_Simple_types@D@std@@@2@$00@std@@QAE@U_One_then_variadic_args_t@1@ABV?$allocator@D@1@@Z 0042e620 f i BuilderUI.obj
 0001:0002d650       ??$?0ABV?$allocator@D@std@@X@?$_String_alloc@U?$_String_base_types@DV?$allocator@D@std@@@std@@@std@@QAE@ABV?$allocator@D@1@@Z 0042e650 f i BuilderUI.obj
 0001:0002d6e0       ??$?0PADX@?$basic_string@DU?$char_traits@D@std@@V?$allocator@D@2@@std@@QAE@PAD0ABV?$allocator@D@1@@Z 0042e6e0 f i BuilderUI.obj
 0001:0002d7a0       ??$?0PAVRocketPart@@@?$allocator@U_Container_proxy@std@@@std@@QAE@ABV?$allocator@PAVRocketPart@@@1@@Z 0042e7a0 f i BuilderUI.obj
 0001:0002d7c0       ??$?0PAV_Facet_base@std@@@?$_Unique_ptr_base@V_Facet_base@std@@U?$default_delete@V_Facet_base@std@@@2@@std@@QAE@PAV_Facet_base@1@@Z 0042e7c0 f i BuilderUI.obj
 0001:0002d7f0       ??$?0U?$default_delete@V_Facet_base@std@@@std@@$0A@@?$unique_ptr@V_Facet_base@std@@U?$default_delete@V_Facet_base@std@@@2@@std@@QAE@PAV_Facet_base@1@@Z 0042e7f0 f i BuilderUI.obj
 0001:0002dac0       ??$?A$$CBD@?$GenericObject@$0A@V?$GenericValue@U?$UTF8@D@rapidjson@@V?$MemoryPoolAllocator@VCrtAllocator@rapidjson@@@2@@rapidjson@@@rapidjson@@QBEAAV?$GenericValue@U?$UTF8@D@rapidjson@@V?$MemoryPoolAllocator@VCrtAllocator@rapidjson@@@2@@1@PBD@Z 0042eac0 f i BuilderUI.obj
 0001:0002daf0       ??$?HDU?$char_traits@D@std@@V?$allocator@D@1@@std@@YA?AV?$basic_string@DU?$char_traits@D@std@@V?$allocator@D@2@@0@$$QAV10@0@Z 0042eaf0 f i BuilderUI.obj
 0001:0002dbd0       ??$?HDU?$char_traits@D@std@@V?$allocator@D@1@@std@@YA?AV?$basic_string@DU?$char_traits@D@std@@V?$allocator@D@2@@0@$$QAV10@QBD@Z 0042ebd0 f i BuilderUI.obj
 0001:0002dc20       ??$?HDU?$char_traits@D@std@@V?$allocator@D@1@@std@@YA?AV?$basic_string@DU?$char_traits@D@std@@V?$allocator@D@2@@0@QBD$$QAV10@@Z 0042ec20 f i BuilderUI.obj
 0001:0002dc70       ??$_Adl_verify_range1@PADPAD@std@@YAXABQAD0U?$integral_constant@_N$00@0@@Z 0042ec70 f i BuilderUI.obj
 0001:0002dc90       ??$_Adl_verify_range1@PAPAVRocketPart@@PAPAV1@@std@@YAXABQAPAVRocketPart@@0U?$integral_constant@_N$00@0@@Z 0042ec90 f i BuilderUI.obj
 0001:0002dcb0       ??$_Adl_verify_range1@V?$_Vector_iterator@V?$_Vector_val@U?$_Simple_types@PAVDisplayableObject@@@std@@@std@@@std@@V12@@std@@YAXABV?$_Vector_iterator@V?$_Vector_val@U?$_Simple_types@PAVDisplayableObject@@@std@@@std@@@0@0U?$integral_constant@_N$00@0@@Z 0042ecb0 f i BuilderUI.obj
 0001:0002dcd0       ??$_Adl_verify_range@PADPAD@std@@YAXABQAD0@Z 0042ecd0 f i BuilderUI.obj
 0001:0002dd00       ??$_Adl_verify_range@PAPAVRocketPart@@PAPAV1@@std@@YAXABQAPAVRocketPart@@0@Z 0042ed00 f i BuilderUI.obj
 0001:0002dd30       ??$_Adl_verify_range@V?$_Vector_iterator@V?$_Vector_val@U?$_Simple_types@PAVDisplayableObject@@@std@@@std@@@std@@V12@@std@@YAXABV?$_Vector_iterator@V?$_Vector_val@U?$_Simple_types@PAVDisplayableObject@@@std@@@std@@@0@0@Z 0042ed30 f i BuilderUI.obj
 0001:0002dd60       ??$_Advance1@PAPAVRocketPart@@H@std@@YAXAAPAPAVRocketPart@@HUrandom_access_iterator_tag@0@@Z 0042ed60 f i BuilderUI.obj
 0001:0002dd80       ??$_Assign_range@PAPAVRocketPart@@@?$vector@PAVRocketPart@@V?$allocator@PAVRocketPart@@@std@@@std@@AAEXPAPAVRocketPart@@0Uforward_iterator_tag@1@@Z 0042ed80 f i BuilderUI.obj
 0001:0002e060       ??$_Const_cast@QAVDisplayableObject@@@std@@YA@PBQAVDisplayableObject@@@Z 0042f060 f i BuilderUI.obj
 0001:0002e070       ??$_Copy_memmove@PAPAVDisplayableObject@@PAPAV1@@std@@YAPAPAVDisplayableObject@@PAPAV1@00@Z 0042f070 f i BuilderUI.obj
 0001:0002e0c0       ??$_Copy_memmove@PAPAVRocketPart@@PAPAV1@@std@@YAPAPAVRocketPart@@PAPAV1@00@Z 0042f0c0 f i BuilderUI.obj
 0001:0002e110       ??$_Copy_unchecked1@PAPAVRocketPart@@PAPAV1@@std@@YAPAPAVRocketPart@@PAPAV1@00U_Trivially_copyable_ptr_iterator_tag@0@@Z 0042f110 f i BuilderUI.obj
 0001:0002e130       ??$_Copy_unchecked@PAPAVRocketPart@@PAPAV1@@std@@YAPAPAVRocketPart@@PAPAV1@00@Z 0042f130 f i BuilderUI.obj
 0001:0002e180       ??$_Deallocate@$03$0A@@std@@YAXPAXI@Z 0042f180 f i BuilderUI.obj
 0001:0002e1c0       ??$_Destroy_range1@V?$allocator@PAVDisplayableObject@@@std@@@std@@YAXPAPAVDisplayableObject@@0AAV?$allocator@PAVDisplayableObject@@@0@U?$integral_constant@_N$00@0@@Z 0042f1c0 f i BuilderUI.obj
 0001:0002e1d0       ??$_Destroy_range1@V?$allocator@PAVRocketPart@@@std@@@std@@YAXPAPAVRocketPart@@0AAV?$allocator@PAVRocketPart@@@0@U?$integral_constant@_N$00@0@@Z 0042f1d0 f i BuilderUI.obj
 0001:0002e1e0       ??$_Destroy_range@V?$allocator@PAVDisplayableObject@@@std@@@std@@YAXPAPAVDisplayableObject@@0AAV?$allocator@PAVDisplayableObject@@@0@@Z 0042f1e0 f i BuilderUI.obj
 0001:0002e210       ??$_Destroy_range@V?$allocator@PAVRocketPart@@@std@@@std@@YAXPAPAVRocketPart@@0AAV?$allocator@PAVRocketPart@@@0@@Z 0042f210 f i BuilderUI.obj
 0001:0002e240       ??$_Distance1@PAPAVRocketPart@@@std@@YAHPAPAVRocketPart@@0Urandom_access_iterator_tag@0@@Z 0042f240 f i BuilderUI.obj
 0001:0002e260       ??$_Emplace_back_with_unused_capacity@ABQAVDisplayableObject@@@?$vector@PAVDisplayableObject@@V?$allocator@PAVDisplayableObject@@@std@@@std@@AAE@ABQAVDisplayableObject@@@Z 0042f260 f i BuilderUI.obj
 0001:0002e310       ??$_Emplace_back_with_unused_capacity@ABQAVRocketPart@@@?$vector@PAVRocketPart@@V?$allocator@PAVRocketPart@@@std@@@std@@AAE@ABQAVRocketPart@@@Z 0042f310 f i BuilderUI.obj
 0001:0002e3c0       ??$_Emplace_reallocate@ABQAVDisplayableObject@@@?$vector@PAVDisplayableObject@@V?$allocator@PAVDisplayableObject@@@std@@@std@@QAEPAPAVDisplayableObject@@QAPAV2@ABQAV2@@Z 0042f3c0 f i BuilderUI.obj
 0001:0002e610       ??$_Emplace_reallocate@ABQAVRocketPart@@@?$vector@PAVRocketPart@@V?$allocator@PAVRocketPart@@@std@@@std@@QAEPAPAVRocketPart@@QAPAV2@ABQAV2@@Z 0042f610 f i BuilderUI.obj
 0001:0002e860       ??$_Fgetc@D@std@@YA_NAADPAU_iobuf@@@Z 0042f860 f i BuilderUI.obj
 0001:0002e8a0       ??$_Find_unchecked1@PAPAVDisplayableObject@@PAV1@@std@@YAPAPAVDisplayableObject@@PAPAV1@QAPAV1@ABQAV1@U?$integral_constant@_N$0A@@0@@Z 0042f8a0 f i BuilderUI.obj
 0001:0002e8e0       ??$_Find_unchecked@PAPAVDisplayableObject@@PAV1@@std@@YAPAPAVDisplayableObject@@QAPAV1@0ABQAV1@@Z 0042f8e0 f i BuilderUI.obj
 0001:0002e910       ??$_Floating_to_string@M@std@@YA?AV?$basic_string@DU?$char_traits@D@std@@V?$allocator@D@2@@0@PBDM@Z 0042f910 f i BuilderUI.obj
 0001:0002ea10       ??$_Fputc@D@std@@YA_NDPAU_iobuf@@@Z 0042fa10 f i BuilderUI.obj
 0001:0002ea50       ??$_Get_size_of_n@$03@std@@YAII@Z 0042fa50 f i BuilderUI.obj
 0001:0002ea90       ??$_Get_unwrapped@D@std@@YAPADQAD@Z 0042fa90 f i BuilderUI.obj
 0001:0002eaa0       ??$_Get_unwrapped@PAVDisplayableObject@@@std@@YAPAPAVDisplayableObject@@QAPAV1@@Z 0042faa0 f i BuilderUI.obj
 0001:0002eab0       ??$_Get_unwrapped@PAVRocketPart@@@std@@YAPAPAVRocketPart@@QAPAV1@@Z 0042fab0 f i BuilderUI.obj
 0001:0002eac0       ??$_Get_unwrapped@V?$_Vector_iterator@V?$_Vector_val@U?$_Simple_types@PAVDisplayableObject@@@std@@@std@@@std@@$0A@@std@@YA@ABV?$_Vector_iterator@V?$_Vector_val@U?$_Simple_types@PAVDisplayableObject@@@std@@@std@@@0@@Z 0042fac0 f i BuilderUI.obj
 0001:0002ead0       ??$_Get_unwrapped_n@PAVDisplayableObject@@H$0A@@std@@YAPAPAVDisplayableObject@@QAPAV1@H@Z 0042fad0 f i BuilderUI.obj
 0001:0002eae0       ??$_Get_unwrapped_n@PAVRocketPart@@H$0A@@std@@YAPAPAVRocketPart@@QAPAV1@H@Z 0042fae0 f i BuilderUI.obj
 0001:0002eaf0       ??$_Idl_distance1@PAPAVDisplayableObject@@PAPAV1@@std@@YAHABQAPAVDisplayableObject@@0Urandom_access_iterator_tag@0@@Z 0042faf0 f i BuilderUI.obj
 0001:0002eb10       ??$_Idl_distance1@PAPAVRocketPart@@PAPAV1@@std@@YAHABQAPAVRocketPart@@0Urandom_access_iterator_tag@0@@Z 0042fb10 f i BuilderUI.obj
 0001:0002eb30       ??$_Idl_distance@PAPAVDisplayableObject@@PAPAV1@@std@@YA@ABQAPAVDisplayableObject@@0@Z 0042fb30 f i BuilderUI.obj
 0001:0002eb60       ??$_Idl_distance@PAPAVRocketPart@@PAPAV1@@std@@YA@ABQAPAVRocketPart@@0@Z 0042fb60 f i BuilderUI.obj
 0001:0002eb90       ??$_Integral_to_string@DH@std@@YA?AV?$basic_string@DU?$char_traits@D@std@@V?$allocator@D@2@@0@H@Z 0042fb90 f i BuilderUI.obj
 0001:0002ec60       ??$_Integral_to_string@DI@std@@YA?AV?$basic_string@DU?$char_traits@D@std@@V?$allocator@D@2@@0@I@Z 0042fc60 f i BuilderUI.obj
 0001:0002ed30       ??$_Max_value@PAD@std@@YAABQADABQAD0@Z 0042fd30 f i BuilderUI.obj
 0001:0002ed70       ??$_Move_unchecked1@PAPAVDisplayableObject@@PAPAV1@@std@@YAPAPAVDisplayableObject@@PAPAV1@00U_Trivially_copyable_ptr_iterator_tag@0@@Z 0042fd70 f i BuilderUI.obj
 0001:0002ed90       ??$_Move_unchecked@PAPAVDisplayableObject@@PAPAV1@@std@@YAPAPAVDisplayableObject@@PAPAV1@00@Z 0042fd90 f i BuilderUI.obj
 0001:0002ede0       ??$_Pocca@V?$allocator@PAVRocketPart@@@std@@@std@@YAXAAV?$allocator@PAVRocketPart@@@0@ABV10@@Z 0042fde0 f i BuilderUI.obj
 0001:0002ee10       ??$_Pocca@V?$allocator@PAVRocketPart@@@std@@@std@@YAXAAV?$allocator@PAVRocketPart@@@0@ABV10@U?$integral_constant@_N$0A@@0@@Z 0042fe10 f i BuilderUI.obj
 0001:0002ee20       ??$_Ptr_copy_cat@PAVRocketPart@@PAV1@@std@@YA?AU_Really_trivial_ptr_iterator_tag@0@ABQAPAVRocketPart@@0@Z 0042fe20 f i BuilderUI.obj
 0001:0002ee30       ??$_Ptr_move_cat@PAVDisplayableObject@@PAV1@@std@@YA?AU_Really_trivial_ptr_iterator_tag@0@ABQAPAVDisplayableObject@@0@Z 0042fe30 f i BuilderUI.obj
 0001:0002ee40       ??$_Ptr_move_cat@PAVRocketPart@@PAV1@@std@@YA?AU_Really_trivial_ptr_iterator_tag@0@ABQAPAVRocketPart@@0@Z 0042fe40 f i BuilderUI.obj
 0001:0002ee50       ??$_Reallocate_for@V<lambda_c6753c90be971fc9cc00b4f35f237a75>@@D@?$basic_string@DU?$char_traits@D@std@@V?$allocator@D@2@@std@@QAEAAV01@IV<lambda_c6753c90be971fc9cc00b4f35f237a75>@@D@Z 0042fe50 f i BuilderUI.obj
 0001:0002ef70       ??$_Reallocate_grow_by@V<lambda_15711c68e099a15a58f4d77303cb286d>@@D@?$basic_string@DU?$char_traits@D@std@@V?$allocator@D@2@@std@@QAEAAV01@IV<lambda_15711c68e099a15a58f4d77303cb286d>@@D@Z 0042ff70 f i BuilderUI.obj
 0001:0002f0f0       ??$_Reallocate_grow_by@V<lambda_4d79bb85f269e6e8002a4599002d832c>@@IPBDI@?$basic_string@DU?$char_traits@D@std@@V?$allocator@D@2@@std@@QAEAAV01@IV<lambda_4d79bb85f269e6e8002a4599002d832c>@@IPBDI@Z 004300f0 f i BuilderUI.obj
 0001:0002f280       ??$_Reallocate_grow_by@V<lambda_6607a66f2a10a1261ff9db96cba1015b>@@IID@?$basic_string@DU?$char_traits@D@std@@V?$allocator@D@2@@std@@QAEAAV01@IV<lambda_6607a66f2a10a1261ff9db96cba1015b>@@IID@Z 00430280 f i BuilderUI.obj
 0001:0002f410       ??$_Reallocate_grow_by@V<lambda_ab246b20b9526e2ef7792587e4298a77>@@PBDI@?$basic_string@DU?$char_traits@D@std@@V?$allocator@D@2@@std@@QAEAAV01@IV<lambda_ab246b20b9526e2ef7792587e4298a77>@@PBDI@Z 00430410 f i BuilderUI.obj
 0001:0002f590       ??$_Refancy@PAD$0A@@std@@YAPADPAD@Z 00430590 f i BuilderUI.obj
 0001:0002f7b0       ??$_Seek_wrapped@PAVDisplayableObject@@@std@@YAXAAPAPAVDisplayableObject@@QAPAV1@@Z 004307b0 f i BuilderUI.obj
 0001:0002f7c0       ??$_Seek_wrapped@PAVRocketPart@@@std@@YAXAAPAPAVRocketPart@@QAPAV1@@Z 004307c0 f i BuilderUI.obj
 0001:0002f7d0       ??$_Seek_wrapped@V?$_Vector_iterator@V?$_Vector_val@U?$_Simple_types@PAVDisplayableObject@@@std@@@std@@@std@@PAPAVDisplayableObject@@$0A@@std@@YAXAAV?$_Vector_iterator@V?$_Vector_val@U?$_Simple_types@PAVDisplayableObject@@@std@@@std@@@0@ABQAPAVDisplayableObject@@@Z 004307d0 f i BuilderUI.obj
 0001:0002f880       ??$_UIntegral_to_buff@DI@std@@YAPADPADI@Z 00430880 f i BuilderUI.obj
 0001:0002f970       ??$_Ucopy@PAPAVRocketPart@@@?$vector@PAVRocketPart@@V?$allocator@PAVRocketPart@@@std@@@std@@AAEPAPAVRocketPart@@PAPAV2@00@Z 00430970 f i BuilderUI.obj
 0001:0002f9b0       ??$_Unfancy@$$CBD@std@@YAPBDPBD@Z 004309b0 f i BuilderUI.obj
 0001:0002f9c0       ??$_Unfancy@PAVDisplayableObject@@@std@@YAPAPAVDisplayableObject@@PAPAV1@@Z 004309c0 f i BuilderUI.obj
 0001:0002f9d0       ??$_Unfancy@PAVRocketPart@@@std@@YAPAPAVRocketPart@@PAPAV1@@Z 004309d0 f i BuilderUI.obj
 0001:0002f9e0       ??$_Ungetc@D@std@@YA_NABDPAU_iobuf@@@Z 004309e0 f i BuilderUI.obj
 0001:0002fa30       ??$_Uninitialized_copy@PAPAVRocketPart@@PAPAV1@V?$allocator@PAVRocketPart@@@std@@@std@@YAPAPAVRocketPart@@QAPAV1@0PAPAV1@AAV?$allocator@PAVRocketPart@@@0@@Z 00430a30 f i BuilderUI.obj
 0001:0002faf0       ??$_Uninitialized_copy_al_unchecked@PAVRocketPart@@PAV1@V?$allocator@PAVRocketPart@@@std@@@std@@YAPAPAVRocketPart@@QAPAV1@00AAV?$allocator@PAVRocketPart@@@0@U_Really_trivial_ptr_iterator_tag@0@U?$integral_constant@_N$00@0@@Z 00430af0 f i BuilderUI.obj
 0001:0002fb10       ??$_Uninitialized_move@PAPAVDisplayableObject@@PAPAV1@V?$allocator@PAVDisplayableObject@@@std@@@std@@YAPAPAVDisplayableObject@@QAPAV1@0PAPAV1@AAV?$allocator@PAVDisplayableObject@@@0@@Z 00430b10 f i BuilderUI.obj
 0001:0002fbd0       ??$_Uninitialized_move@PAPAVRocketPart@@PAPAV1@V?$allocator@PAVRocketPart@@@std@@@std@@YAPAPAVRocketPart@@QAPAV1@0PAPAV1@AAV?$allocator@PAVRocketPart@@@0@@Z 00430bd0 f i BuilderUI.obj
 0001:0002fc90       ??$_Uninitialized_move_al_unchecked@PAVDisplayableObject@@PAV1@V?$allocator@PAVDisplayableObject@@@std@@@std@@YAPAPAVDisplayableObject@@QAPAV1@00AAV?$allocator@PAVDisplayableObject@@@0@U_Really_trivial_ptr_iterator_tag@0@U?$integral_constant@_N$00@0@@Z 00430c90 f i BuilderUI.obj
 0001:0002fcb0       ??$_Uninitialized_move_al_unchecked@PAVRocketPart@@PAV1@V?$allocator@PAVRocketPart@@@std@@@std@@YAPAPAVRocketPart@@QAPAV1@00AAV?$allocator@PAVRocketPart@@@0@U_Really_trivial_ptr_iterator_tag@0@U?$integral_constant@_N$00@0@@Z 00430cb0 f i BuilderUI.obj
 0001:0002fcd0       ??$_Verify_range@D@std@@YAXQBD0@Z 00430cd0 f i BuilderUI.obj
 0001:0002fd50       ??$_Verify_range@PAVRocketPart@@@std@@YAXQBQAVRocketPart@@0@Z 00430d50 f i BuilderUI.obj
 0001:0002fe00       ??$addressof@$$CBV?$codecvt@DDU_Mbstatet@@@std@@@std@@YAPBV?$codecvt@DDU_Mbstatet@@@0@ABV10@@Z 00430e00 f i BuilderUI.obj
 0001:0002fe10       ??$addressof@$$CBV?$vector@PAVRocketPart@@V?$allocator@PAVRocketPart@@@std@@@std@@@std@@YAPBV?$vector@PAVRocketPart@@V?$allocator@PAVRocketPart@@@std@@@0@ABV10@@Z 00430e10 f i BuilderUI.obj
 0001:0002fe20       ??$addressof@D@std@@YAPADAAD@Z 00430e20 f i BuilderUI.obj
 0001:0002fe30       ??$addressof@V?$_Vector_val@U?$_Simple_types@PAVDisplayableObject@@@std@@@std@@@std@@YAPAV?$_Vector_val@U?$_Simple_types@PAVDisplayableObject@@@std@@@0@AAV10@@Z 00430e30 f i BuilderUI.obj
 0001:0002fe40       ??$addressof@V?$_Vector_val@U?$_Simple_types@PAVRocketPart@@@std@@@std@@@std@@YAPAV?$_Vector_val@U?$_Simple_types@PAVRocketPart@@@std@@@0@AAV10@@Z 00430e40 f i BuilderUI.obj
 0001:0002fe50       ??$advance@PAPAVRocketPart@@H@std@@YAXAAPAPAVRocketPart@@H@Z 00430e50 f i BuilderUI.obj
 0001:0002fe80       ??$assign@PAPAVRocketPart@@X@?$vector@PAVRocketPart@@V?$allocator@PAVRocketPart@@@std@@@std@@QAEXPAPAVRocketPart@@0@Z 00430e80 f i BuilderUI.obj
 0001:0002fee0       ??$construct@PAVDisplayableObject@@ABQAV1@@?$_Default_allocator_traits@V?$allocator@PAVDisplayableObject@@@std@@@std@@SAXAAV?$allocator@PAVDisplayableObject@@@1@QAPAVDisplayableObject@@ABQAV3@@Z 00430ee0 f i BuilderUI.obj
 0001:0002ff20       ??$construct@PAVRocketPart@@ABQAV1@@?$_Default_allocator_traits@V?$allocator@PAVRocketPart@@@std@@@std@@SAXAAV?$allocator@PAVRocketPart@@@1@QAPAVRocketPart@@ABQAV3@@Z 00430f20 f i BuilderUI.obj
 0001:0002ff60       ??$destroy@PAVDisplayableObject@@@?$_Default_allocator_traits@V?$allocator@PAVDisplayableObject@@@std@@@std@@SAXAAV?$allocator@PAVDisplayableObject@@@1@QAPAVDisplayableObject@@@Z 00430f60 f i BuilderUI.obj
 0001:0002ff70       ??$distance@PAPAVRocketPart@@@std@@YAHPAPAVRocketPart@@0@Z 00430f70 f i BuilderUI.obj
 0001:0002ffa0       ??$emplace_back@ABQAVDisplayableObject@@@?$vector@PAVDisplayableObject@@V?$allocator@PAVDisplayableObject@@@std@@@std@@QAE@ABQAVDisplayableObject@@@Z 00430fa0 f i BuilderUI.obj
 0001:00030010       ??$emplace_back@ABQAVRocketPart@@@?$vector@PAVRocketPart@@V?$allocator@PAVRocketPart@@@std@@@std@@QAE@ABQAVRocketPart@@@Z 00431010 f i BuilderUI.obj
 0001:00030080       ??$end@D$0BF@@std@@YAPADAAY0BF@D@Z 00431080 f i BuilderUI.obj
 0001:00030090       ??$find@V?$_Vector_iterator@V?$_Vector_val@U?$_Simple_types@PAVDisplayableObject@@@std@@@std@@@std@@PAVDisplayableObject@@@std@@YA?AV?$_Vector_iterator@V?$_Vector_val@U?$_Simple_types@PAVDisplayableObject@@@std@@@std@@@0@V10@V10@ABQAVDisplayableObject@@@Z 00431090 f i BuilderUI.obj
 0001:00030180       ??$forward@AAPAV_Facet_base@std@@@std@@YAAAPAV_Facet_base@0@AAPAV10@@Z 00431180 f i BuilderUI.obj
 0001:000301c0       ??$forward@ABQAVDisplayableObject@@@std@@YAABQAVDisplayableObject@@ABQAV1@@Z 004311c0 f i BuilderUI.obj
 0001:000301d0       ??$forward@ABQAVRocketPart@@@std@@YAABQAVRocketPart@@ABQAV1@@Z 004311d0 f i BuilderUI.obj
 0001:00030210       ??$forward@ABV?$allocator@D@std@@@std@@YAABV?$allocator@D@0@ABV10@@Z 00431210 f i BuilderUI.obj
 0001:000302e0       ??$move@AAV?$function@$$A6AXV?$basic_string@DU?$char_traits@D@std@@V?$allocator@D@2@@std@@@Z@std@@@std@@YA$$QAV?$function@$$A6AXV?$basic_string@DU?$char_traits@D@std@@V?$allocator@D@2@@std@@@Z@0@AAV10@@Z 004312e0 f i BuilderUI.obj
 0001:000302f0       ??$move@AAV?$function@$$A6AXXZ@std@@@std@@YA$$QAV?$function@$$A6AXXZ@0@AAV10@@Z 004312f0 f i BuilderUI.obj
 0001:00030300       ??$next@PAPAVRocketPart@@@std@@YAPAPAVRocketPart@@PAPAV1@H@Z 00431300 f i BuilderUI.obj
 0001:00030320       ??$use_facet@V?$codecvt@DDU_Mbstatet@@@std@@@std@@YAABV?$codecvt@DDU_Mbstatet@@@0@ABVlocale@0@@Z 00431320 f i BuilderUI.obj
 0001:000304f0       ??0?$GenericObject@$0A@V?$GenericValue@U?$UTF8@D@rapidjson@@V?$MemoryPoolAllocator@VCrtAllocator@rapidjson@@@2@@rapidjson@@@rapidjson@@AAE@AAV?$GenericValue@U?$UTF8@D@rapidjson@@V?$MemoryPoolAllocator@VCrtAllocator@rapidjson@@@2@@1@@Z 004314f0 f i BuilderUI.obj
 0001:00030510       ??0?$_Func_base@X$$V@std@@QAE@XZ 00431510 f i BuilderUI.obj
 0001:00030530       ??0?$_Func_class@X$$V@std@@QAE@XZ 00431530 f i BuilderUI.obj
 0001:00030550       ??0?$_Func_class@XV?$basic_string@DU?$char_traits@D@std@@V?$allocator@D@2@@std@@@std@@QAE@XZ 00431550 f i BuilderUI.obj
 0001:00030570       ??0?$_String_const_iterator@V?$_String_val@U?$_Simple_types@D@std@@@std@@@std@@QAE@PBDPBU_Container_base12@1@@Z 00431570 f i BuilderUI.obj
 0001:000305b0       ??0?$_String_iterator@V?$_String_val@U?$_Simple_types@D@std@@@std@@@std@@QAE@PADPBU_Container_base12@1@@Z 004315b0 f i BuilderUI.obj
 0001:000305e0       ??0?$_Vector_alloc@U?$_Vec_base_types@PAVRocketPart@@V?$allocator@PAVRocketPart@@@std@@@std@@@std@@QAE@XZ 004315e0 f i BuilderUI.obj
 0001:00030610       ??0?$_Vector_const_iterator@V?$_Vector_val@U?$_Simple_types@PAVDisplayableObject@@@std@@@std@@@std@@QAE@$$QAV01@@Z 00431610 f i BuilderUI.obj
 0001:00030650       ??0?$_Vector_const_iterator@V?$_Vector_val@U?$_Simple_types@PAVDisplayableObject@@@std@@@std@@@std@@QAE@ABV01@@Z 00431650 f i BuilderUI.obj
 0001:00030690       ??0?$_Vector_const_iterator@V?$_Vector_val@U?$_Simple_types@PAVDisplayableObject@@@std@@@std@@@std@@QAE@PAPAVDisplayableObject@@PBU_Container_base12@1@@Z 00431690 f i BuilderUI.obj
 0001:000306d0       ??0?$_Vector_iterator@V?$_Vector_val@U?$_Simple_types@PAVDisplayableObject@@@std@@@std@@@std@@QAE@$$QAV01@@Z 004316d0 f i BuilderUI.obj
 0001:00030700       ??0?$_Vector_iterator@V?$_Vector_val@U?$_Simple_types@PAVDisplayableObject@@@std@@@std@@@std@@QAE@PAPAVDisplayableObject@@PBU_Container_base12@1@@Z 00431700 f i BuilderUI.obj
 0001:00030730       ??0?$_Vector_val@U?$_Simple_types@PAVRocketPart@@@std@@@std@@QAE@XZ 00431730 f i BuilderUI.obj
 0001:00030780       ??0?$allocator@PAVRocketPart@@@std@@QAE@XZ 00431780 f i BuilderUI.obj
 0001:000307a0       ??0?$basic_filebuf@DU?$char_traits@D@std@@@std@@QAE@PAU_iobuf@@@Z 004317a0 f i BuilderUI.obj
 0001:00030830       ??0?$basic_ofstream@DU?$char_traits@D@std@@@std@@QAE@XZ 00431830 f i BuilderUI.obj
 0001:00030930       ??0?$basic_string@DU?$char_traits@D@std@@V?$allocator@D@2@@std@@QAE@ABV?$allocator@D@1@@Z 00431930 f i BuilderUI.obj
 0001:000309a0       ??0?$basic_string@DU?$char_traits@D@std@@V?$allocator@D@2@@std@@QAE@ID@Z 004319a0 f i BuilderUI.obj
 0001:00030a30       ??0?$basic_stringbuf@DU?$char_traits@D@std@@V?$allocator@D@2@@std@@QAE@H@Z 00431a30 f i BuilderUI.obj
 0001:00030ae0       ??0?$basic_stringstream@DU?$char_traits@D@std@@V?$allocator@D@2@@std@@QAE@H@Z 00431ae0 f i BuilderUI.obj
 0001:00030bf0       ??0?$fpos@U_Mbstatet@@@std@@QAE@U_Mbstatet@@_J@Z 00431bf0 f i BuilderUI.obj
 0001:00030c40       ??0?$fpos@U_Mbstatet@@@std@@QAE@_J@Z 00431c40 f i BuilderUI.obj
 0001:00030c90       ??0?$function@$$A6AXV?$basic_string@DU?$char_traits@D@std@@V?$allocator@D@2@@std@@@Z@std@@QAE@$$QAV01@@Z 00431c90 f i BuilderUI.obj
 0001:00030d10       ??0?$function@$$A6AXV?$basic_string@DU?$char_traits@D@std@@V?$allocator@D@2@@std@@@Z@std@@QAE@$$T@Z 00431d10 f i BuilderUI.obj
 0001:00030d30       ??0?$function@$$A6AXXZ@std@@QAE@$$QAV01@@Z 00431d30 f i BuilderUI.obj
 0001:00030db0       ??0?$vector@PAVRocketPart@@V?$allocator@PAVRocketPart@@@std@@@std@@QAE@XZ 00431db0 f i BuilderUI.obj
 0001:00030e00       ??0GUIButton@@QAE@PAVKSP2D@@PBDHHHHV?$function@$$A6AXXZ@std@@@Z 00431e00 f i BuilderUI.obj
 0001:00031000       ??0GUITextbox@@QAE@PAVKSP2D@@PBDHHHV?$function@$$A6AXV?$basic_string@DU?$char_traits@D@std@@V?$allocator@D@2@@std@@@Z@std@@@Z 00432000 f i BuilderUI.obj
 0001:00031190       ??0SimpleImage@@QAE@ABV0@@Z 00432190 f i BuilderUI.obj
 0001:000311e0       ??0bad_cast@std@@QAE@ABV01@@Z 004321e0 f i BuilderUI.obj
 0001:00031210       ??0bad_cast@std@@QAE@XZ    00432210 f i BuilderUI.obj
 0001:00031240       ??0exception@std@@QAE@ABV01@@Z 00432240 f i BuilderUI.obj
 0001:00031290       ??0exception@std@@QAE@QBDH@Z 00432290 f i BuilderUI.obj
 0001:000312d0       ??1?$GenericObject@$0A@V?$GenericValue@U?$UTF8@D@rapidjson@@V?$MemoryPoolAllocator@VCrtAllocator@rapidjson@@@2@@rapidjson@@@rapidjson@@QAE@XZ 004322d0 f i BuilderUI.obj
 0001:000312e0       ??1?$_Func_class@X$$V@std@@QAE@XZ 004322e0 f i BuilderUI.obj
 0001:00031300       ??1?$_Func_class@XV?$basic_string@DU?$char_traits@D@std@@V?$allocator@D@2@@std@@@std@@QAE@XZ 00432300 f i BuilderUI.obj
 0001:00031320       ??1?$_String_const_iterator@V?$_String_val@U?$_Simple_types@D@std@@@std@@@std@@QAE@XZ 00432320 f i BuilderUI.obj
 0001:00031340       ??1?$_String_iterator@V?$_String_val@U?$_Simple_types@D@std@@@std@@@std@@QAE@XZ 00432340 f i BuilderUI.obj
 0001:00031360       ??1?$_Vector_alloc@U?$_Vec_base_types@PAVRocketPart@@V?$allocator@PAVRocketPart@@@std@@@std@@@std@@QAE@XZ 00432360 f i BuilderUI.obj
 0001:000313b0       ??1?$_Vector_const_iterator@V?$_Vector_val@U?$_Simple_types@PAVDisplayableObject@@@std@@@std@@@std@@QAE@XZ 004323b0 f i BuilderUI.obj
 0001:000313d0       ??1?$_Vector_iterator@V?$_Vector_val@U?$_Simple_types@PAVDisplayableObject@@@std@@@std@@@std@@QAE@XZ 004323d0 f i BuilderUI.obj
 0001:000313f0       ??1?$basic_filebuf@DU?$char_traits@D@std@@@std@@UAE@XZ 004323f0 f i BuilderUI.obj
 0001:00031480       ??1?$basic_ofstream@DU?$char_traits@D@std@@@std@@UAE@XZ 00432480 f i BuilderUI.obj
 0001:000314f0       ??1?$basic_stringbuf@DU?$char_traits@D@std@@V?$allocator@D@2@@std@@UAE@XZ 004324f0 f i BuilderUI.obj
 0001:00031560       ??1?$basic_stringstream@DU?$char_traits@D@std@@V?$allocator@D@2@@std@@UAE@XZ 00432560 f i BuilderUI.obj
 0001:000315d0       ??1?$function@$$A6AXV?$basic_string@DU?$char_traits@D@std@@V?$allocator@D@2@@std@@@Z@std@@QAE@XZ 004325d0 f i BuilderUI.obj
 0001:000315f0       ??1?$function@$$A6AXXZ@std@@QAE@XZ 004325f0 f i BuilderUI.obj
 0001:00031610       ??1?$unique_ptr@V_Facet_base@std@@U?$default_delete@V_Facet_base@std@@@2@@std@@QAE@XZ 00432610 f i BuilderUI.obj
 0001:00031650       ??1?$vector@PAVRocketPart@@V?$allocator@PAVRocketPart@@@std@@@std@@QAE@XZ 00432650 f i BuilderUI.obj
 0001:000316b0       ??1GUIButton@@UAE@XZ       004326b0 f i BuilderUI.obj
 0001:00031760       ??1GUITextbox@@UAE@XZ      00432760 f i BuilderUI.obj
 0001:00031800       ??1bad_cast@std@@UAE@XZ    00432800 f i BuilderUI.obj
 0001:00031820       ??1exception@std@@UAE@XZ   00432820 f i BuilderUI.obj
 0001:00031850       ??1locale@std@@QAE@XZ      00432850 f i BuilderUI.obj
 0001:000318f0       ??4?$vector@PAVRocketPart@@V?$allocator@PAVRocketPart@@@std@@@std@@QAEAAV01@ABV01@@Z 004328f0 f i BuilderUI.obj
 0001:00031970       ??8?$_Vector_const_iterator@V?$_Vector_val@U?$_Simple_types@PAVDisplayableObject@@@std@@@std@@@std@@QBE_NABV01@@Z 00432970 f i BuilderUI.obj
 0001:000319c0       ??9?$_Vector_const_iterator@V?$_Vector_val@U?$_Simple_types@PAVDisplayableObject@@@std@@@std@@@std@@QBE_NABV01@@Z 004329c0 f i BuilderUI.obj
 0001:00031a10       ??A?$basic_string@DU?$char_traits@D@std@@V?$allocator@D@2@@std@@QAEAADI@Z 00432a10 f i BuilderUI.obj
 0001:00031ab0       ??A?$vector@PAVRocketPart@@V?$allocator@PAVRocketPart@@@std@@@std@@QAEAAPAVRocketPart@@I@Z 00432ab0 f i BuilderUI.obj
 0001:00031b50       ??B?$fpos@U_Mbstatet@@@std@@QBE_JXZ 00432b50 f i BuilderUI.obj
 0001:00031b80       ??D?$_String_const_iterator@V?$_String_val@U?$_Simple_types@D@std@@@std@@@std@@QBEABDXZ 00432b80 f i BuilderUI.obj
 0001:00031d30       ??D?$_String_iterator@V?$_String_val@U?$_Simple_types@D@std@@@std@@@std@@QBEAADXZ 00432d30 f i BuilderUI.obj
 0001:00031d50       ??R<lambda_15711c68e099a15a58f4d77303cb286d>@@QBE@QADQBDID@Z 00432d50 f i BuilderUI.obj
 0001:00031dc0       ??R<lambda_4d79bb85f269e6e8002a4599002d832c>@@QBE@QADQBDII1I@Z 00432dc0 f i BuilderUI.obj
 0001:00031e40       ??R<lambda_6607a66f2a10a1261ff9db96cba1015b>@@QBE@QADQBDIIID@Z 00432e40 f i BuilderUI.obj
 0001:00031ee0       ??R<lambda_ab246b20b9526e2ef7792587e4298a77>@@QBE@QADQBDI1I@Z 00432ee0 f i BuilderUI.obj
 0001:00031f70       ??R<lambda_c6753c90be971fc9cc00b4f35f237a75>@@QBE@QADID@Z 00432f70 f i BuilderUI.obj
 0001:00031fe0       ??R?$_Func_class@X$$V@std@@QBEXXZ 00432fe0 f i BuilderUI.obj
 0001:00032030       ??R?$default_delete@V_Facet_base@std@@@std@@QBEXPAV_Facet_base@1@@Z 00433030 f i BuilderUI.obj
 0001:00032080       ??Y?$basic_string@DU?$char_traits@D@std@@V?$allocator@D@2@@std@@QAEAAV01@ABV01@@Z 00433080 f i BuilderUI.obj
 0001:000320a0       ??Y?$basic_string@DU?$char_traits@D@std@@V?$allocator@D@2@@std@@QAEAAV01@QBD@Z 004330a0 f i BuilderUI.obj
 0001:000320c0       ??_D?$basic_ofstream@DU?$char_traits@D@std@@@std@@QAEXXZ 004330c0 f i BuilderUI.obj
 0001:000320f0       ??_D?$basic_stringstream@DU?$char_traits@D@std@@V?$allocator@D@2@@std@@QAEXXZ 004330f0 f i BuilderUI.obj
 0001:0003211a       ??_E?$basic_ofstream@DU?$char_traits@D@std@@@std@@$4PPPPPPPM@A@AEPAXI@Z 0043311a f i BuilderUI.obj
 0001:00032124       ??_E?$basic_stringstream@DU?$char_traits@D@std@@V?$allocator@D@2@@std@@$4PPPPPPPM@A@AEPAXI@Z 00433124 f i BuilderUI.obj
 0001:00032130       ??_G?$basic_filebuf@DU?$char_traits@D@std@@@std@@UAEPAXI@Z 00433130 f i BuilderUI.obj
 0001:00032130       ??_E?$basic_filebuf@DU?$char_traits@D@std@@@std@@UAEPAXI@Z 00433130 f i BuilderUI.obj
 0001:00032170       ??_E?$basic_ofstream@DU?$char_traits@D@std@@@std@@UAEPAXI@Z 00433170 f i BuilderUI.obj
 0001:00032170       ??_G?$basic_ofstream@DU?$char_traits@D@std@@@std@@UAEPAXI@Z 00433170 f i BuilderUI.obj
 0001:000321c0       ??_E?$basic_stringbuf@DU?$char_traits@D@std@@V?$allocator@D@2@@std@@UAEPAXI@Z 004331c0 f i BuilderUI.obj
 0001:000321c0       ??_G?$basic_stringbuf@DU?$char_traits@D@std@@V?$allocator@D@2@@std@@UAEPAXI@Z 004331c0 f i BuilderUI.obj
 0001:00032200       ??_E?$basic_stringstream@DU?$char_traits@D@std@@V?$allocator@D@2@@std@@UAEPAXI@Z 00433200 f i BuilderUI.obj
 0001:00032200       ??_G?$basic_stringstream@DU?$char_traits@D@std@@V?$allocator@D@2@@std@@UAEPAXI@Z 00433200 f i BuilderUI.obj
 0001:00032250       ??_EGUIButton@@UAEPAXI@Z   00433250 f i BuilderUI.obj
 0001:00032250       ??_GGUIButton@@UAEPAXI@Z   00433250 f i BuilderUI.obj
 0001:00032290       ??_EGUITextbox@@UAEPAXI@Z  00433290 f i BuilderUI.obj
 0001:00032290       ??_GGUITextbox@@UAEPAXI@Z  00433290 f i BuilderUI.obj
 0001:000322d0       ??_GRocketPart@@QAEPAXI@Z  004332d0 f i BuilderUI.obj
 0001:00032310       ??_GSimpleImage@@QAEPAXI@Z 00433310 f i BuilderUI.obj
 0001:00032350       ??_GSpacecraftParts@@QAEPAXI@Z 00433350 f i BuilderUI.obj
 0001:00032390       ??_Ebad_cast@std@@UAEPAXI@Z 00433390 f i BuilderUI.obj
 0001:00032390       ??_Gbad_cast@std@@UAEPAXI@Z 00433390 f i BuilderUI.obj
 0001:000323d0       ??_Eexception@std@@UAEPAXI@Z 004333d0 f i BuilderUI.obj
 0001:000323d0       ??_Gexception@std@@UAEPAXI@Z 004333d0 f i BuilderUI.obj
 0001:00032410       ?GetObject@?$GenericValue@U?$UTF8@D@rapidjson@@V?$MemoryPoolAllocator@VCrtAllocator@rapidjson@@@2@@rapidjson@@QAE?AV?$GenericObject@$0A@V?$GenericValue@U?$UTF8@D@rapidjson@@V?$MemoryPoolAllocator@VCrtAllocator@rapidjson@@@2@@rapidjson@@@2@XZ 00433410 f i BuilderUI.obj
 0001:00032480       ?_Alloc_proxy@?$_Vector_alloc@U?$_Vec_base_types@PAVRocketPart@@V?$allocator@PAVRocketPart@@@std@@@std@@@std@@QAEXXZ 00433480 f i BuilderUI.obj
 0001:00032520       ?_Buy@?$vector@PAVRocketPart@@V?$allocator@PAVRocketPart@@@std@@@std@@AAE_NI@Z 00433520 f i BuilderUI.obj
 0001:000325f0       ?_Calculate_growth@?$vector@PAVDisplayableObject@@V?$allocator@PAVDisplayableObject@@@std@@@std@@ABEII@Z 004335f0 f i BuilderUI.obj
 0001:00032660       ?_Calculate_growth@?$vector@PAVRocketPart@@V?$allocator@PAVRocketPart@@@std@@@std@@ABEII@Z 00433660 f i BuilderUI.obj
 0001:000326d0       ?_Change_array@?$vector@PAVDisplayableObject@@V?$allocator@PAVDisplayableObject@@@std@@@std@@AAEXQAPAVDisplayableObject@@II@Z 004336d0 f i BuilderUI.obj
 0001:00032790       ?_Change_array@?$vector@PAVRocketPart@@V?$allocator@PAVRocketPart@@@std@@@std@@AAEXQAPAVRocketPart@@II@Z 00433790 f i BuilderUI.obj
 0001:00032850       ?_Check_offset@?$_String_val@U?$_Simple_types@D@std@@@std@@QBEXI@Z 00433850 f i BuilderUI.obj
 0001:00032880       ?_Clamp_suffix_size@?$_String_val@U?$_Simple_types@D@std@@@std@@QBEIII@Z 00433880 f i BuilderUI.obj
 0001:00032980       ?_Compat@?$_Vector_const_iterator@V?$_Vector_val@U?$_Simple_types@PAVDisplayableObject@@@std@@@std@@@std@@QBEXABV12@@Z 00433980 f i BuilderUI.obj
 0001:00032a20       ?_Construct@?$basic_string@DU?$char_traits@D@std@@V?$allocator@D@2@@std@@QAEXQAD0Urandom_access_iterator_tag@2@@Z 00433a20 f i BuilderUI.obj
 0001:00032af0       ?_Copy_alloc@?$_Vector_alloc@U?$_Vec_base_types@PAVRocketPart@@V?$allocator@PAVRocketPart@@@std@@@std@@@std@@QAEXABV?$allocator@PAVRocketPart@@@2@@Z 00433af0 f i BuilderUI.obj
 0001:00032c60       ?_Destroy@?$vector@PAVDisplayableObject@@V?$allocator@PAVDisplayableObject@@@std@@@std@@AAEXPAPAVDisplayableObject@@0@Z 00433c60 f i BuilderUI.obj
 0001:00032c90       ?_Destroy@?$vector@PAVRocketPart@@V?$allocator@PAVRocketPart@@@std@@@std@@AAEXPAPAVRocketPart@@0@Z 00433c90 f i BuilderUI.obj
 0001:00032d20       ?_Empty@?$_Func_class@X$$V@std@@IBE_NXZ 00433d20 f i BuilderUI.obj
 0001:00032d60       ?_Empty@?$_Func_class@XV?$basic_string@DU?$char_traits@D@std@@V?$allocator@D@2@@std@@@std@@IBE_NXZ 00433d60 f i BuilderUI.obj
 0001:00032da0       ?_Endwrite@?$basic_filebuf@DU?$char_traits@D@std@@@std@@IAE_NXZ 00433da0 f i BuilderUI.obj
 0001:00032f00       ?_Eos@?$basic_string@DU?$char_traits@D@std@@V?$allocator@D@2@@std@@QAEXI@Z 00433f00 f i BuilderUI.obj
 0001:00032f50       ?_Free_proxy@?$_Vector_alloc@U?$_Vec_base_types@PAVRocketPart@@V?$allocator@PAVRocketPart@@@std@@@std@@@std@@QAEXXZ 00433f50 f i BuilderUI.obj
 0001:00033030       ?_Get_data@?$_Vector_alloc@U?$_Vec_base_types@PAVDisplayableObject@@V?$allocator@PAVDisplayableObject@@@std@@@std@@@std@@QAEAAV?$_Vector_val@U?$_Simple_types@PAVDisplayableObject@@@std@@@2@XZ 00434030 f i BuilderUI.obj
 0001:00033050       ?_Get_data@?$_Vector_alloc@U?$_Vec_base_types@PAVDisplayableObject@@V?$allocator@PAVDisplayableObject@@@std@@@std@@@std@@QBEABV?$_Vector_val@U?$_Simple_types@PAVDisplayableObject@@@std@@@2@XZ 00434050 f i BuilderUI.obj
 0001:00033070       ?_Get_data@?$_Vector_alloc@U?$_Vec_base_types@PAVRocketPart@@V?$allocator@PAVRocketPart@@@std@@@std@@@std@@QAEAAV?$_Vector_val@U?$_Simple_types@PAVRocketPart@@@std@@@2@XZ 00434070 f i BuilderUI.obj
 0001:00033090       ?_Get_data@?$_Vector_alloc@U?$_Vec_base_types@PAVRocketPart@@V?$allocator@PAVRocketPart@@@std@@@std@@@std@@QBEABV?$_Vector_val@U?$_Simple_types@PAVRocketPart@@@std@@@2@XZ 00434090 f i BuilderUI.obj
 0001:000330b0       ?_Get_first@?$_Compressed_pair@U?$default_delete@V_Facet_base@std@@@std@@PAV_Facet_base@2@$00@std@@QAEAAU?$default_delete@V_Facet_base@std@@@2@XZ 004340b0 f i BuilderUI.obj
 0001:000330d0       ?_Get_first@?$_Compressed_pair@V?$allocator@PAVDisplayableObject@@@std@@V?$_Vector_val@U?$_Simple_types@PAVDisplayableObject@@@std@@@2@$00@std@@QAEAAV?$allocator@PAVDisplayableObject@@@2@XZ 004340d0 f i BuilderUI.obj
 0001:000330f0       ?_Get_first@?$_Compressed_pair@V?$allocator@PAVDisplayableObject@@@std@@V?$_Vector_val@U?$_Simple_types@PAVDisplayableObject@@@std@@@2@$00@std@@QBEABV?$allocator@PAVDisplayableObject@@@2@XZ 004340f0 f i BuilderUI.obj
 0001:00033110       ?_Get_first@?$_Compressed_pair@V?$allocator@PAVRocketPart@@@std@@V?$_Vector_val@U?$_Simple_types@PAVRocketPart@@@std@@@2@$00@std@@QAEAAV?$allocator@PAVRocketPart@@@2@XZ 00434110 f i BuilderUI.obj
 0001:00033130       ?_Get_first@?$_Compressed_pair@V?$allocator@PAVRocketPart@@@std@@V?$_Vector_val@U?$_Simple_types@PAVRocketPart@@@std@@@2@$00@std@@QBEABV?$allocator@PAVRocketPart@@@2@XZ 00434130 f i BuilderUI.obj
 0001:00033150       ?_Get_second@?$_Compressed_pair@U?$default_delete@V_Facet_base@std@@@std@@PAV_Facet_base@2@$00@std@@QAEAAPAV_Facet_base@2@XZ 00434150 f i BuilderUI.obj
 0001:00033170       ?_Get_second@?$_Compressed_pair@U?$default_delete@V_Facet_base@std@@@std@@PAV_Facet_base@2@$00@std@@QBEABQAV_Facet_base@2@XZ 00434170 f i BuilderUI.obj
 0001:00033190       ?_Get_second@?$_Compressed_pair@V?$allocator@PAVDisplayableObject@@@std@@V?$_Vector_val@U?$_Simple_types@PAVDisplayableObject@@@std@@@2@$00@std@@QAEAAV?$_Vector_val@U?$_Simple_types@PAVDisplayableObject@@@std@@@2@XZ 00434190 f i BuilderUI.obj
 0001:000331b0       ?_Get_second@?$_Compressed_pair@V?$allocator@PAVDisplayableObject@@@std@@V?$_Vector_val@U?$_Simple_types@PAVDisplayableObject@@@std@@@2@$00@std@@QBEABV?$_Vector_val@U?$_Simple_types@PAVDisplayableObject@@@std@@@2@XZ 004341b0 f i BuilderUI.obj
 0001:000331d0       ?_Get_second@?$_Compressed_pair@V?$allocator@PAVRocketPart@@@std@@V?$_Vector_val@U?$_Simple_types@PAVRocketPart@@@std@@@2@$00@std@@QAEAAV?$_Vector_val@U?$_Simple_types@PAVRocketPart@@@std@@@2@XZ 004341d0 f i BuilderUI.obj
 0001:000331f0       ?_Get_second@?$_Compressed_pair@V?$allocator@PAVRocketPart@@@std@@V?$_Vector_val@U?$_Simple_types@PAVRocketPart@@@std@@@2@$00@std@@QBEABV?$_Vector_val@U?$_Simple_types@PAVRocketPart@@@std@@@2@XZ 004341f0 f i BuilderUI.obj
 0001:00033210       ?_Getal@?$_Vector_alloc@U?$_Vec_base_types@PAVDisplayableObject@@V?$allocator@PAVDisplayableObject@@@std@@@std@@@std@@QAEAAV?$allocator@PAVDisplayableObject@@@2@XZ 00434210 f i BuilderUI.obj
 0001:00033230       ?_Getal@?$_Vector_alloc@U?$_Vec_base_types@PAVDisplayableObject@@V?$allocator@PAVDisplayableObject@@@std@@@std@@@std@@QBEABV?$allocator@PAVDisplayableObject@@@2@XZ 00434230 f i BuilderUI.obj
 0001:00033250       ?_Getal@?$_Vector_alloc@U?$_Vec_base_types@PAVRocketPart@@V?$allocator@PAVRocketPart@@@std@@@std@@@std@@QAEAAV?$allocator@PAVRocketPart@@@2@XZ 00434250 f i BuilderUI.obj
 0001:00033270       ?_Getal@?$_Vector_alloc@U?$_Vec_base_types@PAVRocketPart@@V?$allocator@PAVRocketPart@@@std@@@std@@@std@@QBEABV?$allocator@PAVRocketPart@@@2@XZ 00434270 f i BuilderUI.obj
 0001:00033290       ?_Getfacet@locale@std@@QBEPBVfacet@12@I@Z 00434290 f i BuilderUI.obj
 0001:00033340       ?_Getimpl@?$_Func_class@X$$V@std@@ABEPAV?$_Func_base@X$$V@2@XZ 00434340 f i BuilderUI.obj
 0001:00033360       ?_Getimpl@?$_Func_class@XV?$basic_string@DU?$char_traits@D@std@@V?$allocator@D@2@@std@@@std@@ABEPAV?$_Func_base@XV?$basic_string@DU?$char_traits@D@std@@V?$allocator@D@2@@std@@@2@XZ 00434360 f i BuilderUI.obj
 0001:00033380       ?_Getpfirst@?$_Vector_alloc@U?$_Vec_base_types@PAVDisplayableObject@@V?$allocator@PAVDisplayableObject@@@std@@@std@@@std@@QBEPAPAU_Iterator_base12@2@XZ 00434380 f i BuilderUI.obj
 0001:000333a0       ?_Getpfirst@?$_Vector_alloc@U?$_Vec_base_types@PAVRocketPart@@V?$allocator@PAVRocketPart@@@std@@@std@@@std@@QBEPAPAU_Iterator_base12@2@XZ 004343a0 f i BuilderUI.obj
 0001:000333c0       ?_Getspace@?$_Func_class@X$$V@std@@AAEPAXXZ 004343c0 f i BuilderUI.obj
 0001:000333e0       ?_Getspace@?$_Func_class@X$$V@std@@ABEPBXXZ 004343e0 f i BuilderUI.obj
 0001:00033400       ?_Getspace@?$_Func_class@XV?$basic_string@DU?$char_traits@D@std@@V?$allocator@D@2@@std@@@std@@AAEPAXXZ 00434400 f i BuilderUI.obj
 0001:00033420       ?_Getspace@?$_Func_class@XV?$basic_string@DU?$char_traits@D@std@@V?$allocator@D@2@@std@@@std@@ABEPBXXZ 00434420 f i BuilderUI.obj
 0001:00033440       ?_Getstate@?$basic_stringbuf@DU?$char_traits@D@std@@V?$allocator@D@2@@std@@CAHH@Z 00434440 f i BuilderUI.obj
 0001:000334b0       ?_Has_unused_capacity@?$vector@PAVDisplayableObject@@V?$allocator@PAVDisplayableObject@@@std@@@std@@ABE_NXZ 004344b0 f i BuilderUI.obj
 0001:00033500       ?_Has_unused_capacity@?$vector@PAVRocketPart@@V?$allocator@PAVRocketPart@@@std@@@std@@ABE_NXZ 00434500 f i BuilderUI.obj
 0001:00033550       ?_Init@?$basic_filebuf@DU?$char_traits@D@std@@@std@@IAEXPAU_iobuf@@W4_Initfl@12@@Z 00434550 f i BuilderUI.obj
 0001:00033650       ?_Initcvt@?$basic_filebuf@DU?$char_traits@D@std@@@std@@IAEXABV?$codecvt@DDU_Mbstatet@@@2@@Z 00434650 f i BuilderUI.obj
 0001:000336b0       ?_Local@?$_Func_class@X$$V@std@@ABE_NXZ 004346b0 f i BuilderUI.obj
 0001:00033700       ?_Local@?$_Func_class@XV?$basic_string@DU?$char_traits@D@std@@V?$allocator@D@2@@std@@@std@@ABE_NXZ 00434700 f i BuilderUI.obj
 0001:00033750       ?_Lock@?$basic_filebuf@DU?$char_traits@D@std@@@std@@UAEXXZ 00434750 f i BuilderUI.obj
 0001:00033870       ?_Myend@?$_Vector_alloc@U?$_Vec_base_types@PAVDisplayableObject@@V?$allocator@PAVDisplayableObject@@@std@@@std@@@std@@QAEAAPAPAVDisplayableObject@@XZ 00434870 f i BuilderUI.obj
 0001:00033890       ?_Myend@?$_Vector_alloc@U?$_Vec_base_types@PAVDisplayableObject@@V?$allocator@PAVDisplayableObject@@@std@@@std@@@std@@QBEABQAPAVDisplayableObject@@XZ 00434890 f i BuilderUI.obj
 0001:000338b0       ?_Myend@?$_Vector_alloc@U?$_Vec_base_types@PAVRocketPart@@V?$allocator@PAVRocketPart@@@std@@@std@@@std@@QAEAAPAPAVRocketPart@@XZ 004348b0 f i BuilderUI.obj
 0001:000338d0       ?_Myend@?$_Vector_alloc@U?$_Vec_base_types@PAVRocketPart@@V?$allocator@PAVRocketPart@@@std@@@std@@@std@@QBEABQAPAVRocketPart@@XZ 004348d0 f i BuilderUI.obj
 0001:000338f0       ?_Myfirst@?$_Vector_alloc@U?$_Vec_base_types@PAVDisplayableObject@@V?$allocator@PAVDisplayableObject@@@std@@@std@@@std@@QAEAAPAPAVDisplayableObject@@XZ 004348f0 f i BuilderUI.obj
 0001:00033910       ?_Myfirst@?$_Vector_alloc@U?$_Vec_base_types@PAVDisplayableObject@@V?$allocator@PAVDisplayableObject@@@std@@@std@@@std@@QBEABQAPAVDisplayableObject@@XZ 00434910 f i BuilderUI.obj
 0001:00033930       ?_Myfirst@?$_Vector_alloc@U?$_Vec_base_types@PAVRocketPart@@V?$allocator@PAVRocketPart@@@std@@@std@@@std@@QAEAAPAPAVRocketPart@@XZ 00434930 f i BuilderUI.obj
 0001:00033950       ?_Myfirst@?$_Vector_alloc@U?$_Vec_base_types@PAVRocketPart@@V?$allocator@PAVRocketPart@@@std@@@std@@@std@@QBEABQAPAVRocketPart@@XZ 00434950 f i BuilderUI.obj
 0001:00033970       ?_Mylast@?$_Vector_alloc@U?$_Vec_base_types@PAVDisplayableObject@@V?$allocator@PAVDisplayableObject@@@std@@@std@@@std@@QAEAAPAPAVDisplayableObject@@XZ 00434970 f i BuilderUI.obj
 0001:00033990       ?_Mylast@?$_Vector_alloc@U?$_Vec_base_types@PAVDisplayableObject@@V?$allocator@PAVDisplayableObject@@@std@@@std@@@std@@QBEABQAPAVDisplayableObject@@XZ 00434990 f i BuilderUI.obj
 0001:000339b0       ?_Mylast@?$_Vector_alloc@U?$_Vec_base_types@PAVRocketPart@@V?$allocator@PAVRocketPart@@@std@@@std@@@std@@QAEAAPAPAVRocketPart@@XZ 004349b0 f i BuilderUI.obj
 0001:000339d0       ?_Mylast@?$_Vector_alloc@U?$_Vec_base_types@PAVRocketPart@@V?$allocator@PAVRocketPart@@@std@@@std@@@std@@QBEABQAPAVRocketPart@@XZ 004349d0 f i BuilderUI.obj
 0001:000339f0       ?_Myproxy@?$_Vector_alloc@U?$_Vec_base_types@PAVRocketPart@@V?$allocator@PAVRocketPart@@@std@@@std@@@std@@QAEAAPAU_Container_proxy@2@XZ 004349f0 f i BuilderUI.obj
 0001:00033a10       ?_Myptr@?$_Unique_ptr_base@V_Facet_base@std@@U?$default_delete@V_Facet_base@std@@@2@@std@@QAEAAPAV_Facet_base@2@XZ 00434a10 f i BuilderUI.obj
 0001:00033a30       ?_Myptr@?$_Unique_ptr_base@V_Facet_base@std@@U?$default_delete@V_Facet_base@std@@@2@@std@@QBEABQAV_Facet_base@2@XZ 00434a30 f i BuilderUI.obj
 0001:00033a50       ?_Orphan_all@?$_Vector_alloc@U?$_Vec_base_types@PAVDisplayableObject@@V?$allocator@PAVDisplayableObject@@@std@@@std@@@std@@QAEXXZ 00434a50 f i BuilderUI.obj
 0001:00033a70       ?_Orphan_all@?$_Vector_alloc@U?$_Vec_base_types@PAVRocketPart@@V?$allocator@PAVRocketPart@@@std@@@std@@@std@@QAEXXZ 00434a70 f i BuilderUI.obj
 0001:00033a90       ?_Orphan_range@?$vector@PAVDisplayableObject@@V?$allocator@PAVDisplayableObject@@@std@@@std@@ABEXPAPAVDisplayableObject@@0@Z 00434a90 f i BuilderUI.obj
 0001:00033b80       ?_Orphan_range@?$vector@PAVRocketPart@@V?$allocator@PAVRocketPart@@@std@@@std@@ABEXPAPAVRocketPart@@0@Z 00434b80 f i BuilderUI.obj
 0001:00033c70       ?_Reset_back@?$basic_filebuf@DU?$char_traits@D@std@@@std@@AAEXXZ 00434c70 f i BuilderUI.obj
 0001:00033cc0       ?_Reset_move@?$_Func_class@X$$V@std@@IAEX$$QAV12@@Z 00434cc0 f i BuilderUI.obj
 0001:00033d60       ?_Reset_move@?$_Func_class@XV?$basic_string@DU?$char_traits@D@std@@V?$allocator@D@2@@std@@@std@@IAEX$$QAV12@@Z 00434d60 f i BuilderUI.obj
 0001:00033e00       ?_Seek_to@?$_Vector_const_iterator@V?$_Vector_val@U?$_Simple_types@PAVDisplayableObject@@@std@@@std@@@std@@QAEXPBQAVDisplayableObject@@@Z 00434e00 f i BuilderUI.obj
 0001:00033e30       ?_Set@?$_Func_class@X$$V@std@@AAEXPAV?$_Func_base@X$$V@2@@Z 00434e30 f i BuilderUI.obj
 0001:00033e60       ?_Set@?$_Func_class@XV?$basic_string@DU?$char_traits@D@std@@V?$allocator@D@2@@std@@@std@@AAEXPAV?$_Func_base@XV?$basic_string@DU?$char_traits@D@std@@V?$allocator@D@2@@std@@@2@@Z 00434e60 f i BuilderUI.obj
 0001:00033e90       ?_Set_back@?$basic_filebuf@DU?$char_traits@D@std@@@std@@AAEXXZ 00434e90 f i BuilderUI.obj
 0001:00033f60       ?_Tidy@?$_Func_class@X$$V@std@@IAEXXZ 00434f60 f i BuilderUI.obj
 0001:00033fe0       ?_Tidy@?$_Func_class@XV?$basic_string@DU?$char_traits@D@std@@V?$allocator@D@2@@std@@@std@@IAEXXZ 00434fe0 f i BuilderUI.obj
 0001:00034060       ?_Tidy@?$basic_stringbuf@DU?$char_traits@D@std@@V?$allocator@D@2@@std@@IAEXXZ 00435060 f i BuilderUI.obj
 0001:00034130       ?_Tidy@?$vector@PAVRocketPart@@V?$allocator@PAVRocketPart@@@std@@@std@@AAEXXZ 00435130 f i BuilderUI.obj
 0001:000341e0       ?_Umove@?$vector@PAVDisplayableObject@@V?$allocator@PAVDisplayableObject@@@std@@@std@@AAEPAPAVDisplayableObject@@PAPAV3@00@Z 004351e0 f i BuilderUI.obj
 0001:00034220       ?_Umove@?$vector@PAVRocketPart@@V?$allocator@PAVRocketPart@@@std@@@std@@AAEPAPAVRocketPart@@PAPAV3@00@Z 00435220 f i BuilderUI.obj
 0001:00034260       ?_Umove_if_noexcept1@?$vector@PAVDisplayableObject@@V?$allocator@PAVDisplayableObject@@@std@@@std@@AAEXPAPAVDisplayableObject@@00U?$integral_constant@_N$00@2@@Z 00435260 f i BuilderUI.obj
 0001:000342a0       ?_Umove_if_noexcept1@?$vector@PAVRocketPart@@V?$allocator@PAVRocketPart@@@std@@@std@@AAEXPAPAVRocketPart@@00U?$integral_constant@_N$00@2@@Z 004352a0 f i BuilderUI.obj
 0001:000342e0       ?_Umove_if_noexcept@?$vector@PAVDisplayableObject@@V?$allocator@PAVDisplayableObject@@@std@@@std@@AAEXPAPAVDisplayableObject@@00@Z 004352e0 f i BuilderUI.obj
 0001:00034320       ?_Umove_if_noexcept@?$vector@PAVRocketPart@@V?$allocator@PAVRocketPart@@@std@@@std@@AAEXPAPAVRocketPart@@00@Z 00435320 f i BuilderUI.obj
 0001:00034360       ?_Unchecked_begin@?$basic_string@DU?$char_traits@D@std@@V?$allocator@D@2@@std@@QAEPADXZ 00435360 f i BuilderUI.obj
 0001:000343c0       ?_Unchecked_begin@?$vector@PAVRocketPart@@V?$allocator@PAVRocketPart@@@std@@@std@@QAEPAPAVRocketPart@@XZ 004353c0 f i BuilderUI.obj
 0001:000343e0       ?_Unchecked_end@?$basic_string@DU?$char_traits@D@std@@V?$allocator@D@2@@std@@QAEPADXZ 004353e0 f i BuilderUI.obj
 0001:00034450       ?_Unchecked_end@?$vector@PAVRocketPart@@V?$allocator@PAVRocketPart@@@std@@@std@@QAEPAPAVRocketPart@@XZ 00435450 f i BuilderUI.obj
 0001:00034470       ?_Unlock@?$basic_filebuf@DU?$char_traits@D@std@@@std@@UAEXXZ 00435470 f i BuilderUI.obj
 0001:000344a0       ?_Unwrapped@?$_Vector_iterator@V?$_Vector_val@U?$_Simple_types@PAVDisplayableObject@@@std@@@std@@@std@@QBEPAPAVDisplayableObject@@XZ 004354a0 f i BuilderUI.obj
 0001:000344c0       ?_Verify_range@std@@YAXABV?$_Vector_const_iterator@V?$_Vector_val@U?$_Simple_types@PAVDisplayableObject@@@std@@@std@@@1@0@Z 004354c0 f i BuilderUI.obj
 0001:000345c0       ?_Xlength@?$vector@PAVDisplayableObject@@V?$allocator@PAVDisplayableObject@@@std@@@std@@CAXXZ 004355c0 f i BuilderUI.obj
 0001:000345e0       ?_Xlength@?$vector@PAVRocketPart@@V?$allocator@PAVRocketPart@@@std@@@std@@CAXXZ 004355e0 f i BuilderUI.obj
 0001:00034600       ?_Xran@?$_String_val@U?$_Simple_types@D@std@@@std@@SAXXZ 00435600 f i BuilderUI.obj
 0001:00034620       ?allocate@?$allocator@PAVDisplayableObject@@@std@@QAEPAPAVDisplayableObject@@I@Z 00435620 f i BuilderUI.obj
 0001:00034650       ?allocate@?$allocator@PAVRocketPart@@@std@@QAEPAPAVRocketPart@@I@Z 00435650 f i BuilderUI.obj
 0001:00034680       ?append@?$basic_string@DU?$char_traits@D@std@@V?$allocator@D@2@@std@@QAEAAV12@ABV12@@Z 00435680 f i BuilderUI.obj
 0001:000346c0       ?append@?$basic_string@DU?$char_traits@D@std@@V?$allocator@D@2@@std@@QAEAAV12@QBD@Z 004356c0 f i BuilderUI.obj
 0001:00034700       ?append@?$basic_string@DU?$char_traits@D@std@@V?$allocator@D@2@@std@@QAEAAV12@QBDI@Z 00435700 f i BuilderUI.obj
 0001:000347d0       ?appendObjectToArray@DisplayableObjectContainer@@QAEXPAVDisplayableObject@@@Z 004357d0 f i BuilderUI.obj
 0001:00034810       ?assign@?$basic_string@DU?$char_traits@D@std@@V?$allocator@D@2@@std@@QAEAAV12@ID@Z 00435810 f i BuilderUI.obj
 0001:000348c0       ?assign@?$char_traits@D@std@@SAPADQADID@Z 004358c0 f i BuilderUI.obj
 0001:000348e0       ?begin@?$basic_string@DU?$char_traits@D@std@@V?$allocator@D@2@@std@@QAE?AV?$_String_iterator@V?$_String_val@U?$_Simple_types@D@std@@@std@@@2@XZ 004358e0 f i BuilderUI.obj
 0001:00034970       ?begin@?$vector@PAVDisplayableObject@@V?$allocator@PAVDisplayableObject@@@std@@@std@@QAE?AV?$_Vector_iterator@V?$_Vector_val@U?$_Simple_types@PAVDisplayableObject@@@std@@@std@@@2@XZ 00435970 f i BuilderUI.obj
 0001:000349f0       ?capacity@?$basic_string@DU?$char_traits@D@std@@V?$allocator@D@2@@std@@QBEIXZ 004359f0 f i BuilderUI.obj
 0001:00034a10       ?capacity@?$vector@PAVDisplayableObject@@V?$allocator@PAVDisplayableObject@@@std@@@std@@QBEIXZ 00435a10 f i BuilderUI.obj
 0001:00034a50       ?capacity@?$vector@PAVRocketPart@@V?$allocator@PAVRocketPart@@@std@@@std@@QBEIXZ 00435a50 f i BuilderUI.obj
 0001:00034a90       ?close@?$basic_filebuf@DU?$char_traits@D@std@@@std@@QAEPAV12@XZ 00435a90 f i BuilderUI.obj
 0001:00034b10       ?close@?$basic_ofstream@DU?$char_traits@D@std@@@std@@QAEXXZ 00435b10 f i BuilderUI.obj
 0001:00034b50       ?deallocate@?$allocator@PAVDisplayableObject@@@std@@QAEXQAPAVDisplayableObject@@I@Z 00435b50 f i BuilderUI.obj
 0001:00034b80       ?deallocate@?$allocator@PAVRocketPart@@@std@@QAEXQAPAVRocketPart@@I@Z 00435b80 f i BuilderUI.obj
 0001:00034bb0       ?draw@GUIButton@@QAEXH@Z   00435bb0 f i BuilderUI.obj
 0001:00034d20       ?draw@GUITextbox@@QAEXH@Z  00435d20 f i BuilderUI.obj
 0001:00035040       ?drawForegroundString@BaseEngine@@QAEXHHPBDIPAVFont@@@Z 00436040 f i BuilderUI.obj
 0001:00035080       ?drawableObjectsChanged@DisplayableObjectContainer@@QAEXXZ 00436080 f i BuilderUI.obj
 0001:000350a0       ?empty@?$basic_string@DU?$char_traits@D@std@@V?$allocator@D@2@@std@@QBE_NXZ 004360a0 f i BuilderUI.obj
 0001:000350e0       ?end@?$vector@PAVDisplayableObject@@V?$allocator@PAVDisplayableObject@@@std@@@std@@QAE?AV?$_Vector_iterator@V?$_Vector_val@U?$_Simple_types@PAVDisplayableObject@@@std@@@std@@@2@XZ 004360e0 f i BuilderUI.obj
 0001:00035160       ?eq@?$char_traits@D@std@@SA_NABD0@Z 00436160 f i BuilderUI.obj
 0001:000351a0       ?erase@?$basic_string@DU?$char_traits@D@std@@V?$allocator@D@2@@std@@QAEAAV12@II@Z 004361a0 f i BuilderUI.obj
 0001:00035250       ?erase@?$vector@PAVDisplayableObject@@V?$allocator@PAVDisplayableObject@@@std@@@std@@QAE?AV?$_Vector_iterator@V?$_Vector_val@U?$_Simple_types@PAVDisplayableObject@@@std@@@std@@@2@V?$_Vector_const_iterator@V?$_Vector_val@U?$_Simple_types@PAVDisplayableObject@@@std@@@std@@@2@@Z 00436250 f i BuilderUI.obj
 0001:00035440       ?front@?$basic_string@DU?$char_traits@D@std@@V?$allocator@D@2@@std@@QAEAADXZ 00436440 f i BuilderUI.obj
 0001:000354d0       ?get@?$unique_ptr@V_Facet_base@std@@U?$default_delete@V_Facet_base@std@@@2@@std@@QBEPAV_Facet_base@2@XZ 004364d0 f i BuilderUI.obj
 0001:000354f0       ?getDrawHeight@DisplayableObject@@QBEHXZ 004364f0 f i BuilderUI.obj
 0001:00035510       ?getDrawWidth@DisplayableObject@@QBEHXZ 00436510 f i BuilderUI.obj
 0001:00035530       ?getFont@BaseEngine@@QAEPAVFont@@PBDH@Z 00436530 f i BuilderUI.obj
 0001:00035560       ?get_deleter@?$_Unique_ptr_base@V_Facet_base@std@@U?$default_delete@V_Facet_base@std@@@2@@std@@QAEAAU?$default_delete@V_Facet_base@std@@@2@XZ 00436560 f i BuilderUI.obj
 0001:00035580       ?imbue@?$basic_filebuf@DU?$char_traits@D@std@@@std@@MAEXABVlocale@2@@Z 00436580 f i BuilderUI.obj
 0001:000355b0       ?insert@?$basic_string@DU?$char_traits@D@std@@V?$allocator@D@2@@std@@QAEAAV12@IABV12@@Z 004365b0 f i BuilderUI.obj
 0001:00035600       ?insert@?$basic_string@DU?$char_traits@D@std@@V?$allocator@D@2@@std@@QAEAAV12@IID@Z 00436600 f i BuilderUI.obj
 0001:000356f0       ?insert@?$basic_string@DU?$char_traits@D@std@@V?$allocator@D@2@@std@@QAEAAV12@IQBD@Z 004366f0 f i BuilderUI.obj
 0001:00035730       ?insert@?$basic_string@DU?$char_traits@D@std@@V?$allocator@D@2@@std@@QAEAAV12@IQBDI@Z 00436730 f i BuilderUI.obj
 0001:00035890       ?loadImage@ImageManager@@SA?AVSimpleImage@@V?$basic_string@DU?$char_traits@D@std@@V?$allocator@D@2@@std@@_N@Z 00436890 f i BuilderUI.obj
 0001:00035950       ?max_size@?$_Default_allocator_traits@V?$allocator@PAVDisplayableObject@@@std@@@std@@SAIABV?$allocator@PAVDisplayableObject@@@2@@Z 00436950 f i BuilderUI.obj
 0001:00035960       ?max_size@?$_Default_allocator_traits@V?$allocator@PAVRocketPart@@@std@@@std@@SAIABV?$allocator@PAVRocketPart@@@2@@Z 00436960 f i BuilderUI.obj
 0001:00035970       ?max_size@?$vector@PAVDisplayableObject@@V?$allocator@PAVDisplayableObject@@@std@@@std@@QBEIXZ 00436970 f i BuilderUI.obj
 0001:000359c0       ?max_size@?$vector@PAVRocketPart@@V?$allocator@PAVRocketPart@@@std@@@std@@QBEIXZ 004369c0 f i BuilderUI.obj
 0001:00035a10       ?not_eof@?$char_traits@D@std@@SAHABH@Z 00436a10 f i BuilderUI.obj
 0001:00035a70       ?open@?$basic_filebuf@DU?$char_traits@D@std@@@std@@QAEPAV12@PBDHH@Z 00436a70 f i BuilderUI.obj
 0001:00035b60       ?open@?$basic_ofstream@DU?$char_traits@D@std@@@std@@QAEXPBDHH@Z 00436b60 f i BuilderUI.obj
 0001:00035be0       ?oppositeSide@RocketPart@@SA?AW4Side@1@W421@@Z 00436be0 f i BuilderUI.obj
 0001:00035c40       ?overflow@?$basic_filebuf@DU?$char_traits@D@std@@@std@@MAEHH@Z 00436c40 f i BuilderUI.obj
 0001:00035ea0       ?overflow@?$basic_stringbuf@DU?$char_traits@D@std@@V?$allocator@D@2@@std@@MAEHH@Z 00436ea0 f i BuilderUI.obj
 0001:00036120       ?pbackfail@?$basic_filebuf@DU?$char_traits@D@std@@@std@@MAEHH@Z 00437120 f i BuilderUI.obj
 0001:000362d0       ?pbackfail@?$basic_stringbuf@DU?$char_traits@D@std@@V?$allocator@D@2@@std@@MAEHH@Z 004372d0 f i BuilderUI.obj
 0001:000363f0       ?pointer_to@?$pointer_traits@PAD@std@@SAPADAAD@Z 004373f0 f i BuilderUI.obj
 0001:00036410       ?pop_back@?$basic_string@DU?$char_traits@D@std@@V?$allocator@D@2@@std@@QAEXXZ 00437410 f i BuilderUI.obj
 0001:000364c0       ?push_back@?$basic_string@DU?$char_traits@D@std@@V?$allocator@D@2@@std@@QAEXD@Z 004374c0 f i BuilderUI.obj
 0001:00036580       ?push_back@?$vector@PAVDisplayableObject@@V?$allocator@PAVDisplayableObject@@@std@@@std@@QAEXABQAVDisplayableObject@@@Z 00437580 f i BuilderUI.obj
 0001:000365a0       ?push_back@?$vector@PAVRocketPart@@V?$allocator@PAVRocketPart@@@std@@@std@@QAEXABQAVRocketPart@@@Z 004375a0 f i BuilderUI.obj
 0001:000365c0       ?release@?$unique_ptr@V_Facet_base@std@@U?$default_delete@V_Facet_base@std@@@2@@std@@QAEPAV_Facet_base@2@XZ 004375c0 f i BuilderUI.obj
 0001:00036600       ?removeDisplayableObject@DisplayableObjectContainer@@QAE_NPAVDisplayableObject@@@Z 00437600 f i BuilderUI.obj
 0001:00036770       ?seekoff@?$basic_filebuf@DU?$char_traits@D@std@@@std@@MAE?AV?$fpos@U_Mbstatet@@@2@_JHH@Z 00437770 f i BuilderUI.obj
 0001:00036880       ?seekoff@?$basic_stringbuf@DU?$char_traits@D@std@@V?$allocator@D@2@@std@@MAE?AV?$fpos@U_Mbstatet@@@2@_JHH@Z 00437880 f i BuilderUI.obj
 0001:00036af0       ?seekpos@?$basic_filebuf@DU?$char_traits@D@std@@@std@@MAE?AV?$fpos@U_Mbstatet@@@2@V32@H@Z 00437af0 f i BuilderUI.obj
 0001:00036bc0       ?seekpos@?$basic_stringbuf@DU?$char_traits@D@std@@V?$allocator@D@2@@std@@MAE?AV?$fpos@U_Mbstatet@@@2@V32@H@Z 00437bc0 f i BuilderUI.obj
 0001:00036d50       ?setVisible@DisplayableObject@@QAEX_N@Z 00437d50 f i BuilderUI.obj
 0001:00036d70       ?setbuf@?$basic_filebuf@DU?$char_traits@D@std@@@std@@MAEPAV?$basic_streambuf@DU?$char_traits@D@std@@@2@PAD_J@Z 00437d70 f i BuilderUI.obj
 0001:00036e00       ?size@?$vector@PAVDisplayableObject@@V?$allocator@PAVDisplayableObject@@@std@@@std@@QBEIXZ 00437e00 f i BuilderUI.obj
 0001:00036e40       ?size@?$vector@PAVRocketPart@@V?$allocator@PAVRocketPart@@@std@@@std@@QBEIXZ 00437e40 f i BuilderUI.obj
 0001:00036e80       ?state@?$fpos@U_Mbstatet@@@std@@QBE?AU_Mbstatet@@XZ 00437e80 f i BuilderUI.obj
 0001:00036eb0       ?str@?$basic_stringbuf@DU?$char_traits@D@std@@V?$allocator@D@2@@std@@QBE?AV?$basic_string@DU?$char_traits@D@std@@V?$allocator@D@2@@2@XZ 00437eb0 f i BuilderUI.obj
 0001:00037020       ?str@?$basic_stringstream@DU?$char_traits@D@std@@V?$allocator@D@2@@std@@QBE?AV?$basic_string@DU?$char_traits@D@std@@V?$allocator@D@2@@2@XZ 00438020 f i BuilderUI.obj
 0001:00037060       ?sync@?$basic_filebuf@DU?$char_traits@D@std@@@std@@MAEHXZ 00438060 f i BuilderUI.obj
 0001:000370f0       ?to_char_type@?$char_traits@D@std@@SADABH@Z 004380f0 f i BuilderUI.obj
 0001:00037100       ?to_int_type@?$char_traits@D@std@@SAHABD@Z 00438100 f i BuilderUI.obj
 0001:00037110       ?to_string@std@@YA?AV?$basic_string@DU?$char_traits@D@std@@V?$allocator@D@2@@1@H@Z 00438110 f i BuilderUI.obj
 0001:00037150       ?to_string@std@@YA?AV?$basic_string@DU?$char_traits@D@std@@V?$allocator@D@2@@1@I@Z 00438150 f i BuilderUI.obj
 0001:00037190       ?to_string@std@@YA?AV?$basic_string@DU?$char_traits@D@std@@V?$allocator@D@2@@1@M@Z 00438190 f i BuilderUI.obj
 0001:000371e0       ?uflow@?$basic_filebuf@DU?$char_traits@D@std@@@std@@MAEHXZ 004381e0 f i BuilderUI.obj
 0001:00037500       ?underflow@?$basic_filebuf@DU?$char_traits@D@std@@@std@@MAEHXZ 00438500 f i BuilderUI.obj
 0001:000375c0       ?underflow@?$basic_stringbuf@DU?$char_traits@D@std@@V?$allocator@D@2@@std@@MAEHXZ 004385c0 f i BuilderUI.obj
 0001:000376d0       ?virtDoUpdate@GUIButton@@UAEXH@Z 004386d0 f i BuilderUI.obj
 0001:000376e0       ?virtDoUpdate@GUITextbox@@UAEXH@Z 004386e0 f i BuilderUI.obj
 0001:000376f0       ?virtDraw@GUIButton@@UAEXXZ 004386f0 f i BuilderUI.obj
 0001:00037700       ?virtDraw@GUITextbox@@UAEXXZ 00438700 f i BuilderUI.obj
 0001:00037710       ?virtKeyDown@GUITextbox@@UAEXH@Z 00438710 f i BuilderUI.obj
 0001:00037860       ?virtMouseDown@GUIButton@@UAEXHHH@Z 00438860 f i BuilderUI.obj
 0001:000378d0       ?virtMouseDown@GUITextbox@@UAEXHHH@Z 004388d0 f i BuilderUI.obj
 0001:00037a30       ?virtMouseUp@GUIButton@@UAEXHHH@Z 00438a30 f i BuilderUI.obj
 0001:00037ab0       ?what@exception@std@@UBEPBDXZ 00438ab0 f i BuilderUI.obj
 0001:00037af0       ?xsgetn@?$basic_filebuf@DU?$char_traits@D@std@@@std@@MAE_JPAD_J@Z 00438af0 f i BuilderUI.obj
 0001:00037c90       ?xsputn@?$basic_filebuf@DU?$char_traits@D@std@@@std@@MAE_JPBD_J@Z 00438c90 f i BuilderUI.obj
 0001:00037e20       __scprintf                 00438e20 f i BuilderUI.obj
 0001:00037e60       __vscprintf_l              00438e60 f i BuilderUI.obj
 0001:00037ec0       __vsprintf_s_l             00438ec0 f i BuilderUI.obj
 0001:00037f30       _sprintf_s                 00438f30 f i BuilderUI.obj
 0001:00037f80       ??0CelestialBody@@QAE@PAVBaseEngine@@OOPBD11O_NPAVVec2D@@@Z 00438f80 f   CelestialBody.obj
 0001:000381f0       ??1CelestialBody@@UAE@XZ   004391f0 f   CelestialBody.obj
 0001:00038280       ?virtDraw@CelestialBody@@UAEXXZ 00439280 f   CelestialBody.obj
 0001:000388a0       ?isOnScreen@CelestialBody@@SA_NAAVVec2D@@O@Z 004398a0 f   CelestialBody.obj
 0001:00038950       ?virtDoUpdate@CelestialBody@@UAEXH@Z 00439950 f   CelestialBody.obj
 0001:00038980       ?setCloseByBody@CelestialBody@@QAEX_N@Z 00439980 f   CelestialBody.obj
 0001:000389e0       ?getPositionOnSurface@CelestialBody@@QAE?AVVec2D@@NO@Z 004399e0 f   CelestialBody.obj
 0001:00038d70       ??$max@O@std@@YAABOABO0@Z  00439d70 f i CelestialBody.obj
 0001:00038e10       ??0Circle@@QAE@OABVVec2D@@@Z 00439e10 f i CelestialBody.obj
 0001:00038e70       ??_ECelestialBody@@UAEPAXI@Z 00439e70 f i CelestialBody.obj
 0001:00038e70       ??_GCelestialBody@@UAEPAXI@Z 00439e70 f i CelestialBody.obj
 0001:00038eb0       ?fmod@@YAOOO@Z             00439eb0 f i CelestialBody.obj
 0001:00038ee0       ?magnitudeSquared@Vec2D@@QBEOXZ 00439ee0 f i CelestialBody.obj
 0001:00038f30       ?updateShape@Circle@@UAEXABVVec2D@@ABVMat22@@@Z 00439f30 f i CelestialBody.obj
 0001:00038f70       _fmodl                     00439f70 f i CelestialBody.obj
 0001:00038fa0       ?virtSetupBackgroundBuffer@DraggingDemo@@UAEXXZ 00439fa0 f   DraggingDemo.obj
 0001:000390e0       ?virtInitialiseObjects@DraggingDemo@@UAEHXZ 0043a0e0 f   DraggingDemo.obj
 0001:00039330       ?virtKeyDown@DraggingDemo@@UAEXH@Z 0043a330 f   DraggingDemo.obj
 0001:00039450       ??$_Resize@V<lambda_2afd52570c452b238925c6f475a76105>@@@?$vector@PAVDisplayableObject@@V?$allocator@PAVDisplayableObject@@@std@@@std@@AAEXIV<lambda_2afd52570c452b238925c6f475a76105>@@@Z 0043a450 f i DraggingDemo.obj
 0001:000396c0       ??$_Uninitialized_value_construct_n1@PAPAVDisplayableObject@@IV?$allocator@PAVDisplayableObject@@@std@@@std@@YAPAPAVDisplayableObject@@PAPAV1@IAAV?$allocator@PAVDisplayableObject@@@0@U?$integral_constant@_N$00@0@@Z 0043a6c0 f i DraggingDemo.obj
 0001:000396f0       ??$_Uninitialized_value_construct_n@PAPAVDisplayableObject@@IV?$allocator@PAVDisplayableObject@@@std@@@std@@YAPAPAVDisplayableObject@@PAPAV1@IAAV?$allocator@PAVDisplayableObject@@@0@@Z 0043a6f0 f i DraggingDemo.obj
 0001:00039720       ??$_Zero_range@PAPAVDisplayableObject@@@std@@YAPAPAVDisplayableObject@@QAPAV1@0@Z 0043a720 f i DraggingDemo.obj
 0001:00039760       ??0<lambda_2afd52570c452b238925c6f475a76105>@@QAE@QAV?$vector@PAVDisplayableObject@@V?$allocator@PAVDisplayableObject@@@std@@@std@@@Z 0043a760 f i DraggingDemo.obj
 0001:00039780       ??0DragableBaseClassObject@@QAE@HHPAVBaseEngine@@HH_N@Z 0043a780 f i DraggingDemo.obj
 0001:000397e0       ??0DragableBaseClassObject@@QAE@PAVBaseEngine@@HH_N@Z 0043a7e0 f i DraggingDemo.obj
 0001:00039830       ??0DragableImageObject@@QAE@HHPAVBaseEngine@@V?$basic_string@DU?$char_traits@D@std@@V?$allocator@D@2@@std@@_N2@Z 0043a830 f i DraggingDemo.obj
 0001:000399d0       ??0DragableObject@@QAE@HHPAVBaseEngine@@HH_N1@Z 0043a9d0 f i DraggingDemo.obj
 0001:00039a80       ??0DragableObject@@QAE@PAVBaseEngine@@HH_N1@Z 0043aa80 f i DraggingDemo.obj
 0001:00039b30       ??0ImageObject@@QAE@HHPAVBaseEngine@@V?$basic_string@DU?$char_traits@D@std@@V?$allocator@D@2@@std@@_N2@Z 0043ab30 f i DraggingDemo.obj
 0001:00039cc0       ??1DragableBaseClassObject@@UAE@XZ 0043acc0 f i DraggingDemo.obj
 0001:00039ce0       ??1DragableImageObject@@UAE@XZ 0043ace0 f i DraggingDemo.obj
 0001:00039d10       ??1DragableObject@@UAE@XZ  0043ad10 f i DraggingDemo.obj
 0001:00039d30       ??1ImageObject@@UAE@XZ     0043ad30 f i DraggingDemo.obj
 0001:00039d60       ??A?$vector@PAVDisplayableObject@@V?$allocator@PAVDisplayableObject@@@std@@@std@@QAEAAPAVDisplayableObject@@I@Z 0043ad60 f i DraggingDemo.obj
 0001:00039e00       ??R<lambda_2afd52570c452b238925c6f475a76105>@@QBE@PAPAVDisplayableObject@@I@Z 0043ae00 f i DraggingDemo.obj
 0001:00039e30       ??_GDragableBaseClassObject@@UAEPAXI@Z 0043ae30 f i DraggingDemo.obj
 0001:00039e30       ??_EDragableBaseClassObject@@UAEPAXI@Z 0043ae30 f i DraggingDemo.obj
 0001:00039e70       ??_EDragableImageObject@@UAEPAXI@Z 0043ae70 f i DraggingDemo.obj
 0001:00039e70       ??_GDragableImageObject@@UAEPAXI@Z 0043ae70 f i DraggingDemo.obj
 0001:00039eb0       ??_GDragableObject@@UAEPAXI@Z 0043aeb0 f i DraggingDemo.obj
 0001:00039eb0       ??_EDragableObject@@UAEPAXI@Z 0043aeb0 f i DraggingDemo.obj
 0001:00039ef0       ??_EImageObject@@UAEPAXI@Z 0043aef0 f i DraggingDemo.obj
 0001:00039ef0       ??_GImageObject@@UAEPAXI@Z 0043aef0 f i DraggingDemo.obj
 0001:00039f30       ?_Udefault@?$vector@PAVDisplayableObject@@V?$allocator@PAVDisplayableObject@@@std@@@std@@AAEPAPAVDisplayableObject@@PAPAV3@I@Z 0043af30 f i DraggingDemo.obj
 0001:00039f60       ?checkDoDrag@DragableBaseClassObject@@UAEXHH@Z 0043af60 f i DraggingDemo.obj
 0001:00039fe0       ?checkFinishDrag@DragableBaseClassObject@@UAEXHH@Z 0043afe0 f i DraggingDemo.obj
 0001:0003a020       ?checkStartDrag@DragableBaseClassObject@@UAEXHH@Z 0043b020 f i DraggingDemo.obj
 0001:0003a0a0       ?createObjectArray@DisplayableObjectContainer@@QAEXH@Z 0043b0a0 f i DraggingDemo.obj
 0001:0003a0f0       ?doDragRedraw@DragableBaseClassObject@@UAEXXZ 0043b0f0 f i DraggingDemo.obj
 0001:0003a110       ?getWindowHeight@BaseEngine@@QBEHXZ 0043b110 f i DraggingDemo.obj
 0001:0003a130       ?getWindowWidth@BaseEngine@@QBEHXZ 0043b130 f i DraggingDemo.obj
 0001:0003a150       ?notifyObjectsAboutMouse@BaseEngine@@QAEX_N@Z 0043b150 f i DraggingDemo.obj
 0001:0003a170       ?resize@?$vector@PAVDisplayableObject@@V?$allocator@PAVDisplayableObject@@@std@@@std@@QAEXI@Z 0043b170 f i DraggingDemo.obj
 0001:0003a1b0       ?setBackgroundPixel@BaseEngine@@QAEXHHI@Z 0043b1b0 f i DraggingDemo.obj
 0001:0003a1e0       ?setExitWithCode@BaseEngine@@QAEXH@Z 0043b1e0 f i DraggingDemo.obj
 0001:0003a200       ?setPixel@DrawingSurface@@QAEXHHI@Z 0043b200 f i DraggingDemo.obj
 0001:0003a270       ?storeObjectInArray@DisplayableObjectContainer@@QAEXHPAVDisplayableObject@@@Z 0043b270 f i DraggingDemo.obj
 0001:0003a2b0       ?virtDraw@DragableImageObject@@UAEXXZ 0043b2b0 f i DraggingDemo.obj
 0001:0003a330       ?virtDraw@ImageObject@@UAEXXZ 0043b330 f i DraggingDemo.obj
 0001:0003a3b0       ?virtMouseDown@DragableImageObject@@UAEXHHH@Z 0043b3b0 f i DraggingDemo.obj
 0001:0003a3e0       ?virtMouseDown@DragableObject@@UAEXHHH@Z 0043b3e0 f i DraggingDemo.obj
 0001:0003a410       ?virtMouseMoved@DragableImageObject@@UAEXHH@Z 0043b410 f i DraggingDemo.obj
 0001:0003a440       ?virtMouseMoved@DragableObject@@UAEXHH@Z 0043b440 f i DraggingDemo.obj
 0001:0003a470       ?virtMouseUp@DragableImageObject@@UAEXHHH@Z 0043b470 f i DraggingDemo.obj
 0001:0003a4a0       ?virtMouseUp@DragableObject@@UAEXHHH@Z 0043b4a0 f i DraggingDemo.obj
 0001:0003a4e0       ??0DrawingSurface@@QAE@PAVBaseEngine@@@Z 0043b4e0 f   DrawingSurface.obj
 0001:0003a580       ?drawLine@DrawingSurface@@QAEXNNNNI@Z 0043b580 f   DrawingSurface.obj
 0001:0003a760       ?drawThickLine@DrawingSurface@@QAEXNNNNIH@Z 0043b760 f   DrawingSurface.obj
 0001:0003ac00       ?drawVerticalSidedRegion@DrawingSurface@@QAEXNNNNNNI@Z 0043bc00 f   DrawingSurface.obj
 0001:0003afa0       ?drawRectangle@DrawingSurface@@QAEXHHHHI@Z 0043bfa0 f   DrawingSurface.obj
 0001:0003b0b0       ?drawOval@DrawingSurface@@QAEXHHHHI@Z 0043c0b0 f   DrawingSurface.obj
 0001:0003b280       ?rawDrawOval@DrawingSurface@@QAEXHHHHI@Z 0043c280 f   DrawingSurface.obj
 0001:0003b3e0       ?drawHollowOval@DrawingSurface@@QAEXHHHHHHHHI@Z 0043c3e0 f   DrawingSurface.obj
 0001:0003b700       ?drawPolygon@DrawingSurface@@QAEXHPAN0I@Z 0043c700 f   DrawingSurface.obj
 0001:0003be80       ?drawFastString@DrawingSurface@@QAEXHHPBDIPAVFont@@@Z 0043ce80 f   DrawingSurface.obj
 0001:0003bf70       ?drawScalableString@DrawingSurface@@QAEXHHPBDIPAVFont@@@Z 0043cf70 f   DrawingSurface.obj
 0001:0003c140       ?drawShortenedArrow@DrawingSurface@@QAEXHHHHHHIHH@Z 0043d140 f   DrawingSurface.obj
 0001:0003c6c0       ?drawShortenedLine@DrawingSurface@@QAEXHHHHHHIH@Z 0043d6c0 f   DrawingSurface.obj
 0001:0003cac0       ?drawTriangle@DrawingSurface@@QAEXNNNNNNI@Z 0043dac0 f   DrawingSurface.obj
 0001:0003ce10       ?copyEntireSurface@DrawingSurface@@QAEXPAV1@@Z 0043de10 f   DrawingSurface.obj
 0001:0003ce60       ?copyRectangleFrom@DrawingSurface@@QAEXPAV1@HHHHHH@Z 0043de60 f   DrawingSurface.obj
 0001:0003d060       ?getAngle@DrawingSurface@@SANNNNN@Z 0043e060 f   DrawingSurface.obj
 0001:0003d100       ?getVirtualRedrawMinX@DrawingSurface@@QAEHXZ 0043e100 f   DrawingSurface.obj
 0001:0003d150       ?getVirtualRedrawMinY@DrawingSurface@@QAEHXZ 0043e150 f   DrawingSurface.obj
 0001:0003d1a0       ?getVirtualRedrawMaxX@DrawingSurface@@QAEHXZ 0043e1a0 f   DrawingSurface.obj
 0001:0003d200       ?getVirtualRedrawMaxY@DrawingSurface@@QAEHXZ 0043e200 f   DrawingSurface.obj
 0001:0003d260       ?getRealRedrawMinX@DrawingSurface@@QAEHXZ 0043e260 f   DrawingSurface.obj
 0001:0003d2b0       ?getRealRedrawMinY@DrawingSurface@@QAEHXZ 0043e2b0 f   DrawingSurface.obj
 0001:0003d300       ?getRealRedrawMaxX@DrawingSurface@@QAEHXZ 0043e300 f   DrawingSurface.obj
 0001:0003d350       ?getRealRedrawMaxY@DrawingSurface@@QAEHXZ 0043e350 f   DrawingSurface.obj
 0001:0003df50       ??$swapPoints@H@@YAXAAH0@Z 0043ef50 f i DrawingSurface.obj
 0001:0003df80       ??$swapPoints@N@@YAXAAN0@Z 0043ef80 f i DrawingSurface.obj
 0001:0003dfc0       ?checkBlitable@DrawingSurface@@QAEXXZ 0043efc0 f i DrawingSurface.obj
 0001:0003e010       ?convertRealToVirtualXPosition@DrawingSurface@@QAEHH@Z 0043f010 f i DrawingSurface.obj
 0001:0003e050       ?convertRealToVirtualYPosition@DrawingSurface@@QAEHH@Z 0043f050 f i DrawingSurface.obj
 0001:0003e090       ?getDefaultFont@BaseEngine@@QBEPAVFont@@XZ 0043f090 f i DrawingSurface.obj
 0001:0003e0b0       ?getRedrawAllScreen@BaseEngine@@QAEHXZ 0043f0b0 f i DrawingSurface.obj
 0001:0003e0d0       ?getRedrawRectRealBottom@BaseEngine@@QAEHXZ 0043f0d0 f i DrawingSurface.obj
 0001:0003e0f0       ?getRedrawRectRealLeft@BaseEngine@@QAEHXZ 0043f0f0 f i DrawingSurface.obj
 0001:0003e110       ?getRedrawRectRealRight@BaseEngine@@QAEHXZ 0043f110 f i DrawingSurface.obj
 0001:0003e130       ?getRedrawRectRealTop@BaseEngine@@QAEHXZ 0043f130 f i DrawingSurface.obj
 0001:0003e150       ?getRedrawRectVirtualBottom@BaseEngine@@QAEHXZ 0043f150 f i DrawingSurface.obj
 0001:0003e170       ?getRedrawRectVirtualLeft@BaseEngine@@QAEHXZ 0043f170 f i DrawingSurface.obj
 0001:0003e190       ?getRedrawRectVirtualRight@BaseEngine@@QAEHXZ 0043f190 f i DrawingSurface.obj
 0001:0003e1b0       ?getRedrawRectVirtualTop@BaseEngine@@QAEHXZ 0043f1b0 f i DrawingSurface.obj
 0001:0003e1d0       ?getTTFFont@Font@@QAEPAU_TTF_Font@@XZ 0043f1d0 f i DrawingSurface.obj
 0001:0003e1f0       ??0FlashingDemo@@QAE@XZ    0043f1f0 f   FlashingDemo.obj
 0001:0003e2b0       ??1FlashingDemo@@UAE@XZ    0043f2b0 f   FlashingDemo.obj
 0001:0003e300       ?virtSetupBackgroundBuffer@FlashingDemo@@UAEXXZ 0043f300 f   FlashingDemo.obj
 0001:0003e780       ?virtMainLoopDoBeforeUpdate@FlashingDemo@@UAEXXZ 0043f780 f   FlashingDemo.obj
 0001:0003e840       ?virtCreateSurfaces@FlashingDemo@@UAEXXZ 0043f840 f   FlashingDemo.obj
 0001:0003ea60       ??_GFlashingDemo@@UAEPAXI@Z 0043fa60 f i FlashingDemo.obj
 0001:0003ea60       ??_EFlashingDemo@@UAEPAXI@Z 0043fa60 f i FlashingDemo.obj
 0001:0003eaa0       ?copyAllBackgroundBuffer@BaseEngine@@UAEXXZ 0043faa0 f i FlashingDemo.obj
 0001:0003ead0       ?copyBackgroundPixels@BaseEngine@@UAEXHHHH@Z 0043fad0 f i FlashingDemo.obj
 0001:0003eb20       ?destroyOldObjects@DisplayableObjectContainer@@UAEX_N@Z 0043fb20 f i FlashingDemo.obj
 0001:0003ec10       ?fillBackground@BaseEngine@@UAEXI@Z 0043fc10 f i FlashingDemo.obj
 0001:0003ec40       ?filter@BaseEngine@@UAE_NPAVDrawingSurface@@AAH1AAI@Z 0043fc40 f i FlashingDemo.obj
 0001:0003ed00       ?getModifiedTime@BaseEngine@@UBEHXZ 0043fd00 f i FlashingDemo.obj
 0001:0003ed40       ?mySDLLockSurface@DrawingSurface@@QAEXXZ 0043fd40 f i FlashingDemo.obj
 0001:0003ed90       ?mySDLUnlockSurface@DrawingSurface@@QAEXXZ 0043fd90 f i FlashingDemo.obj
 0001:0003ede0       ?redrawDisplay@BaseEngine@@QAEXXZ 0043fde0 f i FlashingDemo.obj
 0001:0003ee00       ?virtBackgroundMouseDown@BaseEngine@@UAEXHHHHH@Z 0043fe00 f i FlashingDemo.obj
 0001:0003ee10       ?virtMainLoopDoAfterUpdate@BaseEngine@@UAEXXZ 0043fe10 f i FlashingDemo.obj
 0001:0003ee20       ?virtMainLoopPostUpdate@BaseEngine@@UAEXXZ 0043fe20 f i FlashingDemo.obj
 0001:0003ee30       ?virtMainLoopPreUpdate@BaseEngine@@UAEXXZ 0043fe30 f i FlashingDemo.obj
 0001:0003ee40       ?virtMainLoopStartIteration@BaseEngine@@UAEXXZ 0043fe40 f i FlashingDemo.obj
 0001:0003ee50       ?virtMouseWheel@BaseEngine@@UAEXHHHH@Z 0043fe50 f i FlashingDemo.obj
 0001:0003ee60       ?virtPostDraw@BaseEngine@@UAEXXZ 0043fe60 f i FlashingDemo.obj
 0001:0003ee70       ?virtPreDraw@BaseEngine@@UAEXXZ 0043fe70 f i FlashingDemo.obj
 0001:0003ee80       ?virtRealMouseDown@BaseEngine@@UAEXHHH@Z 0043fe80 f i FlashingDemo.obj
 0001:0003ee90       ?virtRealMouseUp@BaseEngine@@UAEXHHH@Z 0043fe90 f i FlashingDemo.obj
 0001:0003eea0       ?virtTouchEvent@BaseEngine@@UAEXHH_J0MMMMM@Z 0043fea0 f i FlashingDemo.obj
 0001:0003eeb0       ?addObjectsToEngine@GUIManager@@QAEXXZ 0043feb0 f   GUIManager.obj
 0001:0003eef0       ?draw@GUIManager@@QAEXHW4State@KSP2D@@@Z 0043fef0 f   GUIManager.obj
 0001:0003ef60       ?update@GUIManager@@QAEXH@Z 0043ff60 f   GUIManager.obj
 0001:0003efa0       ?fadeTextAlert@GUIManager@@QAEXPBD@Z 0043ffa0 f   GUIManager.obj
 0001:0003efd0       ?titleFadeTextAlert@GUIManager@@QAEXPBD@Z 0043ffd0 f   GUIManager.obj
 0001:0003f000       ?showFadePlanetLabels@GUIManager@@QAEXXZ 00440000 f   GUIManager.obj
 0001:0003f020       ?setupSpacecraftControls@GUIManager@@QAEXPAVSpacecraft@@@Z 00440020 f   GUIManager.obj
 0001:0003f0b0       ?openSpacecraftHUD@GUIManager@@QAEXXZ 004400b0 f   GUIManager.obj
 0001:0003f0d0       ?closeSpacecraftHUD@GUIManager@@QAEXXZ 004400d0 f   GUIManager.obj
 0001:0003f0f0       ?setSpacecraftDistHUDSliderMin@GUIManager@@QAEXXZ 004400f0 f   GUIManager.obj
 0001:0003f130       ?setSpacecraftTimeHUDSliderMax@GUIManager@@QAEXXZ 00440130 f   GUIManager.obj
 0001:0003f170       ?closeBuilder@GUIManager@@QAEPAVSpacecraft@@PAVKSP2D@@ABVVec2D@@1PAV4@@Z 00440170 f   GUIManager.obj
 0001:0003f1e0       ?spacecraftDestroyed@GUIManager@@QAEXXZ 004401e0 f   GUIManager.obj
 0001:0003f2b0       ??0GUIManager@@AAE@PAVKSP2D@@@Z 004402b0 f   GUIManager.obj
 0001:0003f3b0       ??1GUIManager@@AAE@XZ      004403b0 f   GUIManager.obj
 0001:0003f430       ?drawFadeText@GUIManager@@AAEXXZ 00440430 f   GUIManager.obj
 0001:0003f590       ?drawOrbitGUI@GUIManager@@AAEXXZ 00440590 f   GUIManager.obj
 0001:0003f650       ?drawSpacecraftGUI@GUIManager@@AAEXH@Z 00440650 f   GUIManager.obj
 0001:0003f680       ?drawBuilderGUI@GUIManager@@AAEXH@Z 00440680 f   GUIManager.obj
 0001:0003f6b0       ?drawTitleFadeText@GUIManager@@AAEXXZ 004406b0 f   GUIManager.obj
 0001:0003fa70       ??$forward@O@std@@YA$$QAOAAO@Z 00440a70 f i GUIManager.obj
 0001:0003fa80       ??$min@H@std@@YAABHABH0@Z  00440a80 f i GUIManager.obj
 0001:0003fb20       ??B?$function@$$A6AXO@Z@std@@QBE_NXZ 00440b20 f i GUIManager.obj
 0001:0003fb60       ??R?$_Func_class@XO@std@@QBEXO@Z 00440b60 f i GUIManager.obj
 0001:0003fbc0       ??_GBuilderUI@@QAEPAXI@Z   00440bc0 f i GUIManager.obj
 0001:0003fc00       ??_GSpacecraftControls@@QAEPAXI@Z 00440c00 f i GUIManager.obj
 0001:0003fc40       ?_Empty@?$_Func_class@XO@std@@IBE_NXZ 00440c40 f i GUIManager.obj
 0001:0003fc80       ?_Get_data@?$_Vector_alloc@U?$_Vec_base_types@PAVCelestialBody@@V?$allocator@PAVCelestialBody@@@std@@@std@@@std@@QAEAAV?$_Vector_val@U?$_Simple_types@PAVCelestialBody@@@std@@@2@XZ 00440c80 f i GUIManager.obj
 0001:0003fca0       ?_Get_second@?$_Compressed_pair@V?$allocator@PAVCelestialBody@@@std@@V?$_Vector_val@U?$_Simple_types@PAVCelestialBody@@@std@@@2@$00@std@@QAEAAV?$_Vector_val@U?$_Simple_types@PAVCelestialBody@@@std@@@2@XZ 00440ca0 f i GUIManager.obj
 0001:0003fcc0       ?_Getimpl@?$_Func_class@XO@std@@ABEPAV?$_Func_base@XO@2@XZ 00440cc0 f i GUIManager.obj
 0001:0003fce0       ?_Myfirst@?$_Vector_alloc@U?$_Vec_base_types@PAVCelestialBody@@V?$allocator@PAVCelestialBody@@@std@@@std@@@std@@QAEAAPAPAVCelestialBody@@XZ 00440ce0 f i GUIManager.obj
 0001:0003fd00       ?_Mylast@?$_Vector_alloc@U?$_Vec_base_types@PAVCelestialBody@@V?$allocator@PAVCelestialBody@@@std@@@std@@@std@@QAEAAPAPAVCelestialBody@@XZ 00440d00 f i GUIManager.obj
 0001:0003fd20       ?_Unchecked_begin@?$vector@PAVCelestialBody@@V?$allocator@PAVCelestialBody@@@std@@@std@@QAEPAPAVCelestialBody@@XZ 00440d20 f i GUIManager.obj
 0001:0003fd40       ?_Unchecked_end@?$vector@PAVCelestialBody@@V?$allocator@PAVCelestialBody@@@std@@@std@@QAEPAPAVCelestialBody@@XZ 00440d40 f i GUIManager.obj
 0001:0003fd60       ?abs@@YANN@Z               00440d60 f i GUIManager.obj
 0001:0003fd80       ?getXCentre@DisplayableObject@@QBEHXZ 00440d80 f i GUIManager.obj
 0001:0003fdb0       ?getYCentre@DisplayableObject@@QBEHXZ 00440db0 f i GUIManager.obj
 0001:0003fde0       ?log@@YAOO@Z               00440de0 f i GUIManager.obj
 0001:0003fe00       ?updateMax@?$GUISlider@O@@QAEXO@Z 00440e00 f i GUIManager.obj
 0001:0003ff70       ?updateMin@?$GUISlider@O@@QAEXO@Z 00440f70 f i GUIManager.obj
 0001:000400d0       ?updateSliderPos@?$GUISlider@O@@QAEXXZ 004410d0 f i GUIManager.obj
 0001:00040210       _logl                      00441210 f i GUIManager.obj
 0001:00040230       ?virtSetupBackgroundBuffer@ImageObjectDemo@@UAEXXZ 00441230 f   ImageObjectDemo.obj
 0001:00040400       ?virtInitialiseObjects@ImageObjectDemo@@UAEHXZ 00441400 f   ImageObjectDemo.obj
 0001:000404c0       ?virtDrawStringsUnderneath@ImageObjectDemo@@UAEXXZ 004414c0 f   ImageObjectDemo.obj
 0001:00040570       ?virtDrawStringsOnTop@ImageObjectDemo@@UAEXXZ 00441570 f   ImageObjectDemo.obj
 0001:000405f0       ?virtMouseDown@ImageObjectDemo@@UAEXHHH@Z 004415f0 f   ImageObjectDemo.obj
 0001:00040610       ?virtKeyDown@ImageObjectDemo@@UAEXH@Z 00441610 f   ImageObjectDemo.obj
 0001:00040770       ??0BouncingImageObject@@QAE@PAVBaseEngine@@V?$basic_string@DU?$char_traits@D@std@@V?$allocator@D@2@@std@@@Z 00441770 f i ImageObjectDemo.obj
 0001:00040860       ??0BouncingObject@@QAE@PAVBaseEngine@@@Z 00441860 f i ImageObjectDemo.obj
 0001:00040960       ??1BouncingImageObject@@UAE@XZ 00441960 f i ImageObjectDemo.obj
 0001:00040990       ??1BouncingObject@@UAE@XZ  00441990 f i ImageObjectDemo.obj
 0001:000409b0       ??_GBouncingImageObject@@UAEPAXI@Z 004419b0 f i ImageObjectDemo.obj
 0001:000409b0       ??_EBouncingImageObject@@UAEPAXI@Z 004419b0 f i ImageObjectDemo.obj
 0001:000409f0       ??_GBouncingObject@@UAEPAXI@Z 004419f0 f i ImageObjectDemo.obj
 0001:000409f0       ??_EBouncingObject@@UAEPAXI@Z 004419f0 f i ImageObjectDemo.obj
 0001:00040a30       ?drawForegroundRectangle@BaseEngine@@QAEXHHHHI@Z 00441a30 f i ImageObjectDemo.obj
 0001:00040a70       ?getBackgroundSurface@BaseEngine@@QAEPAVDrawingSurface@@XZ 00441a70 f i ImageObjectDemo.obj
 0001:00040a90       ?isPaused@BaseEngine@@QAE_NXZ 00441a90 f i ImageObjectDemo.obj
 0001:00040ad0       ?loadImage@BaseEngine@@QAE?AVSimpleImage@@V?$basic_string@DU?$char_traits@D@std@@V?$allocator@D@2@@std@@_N@Z 00441ad0 f i ImageObjectDemo.obj
 0001:00040b90       ?lockAndSetupBackground@BaseEngine@@QAEXXZ 00441b90 f i ImageObjectDemo.obj
 0001:00040bd0       ?lockBackgroundForDrawing@BaseEngine@@QAEXXZ 00441bd0 f i ImageObjectDemo.obj
 0001:00040bf0       ?pause@BaseEngine@@QAEXXZ  00441bf0 f i ImageObjectDemo.obj
 0001:00040c20       ?shrinkBy@SimpleImage@@QAE?AV1@H@Z 00441c20 f i ImageObjectDemo.obj
 0001:00040d30       ?unlockBackgroundForDrawing@BaseEngine@@QAEXXZ 00441d30 f i ImageObjectDemo.obj
 0001:00040d50       ?unpause@BaseEngine@@QAEXXZ 00441d50 f i ImageObjectDemo.obj
 0001:00040da0       ?virtDoUpdate@BouncingObject@@UAEXH@Z 00441da0 f i ImageObjectDemo.obj
 0001:000411a0       ?virtDraw@BouncingImageObject@@UAEXXZ 004421a0 f i ImageObjectDemo.obj
 0001:00041220       ?virtDraw@BouncingObject@@UAEXXZ 00442220 f i ImageObjectDemo.obj
 0001:000412c0       __vsnprintf_l              004422c0 f i ImageObjectDemo.obj
 0001:00041330       __vsprintf_l               00442330 f i ImageObjectDemo.obj
 0001:00041360       _sprintf                   00442360 f i ImageObjectDemo.obj
 0001:000413a0       ?savePositions@JigsawDemo@@QAEXXZ 004423a0 f   JigsawDemo.obj
 0001:00041410       ?virtSetupBackgroundBuffer@JigsawDemo@@UAEXXZ 00442410 f   JigsawDemo.obj
 0001:00041430       ?virtInitialise@JigsawDemo@@UAEHXZ 00442430 f   JigsawDemo.obj
 0001:00041480       ?virtInitialiseObjects@JigsawDemo@@UAEHXZ 00442480 f   JigsawDemo.obj
 0001:00041920       ?virtKeyDown@JigsawDemo@@UAEXH@Z 00442920 f   JigsawDemo.obj
 0001:00041a20       ?virtMainLoopDoBeforeUpdate@JigsawDemo@@UAEXXZ 00442a20 f   JigsawDemo.obj
 0001:00041a50       ?virtKeyUp@JigsawDemo@@UAEXH@Z 00442a50 f   JigsawDemo.obj
 0001:00041a70       ?virtRealMouseDown@JigsawDemo@@UAEXHHH@Z 00442a70 f   JigsawDemo.obj
 0001:00041c70       ?virtBackgroundMouseDown@JigsawDemo@@UAEXHHHHH@Z 00442c70 f   JigsawDemo.obj
 0001:00041ca0       ?virtMouseMoved@JigsawDemo@@UAEXHH@Z 00442ca0 f   JigsawDemo.obj
 0001:00041cf0       ?virtMouseUp@JigsawDemo@@UAEXHHH@Z 00442cf0 f   JigsawDemo.obj
 0001:00041d50       ?virtMouseWheel@JigsawDemo@@UAEXHHHH@Z 00442d50 f   JigsawDemo.obj
 0001:00041e10       ?virtPreDraw@JigsawDemo@@UAEXXZ 00442e10 f   JigsawDemo.obj
 0001:00041e20       ?virtPostDraw@JigsawDemo@@UAEXXZ 00442e20 f   JigsawDemo.obj
 0001:000423a0       ??$?0ABV<lambda_2870de01b601283699da779de20905fc>@@X@?$_Func_impl_no_alloc@V<lambda_2870de01b601283699da779de20905fc>@@XPAVDisplayableObject@@@std@@QAE@ABV<lambda_2870de01b601283699da779de20905fc>@@@Z 004433a0 f i JigsawDemo.obj
 0001:000423e0       ??$?0ABV<lambda_341a6657abb2758c42a6873833e6116f>@@X@?$_Func_impl_no_alloc@V<lambda_341a6657abb2758c42a6873833e6116f>@@XPAVDisplayableObject@@@std@@QAE@ABV<lambda_341a6657abb2758c42a6873833e6116f>@@@Z 004433e0 f i JigsawDemo.obj
 0001:00042430       ??$?0ABV<lambda_369f3aee610e50bbd15c3a78d9c8686f>@@X@?$_Func_impl_no_alloc@V<lambda_369f3aee610e50bbd15c3a78d9c8686f>@@XPAVDisplayableObject@@@std@@QAE@ABV<lambda_369f3aee610e50bbd15c3a78d9c8686f>@@@Z 00443430 f i JigsawDemo.obj
 0001:00042480       ??$?0ABV<lambda_4d3c514b9e5ad6cc29096aa3b57f98f2>@@X@?$_Func_impl_no_alloc@V<lambda_4d3c514b9e5ad6cc29096aa3b57f98f2>@@XPAVDisplayableObject@@@std@@QAE@ABV<lambda_4d3c514b9e5ad6cc29096aa3b57f98f2>@@@Z 00443480 f i JigsawDemo.obj
 0001:000424d0       ??$?0ABV<lambda_817584b2460f1bcab806f46a25c321a8>@@X@?$_Func_impl_no_alloc@V<lambda_817584b2460f1bcab806f46a25c321a8>@@XPAVDisplayableObject@@@std@@QAE@ABV<lambda_817584b2460f1bcab806f46a25c321a8>@@@Z 004434d0 f i JigsawDemo.obj
 0001:000425f0       ??$?0V<lambda_2870de01b601283699da779de20905fc>@@X@?$_Func_impl_no_alloc@V<lambda_2870de01b601283699da779de20905fc>@@XPAVDisplayableObject@@@std@@QAE@$$QAV<lambda_2870de01b601283699da779de20905fc>@@@Z 004435f0 f i JigsawDemo.obj
 0001:00042630       ??$?0V<lambda_2870de01b601283699da779de20905fc>@@X@?$function@$$A6AXPAVDisplayableObject@@@Z@std@@QAE@V<lambda_2870de01b601283699da779de20905fc>@@@Z 00443630 f i JigsawDemo.obj
 0001:000426b0       ??$?0V<lambda_341a6657abb2758c42a6873833e6116f>@@X@?$_Func_impl_no_alloc@V<lambda_341a6657abb2758c42a6873833e6116f>@@XPAVDisplayableObject@@@std@@QAE@$$QAV<lambda_341a6657abb2758c42a6873833e6116f>@@@Z 004436b0 f i JigsawDemo.obj
 0001:00042700       ??$?0V<lambda_341a6657abb2758c42a6873833e6116f>@@X@?$function@$$A6AXPAVDisplayableObject@@@Z@std@@QAE@V<lambda_341a6657abb2758c42a6873833e6116f>@@@Z 00443700 f i JigsawDemo.obj
 0001:00042780       ??$?0V<lambda_369f3aee610e50bbd15c3a78d9c8686f>@@X@?$_Func_impl_no_alloc@V<lambda_369f3aee610e50bbd15c3a78d9c8686f>@@XPAVDisplayableObject@@@std@@QAE@$$QAV<lambda_369f3aee610e50bbd15c3a78d9c8686f>@@@Z 00443780 f i JigsawDemo.obj
 0001:000427d0       ??$?0V<lambda_369f3aee610e50bbd15c3a78d9c8686f>@@X@?$function@$$A6AXPAVDisplayableObject@@@Z@std@@QAE@V<lambda_369f3aee610e50bbd15c3a78d9c8686f>@@@Z 004437d0 f i JigsawDemo.obj
 0001:00042850       ??$?0V<lambda_4d3c514b9e5ad6cc29096aa3b57f98f2>@@X@?$_Func_impl_no_alloc@V<lambda_4d3c514b9e5ad6cc29096aa3b57f98f2>@@XPAVDisplayableObject@@@std@@QAE@$$QAV<lambda_4d3c514b9e5ad6cc29096aa3b57f98f2>@@@Z 00443850 f i JigsawDemo.obj
 0001:000428a0       ??$?0V<lambda_4d3c514b9e5ad6cc29096aa3b57f98f2>@@X@?$function@$$A6AXPAVDisplayableObject@@@Z@std@@QAE@V<lambda_4d3c514b9e5ad6cc29096aa3b57f98f2>@@@Z 004438a0 f i JigsawDemo.obj
 0001:00042920       ??$?0V<lambda_817584b2460f1bcab806f46a25c321a8>@@X@?$_Func_impl_no_alloc@V<lambda_817584b2460f1bcab806f46a25c321a8>@@XPAVDisplayableObject@@@std@@QAE@$$QAV<lambda_817584b2460f1bcab806f46a25c321a8>@@@Z 00443920 f i JigsawDemo.obj
 0001:00042970       ??$?0V<lambda_817584b2460f1bcab806f46a25c321a8>@@X@?$function@$$A6AXPAVDisplayableObject@@@Z@std@@QAE@V<lambda_817584b2460f1bcab806f46a25c321a8>@@@Z 00443970 f i JigsawDemo.obj
 0001:00042c40       ??$_Adl_verify_range1@V?$_Vector_const_iterator@V?$_Vector_val@U?$_Simple_types@PAVDisplayableObject@@@std@@@std@@@std@@V12@@std@@YAXABV?$_Vector_const_iterator@V?$_Vector_val@U?$_Simple_types@PAVDisplayableObject@@@std@@@std@@@0@0U?$integral_constant@_N$00@0@@Z 00443c40 f i JigsawDemo.obj
 0001:00042c60       ??$_Adl_verify_range@V?$_Vector_const_iterator@V?$_Vector_val@U?$_Simple_types@PAVDisplayableObject@@@std@@@std@@@std@@V12@@std@@YAXABV?$_Vector_const_iterator@V?$_Vector_val@U?$_Simple_types@PAVDisplayableObject@@@std@@@std@@@0@0@Z 00443c60 f i JigsawDemo.obj
 0001:00042c90       ??$_Call@AAV<lambda_2870de01b601283699da779de20905fc>@@PAVDisplayableObject@@@?$_Invoker_ret@X$00@std@@SAXAAV<lambda_2870de01b601283699da779de20905fc>@@$$QAPAVDisplayableObject@@@Z 00443c90 f i JigsawDemo.obj
 0001:00042cc0       ??$_Call@AAV<lambda_2870de01b601283699da779de20905fc>@@PAVDisplayableObject@@@_Invoker_functor@std@@SAXAAV<lambda_2870de01b601283699da779de20905fc>@@$$QAPAVDisplayableObject@@@Z 00443cc0 f i JigsawDemo.obj
 0001:00042cf0       ??$_Call@AAV<lambda_341a6657abb2758c42a6873833e6116f>@@PAVDisplayableObject@@@?$_Invoker_ret@X$00@std@@SAXAAV<lambda_341a6657abb2758c42a6873833e6116f>@@$$QAPAVDisplayableObject@@@Z 00443cf0 f i JigsawDemo.obj
 0001:00042d20       ??$_Call@AAV<lambda_341a6657abb2758c42a6873833e6116f>@@PAVDisplayableObject@@@_Invoker_functor@std@@SAXAAV<lambda_341a6657abb2758c42a6873833e6116f>@@$$QAPAVDisplayableObject@@@Z 00443d20 f i JigsawDemo.obj
 0001:00042d50       ??$_Call@AAV<lambda_369f3aee610e50bbd15c3a78d9c8686f>@@PAVDisplayableObject@@@?$_Invoker_ret@X$00@std@@SAXAAV<lambda_369f3aee610e50bbd15c3a78d9c8686f>@@$$QAPAVDisplayableObject@@@Z 00443d50 f i JigsawDemo.obj
 0001:00042d80       ??$_Call@AAV<lambda_369f3aee610e50bbd15c3a78d9c8686f>@@PAVDisplayableObject@@@_Invoker_functor@std@@SAXAAV<lambda_369f3aee610e50bbd15c3a78d9c8686f>@@$$QAPAVDisplayableObject@@@Z 00443d80 f i JigsawDemo.obj
 0001:00042db0       ??$_Call@AAV<lambda_4d3c514b9e5ad6cc29096aa3b57f98f2>@@PAVDisplayableObject@@@?$_Invoker_ret@X$00@std@@SAXAAV<lambda_4d3c514b9e5ad6cc29096aa3b57f98f2>@@$$QAPAVDisplayableObject@@@Z 00443db0 f i JigsawDemo.obj
 0001:00042de0       ??$_Call@AAV<lambda_4d3c514b9e5ad6cc29096aa3b57f98f2>@@PAVDisplayableObject@@@_Invoker_functor@std@@SAXAAV<lambda_4d3c514b9e5ad6cc29096aa3b57f98f2>@@$$QAPAVDisplayableObject@@@Z 00443de0 f i JigsawDemo.obj
 0001:00042e10       ??$_Call@AAV<lambda_817584b2460f1bcab806f46a25c321a8>@@PAVDisplayableObject@@@?$_Invoker_ret@X$00@std@@SAXAAV<lambda_817584b2460f1bcab806f46a25c321a8>@@$$QAPAVDisplayableObject@@@Z 00443e10 f i JigsawDemo.obj
 0001:00042e40       ??$_Call@AAV<lambda_817584b2460f1bcab806f46a25c321a8>@@PAVDisplayableObject@@@_Invoker_functor@std@@SAXAAV<lambda_817584b2460f1bcab806f46a25c321a8>@@$$QAPAVDisplayableObject@@@Z 00443e40 f i JigsawDemo.obj
 0001:00042f90       ??$_Get_unwrapped@V?$_Vector_const_iterator@V?$_Vector_val@U?$_Simple_types@PAVDisplayableObject@@@std@@@std@@@std@@$0A@@std@@YA@ABV?$_Vector_const_iterator@V?$_Vector_val@U?$_Simple_types@PAVDisplayableObject@@@std@@@std@@@0@@Z 00443f90 f i JigsawDemo.obj
 0001:00042fa0       ??$_Reset@V<lambda_2870de01b601283699da779de20905fc>@@@?$_Func_class@XPAVDisplayableObject@@@std@@IAEX$$QAV<lambda_2870de01b601283699da779de20905fc>@@@Z 00443fa0 f i JigsawDemo.obj
 0001:00042ff0       ??$_Reset@V<lambda_341a6657abb2758c42a6873833e6116f>@@@?$_Func_class@XPAVDisplayableObject@@@std@@IAEX$$QAV<lambda_341a6657abb2758c42a6873833e6116f>@@@Z 00443ff0 f i JigsawDemo.obj
 0001:00043040       ??$_Reset@V<lambda_369f3aee610e50bbd15c3a78d9c8686f>@@@?$_Func_class@XPAVDisplayableObject@@@std@@IAEX$$QAV<lambda_369f3aee610e50bbd15c3a78d9c8686f>@@@Z 00444040 f i JigsawDemo.obj
 0001:00043090       ??$_Reset@V<lambda_4d3c514b9e5ad6cc29096aa3b57f98f2>@@@?$_Func_class@XPAVDisplayableObject@@@std@@IAEX$$QAV<lambda_4d3c514b9e5ad6cc29096aa3b57f98f2>@@@Z 00444090 f i JigsawDemo.obj
 0001:000430e0       ??$_Reset@V<lambda_817584b2460f1bcab806f46a25c321a8>@@@?$_Func_class@XPAVDisplayableObject@@@std@@IAEX$$QAV<lambda_817584b2460f1bcab806f46a25c321a8>@@@Z 004440e0 f i JigsawDemo.obj
 0001:00043220       ??$_Reset_impl@V?$_Func_impl_no_alloc@V<lambda_2870de01b601283699da779de20905fc>@@XPAVDisplayableObject@@@std@@V<lambda_2870de01b601283699da779de20905fc>@@@?$_Func_class@XPAVDisplayableObject@@@std@@IAEX$$QAV<lambda_2870de01b601283699da779de20905fc>@@U?$integral_constant@_N$0A@@1@@Z 00444220 f i JigsawDemo.obj
 0001:00043280       ??$_Reset_impl@V?$_Func_impl_no_alloc@V<lambda_341a6657abb2758c42a6873833e6116f>@@XPAVDisplayableObject@@@std@@V<lambda_341a6657abb2758c42a6873833e6116f>@@@?$_Func_class@XPAVDisplayableObject@@@std@@IAEX$$QAV<lambda_341a6657abb2758c42a6873833e6116f>@@U?$integral_constant@_N$0A@@1@@Z 00444280 f i JigsawDemo.obj
 0001:000432e0       ??$_Reset_impl@V?$_Func_impl_no_alloc@V<lambda_369f3aee610e50bbd15c3a78d9c8686f>@@XPAVDisplayableObject@@@std@@V<lambda_369f3aee610e50bbd15c3a78d9c8686f>@@@?$_Func_class@XPAVDisplayableObject@@@std@@IAEX$$QAV<lambda_369f3aee610e50bbd15c3a78d9c8686f>@@U?$integral_constant@_N$0A@@1@@Z 004442e0 f i JigsawDemo.obj
 0001:00043340       ??$_Reset_impl@V?$_Func_impl_no_alloc@V<lambda_4d3c514b9e5ad6cc29096aa3b57f98f2>@@XPAVDisplayableObject@@@std@@V<lambda_4d3c514b9e5ad6cc29096aa3b57f98f2>@@@?$_Func_class@XPAVDisplayableObject@@@std@@IAEX$$QAV<lambda_4d3c514b9e5ad6cc29096aa3b57f98f2>@@U?$integral_constant@_N$0A@@1@@Z 00444340 f i JigsawDemo.obj
 0001:000433a0       ??$_Reset_impl@V?$_Func_impl_no_alloc@V<lambda_817584b2460f1bcab806f46a25c321a8>@@XPAVDisplayableObject@@@std@@V<lambda_817584b2460f1bcab806f46a25c321a8>@@@?$_Func_class@XPAVDisplayableObject@@@std@@IAEX$$QAV<lambda_817584b2460f1bcab806f46a25c321a8>@@U?$integral_constant@_N$0A@@1@@Z 004443a0 f i JigsawDemo.obj
 0001:00043520       ??$_Test_callable@V<lambda_2870de01b601283699da779de20905fc>@@@std@@YA_NABV<lambda_2870de01b601283699da779de20905fc>@@@Z 00444520 f i JigsawDemo.obj
 0001:00043540       ??$_Test_callable@V<lambda_2870de01b601283699da779de20905fc>@@@std@@YA_NABV<lambda_2870de01b601283699da779de20905fc>@@U?$integral_constant@_N$0A@@0@@Z 00444540 f i JigsawDemo.obj
 0001:00043550       ??$_Test_callable@V<lambda_341a6657abb2758c42a6873833e6116f>@@@std@@YA_NABV<lambda_341a6657abb2758c42a6873833e6116f>@@@Z 00444550 f i JigsawDemo.obj
 0001:00043570       ??$_Test_callable@V<lambda_341a6657abb2758c42a6873833e6116f>@@@std@@YA_NABV<lambda_341a6657abb2758c42a6873833e6116f>@@U?$integral_constant@_N$0A@@0@@Z 00444570 f i JigsawDemo.obj
 0001:00043580       ??$_Test_callable@V<lambda_369f3aee610e50bbd15c3a78d9c8686f>@@@std@@YA_NABV<lambda_369f3aee610e50bbd15c3a78d9c8686f>@@@Z 00444580 f i JigsawDemo.obj
 0001:000435a0       ??$_Test_callable@V<lambda_369f3aee610e50bbd15c3a78d9c8686f>@@@std@@YA_NABV<lambda_369f3aee610e50bbd15c3a78d9c8686f>@@U?$integral_constant@_N$0A@@0@@Z 004445a0 f i JigsawDemo.obj
 0001:000435b0       ??$_Test_callable@V<lambda_4d3c514b9e5ad6cc29096aa3b57f98f2>@@@std@@YA_NABV<lambda_4d3c514b9e5ad6cc29096aa3b57f98f2>@@@Z 004445b0 f i JigsawDemo.obj
 0001:000435d0       ??$_Test_callable@V<lambda_4d3c514b9e5ad6cc29096aa3b57f98f2>@@@std@@YA_NABV<lambda_4d3c514b9e5ad6cc29096aa3b57f98f2>@@U?$integral_constant@_N$0A@@0@@Z 004445d0 f i JigsawDemo.obj
 0001:000435e0       ??$_Test_callable@V<lambda_817584b2460f1bcab806f46a25c321a8>@@@std@@YA_NABV<lambda_817584b2460f1bcab806f46a25c321a8>@@@Z 004445e0 f i JigsawDemo.obj
 0001:00043600       ??$_Test_callable@V<lambda_817584b2460f1bcab806f46a25c321a8>@@@std@@YA_NABV<lambda_817584b2460f1bcab806f46a25c321a8>@@U?$integral_constant@_N$0A@@0@@Z 00444600 f i JigsawDemo.obj
 0001:000436a0       ??$addressof@$$CBV<lambda_2870de01b601283699da779de20905fc>@@@std@@YAPBV<lambda_2870de01b601283699da779de20905fc>@@ABV1@@Z 004446a0 f i JigsawDemo.obj
 0001:000436b0       ??$addressof@$$CBV<lambda_341a6657abb2758c42a6873833e6116f>@@@std@@YAPBV<lambda_341a6657abb2758c42a6873833e6116f>@@ABV1@@Z 004446b0 f i JigsawDemo.obj
 0001:000436c0       ??$addressof@$$CBV<lambda_369f3aee610e50bbd15c3a78d9c8686f>@@@std@@YAPBV<lambda_369f3aee610e50bbd15c3a78d9c8686f>@@ABV1@@Z 004446c0 f i JigsawDemo.obj
 0001:000436d0       ??$addressof@$$CBV<lambda_4d3c514b9e5ad6cc29096aa3b57f98f2>@@@std@@YAPBV<lambda_4d3c514b9e5ad6cc29096aa3b57f98f2>@@ABV1@@Z 004446d0 f i JigsawDemo.obj
 0001:000436e0       ??$addressof@$$CBV<lambda_817584b2460f1bcab806f46a25c321a8>@@@std@@YAPBV<lambda_817584b2460f1bcab806f46a25c321a8>@@ABV1@@Z 004446e0 f i JigsawDemo.obj
 0001:00043720       ??$addressof@$$CBV?$_Vector_val@U?$_Simple_types@PAVDisplayableObject@@@std@@@std@@@std@@YAPBV?$_Vector_val@U?$_Simple_types@PAVDisplayableObject@@@std@@@0@ABV10@@Z 00444720 f i JigsawDemo.obj
 0001:00043730       ??$for_each@V?$_Vector_const_iterator@V?$_Vector_val@U?$_Simple_types@PAVDisplayableObject@@@std@@@std@@@std@@V?$function@$$A6AXPAVDisplayableObject@@@Z@2@@std@@YA?AV?$function@$$A6AXPAVDisplayableObject@@@Z@0@V?$_Vector_const_iterator@V?$_Vector_val@U?$_Simple_types@PAVDisplayableObject@@@std@@@std@@@0@0V10@@Z 00444730 f i JigsawDemo.obj
 0001:00043840       ??$forward@AAV<lambda_2870de01b601283699da779de20905fc>@@@std@@YAAAV<lambda_2870de01b601283699da779de20905fc>@@AAV1@@Z 00444840 f i JigsawDemo.obj
 0001:00043850       ??$forward@AAV<lambda_341a6657abb2758c42a6873833e6116f>@@@std@@YAAAV<lambda_341a6657abb2758c42a6873833e6116f>@@AAV1@@Z 00444850 f i JigsawDemo.obj
 0001:00043860       ??$forward@AAV<lambda_369f3aee610e50bbd15c3a78d9c8686f>@@@std@@YAAAV<lambda_369f3aee610e50bbd15c3a78d9c8686f>@@AAV1@@Z 00444860 f i JigsawDemo.obj
 0001:00043870       ??$forward@AAV<lambda_4d3c514b9e5ad6cc29096aa3b57f98f2>@@@std@@YAAAV<lambda_4d3c514b9e5ad6cc29096aa3b57f98f2>@@AAV1@@Z 00444870 f i JigsawDemo.obj
 0001:00043880       ??$forward@AAV<lambda_817584b2460f1bcab806f46a25c321a8>@@@std@@YAAAV<lambda_817584b2460f1bcab806f46a25c321a8>@@AAV1@@Z 00444880 f i JigsawDemo.obj
 0001:000438c0       ??$forward@ABV<lambda_2870de01b601283699da779de20905fc>@@@std@@YAABV<lambda_2870de01b601283699da779de20905fc>@@ABV1@@Z 004448c0 f i JigsawDemo.obj
 0001:000438d0       ??$forward@ABV<lambda_341a6657abb2758c42a6873833e6116f>@@@std@@YAABV<lambda_341a6657abb2758c42a6873833e6116f>@@ABV1@@Z 004448d0 f i JigsawDemo.obj
 0001:000438e0       ??$forward@ABV<lambda_369f3aee610e50bbd15c3a78d9c8686f>@@@std@@YAABV<lambda_369f3aee610e50bbd15c3a78d9c8686f>@@ABV1@@Z 004448e0 f i JigsawDemo.obj
 0001:000438f0       ??$forward@ABV<lambda_4d3c514b9e5ad6cc29096aa3b57f98f2>@@@std@@YAABV<lambda_4d3c514b9e5ad6cc29096aa3b57f98f2>@@ABV1@@Z 004448f0 f i JigsawDemo.obj
 0001:00043900       ??$forward@ABV<lambda_817584b2460f1bcab806f46a25c321a8>@@@std@@YAABV<lambda_817584b2460f1bcab806f46a25c321a8>@@ABV1@@Z 00444900 f i JigsawDemo.obj
 0001:00043940       ??$forward@PAVDisplayableObject@@@std@@YA$$QAPAVDisplayableObject@@AAPAV1@@Z 00444940 f i JigsawDemo.obj
 0001:00043950       ??$forward@V<lambda_2870de01b601283699da779de20905fc>@@@std@@YA$$QAV<lambda_2870de01b601283699da779de20905fc>@@AAV1@@Z 00444950 f i JigsawDemo.obj
 0001:00043960       ??$forward@V<lambda_341a6657abb2758c42a6873833e6116f>@@@std@@YA$$QAV<lambda_341a6657abb2758c42a6873833e6116f>@@AAV1@@Z 00444960 f i JigsawDemo.obj
 0001:00043970       ??$forward@V<lambda_369f3aee610e50bbd15c3a78d9c8686f>@@@std@@YA$$QAV<lambda_369f3aee610e50bbd15c3a78d9c8686f>@@AAV1@@Z 00444970 f i JigsawDemo.obj
 0001:00043980       ??$forward@V<lambda_4d3c514b9e5ad6cc29096aa3b57f98f2>@@@std@@YA$$QAV<lambda_4d3c514b9e5ad6cc29096aa3b57f98f2>@@AAV1@@Z 00444980 f i JigsawDemo.obj
 0001:00043990       ??$forward@V<lambda_817584b2460f1bcab806f46a25c321a8>@@@std@@YA$$QAV<lambda_817584b2460f1bcab806f46a25c321a8>@@AAV1@@Z 00444990 f i JigsawDemo.obj
 0001:000439d0       ??$invoke@AAV<lambda_2870de01b601283699da779de20905fc>@@PAVDisplayableObject@@@std@@YAXAAV<lambda_2870de01b601283699da779de20905fc>@@$$QAPAVDisplayableObject@@@Z 004449d0 f i JigsawDemo.obj
 0001:00043a00       ??$invoke@AAV<lambda_341a6657abb2758c42a6873833e6116f>@@PAVDisplayableObject@@@std@@YAXAAV<lambda_341a6657abb2758c42a6873833e6116f>@@$$QAPAVDisplayableObject@@@Z 00444a00 f i JigsawDemo.obj
 0001:00043a30       ??$invoke@AAV<lambda_369f3aee610e50bbd15c3a78d9c8686f>@@PAVDisplayableObject@@@std@@YAXAAV<lambda_369f3aee610e50bbd15c3a78d9c8686f>@@$$QAPAVDisplayableObject@@@Z 00444a30 f i JigsawDemo.obj
 0001:00043a60       ??$invoke@AAV<lambda_4d3c514b9e5ad6cc29096aa3b57f98f2>@@PAVDisplayableObject@@@std@@YAXAAV<lambda_4d3c514b9e5ad6cc29096aa3b57f98f2>@@$$QAPAVDisplayableObject@@@Z 00444a60 f i JigsawDemo.obj
 0001:00043a90       ??$invoke@AAV<lambda_817584b2460f1bcab806f46a25c321a8>@@PAVDisplayableObject@@@std@@YAXAAV<lambda_817584b2460f1bcab806f46a25c321a8>@@$$QAPAVDisplayableObject@@@Z 00444a90 f i JigsawDemo.obj
 0001:00043b50       ??$move@AAH@std@@YA$$QAHAAH@Z 00444b50 f i JigsawDemo.obj
 0001:00043b60       ??$move@AAV<lambda_2870de01b601283699da779de20905fc>@@@std@@YA$$QAV<lambda_2870de01b601283699da779de20905fc>@@AAV1@@Z 00444b60 f i JigsawDemo.obj
 0001:00043b70       ??$move@AAV<lambda_341a6657abb2758c42a6873833e6116f>@@@std@@YA$$QAV<lambda_341a6657abb2758c42a6873833e6116f>@@AAV1@@Z 00444b70 f i JigsawDemo.obj
 0001:00043b80       ??$move@AAV<lambda_369f3aee610e50bbd15c3a78d9c8686f>@@@std@@YA$$QAV<lambda_369f3aee610e50bbd15c3a78d9c8686f>@@AAV1@@Z 00444b80 f i JigsawDemo.obj
 0001:00043b90       ??$move@AAV<lambda_4d3c514b9e5ad6cc29096aa3b57f98f2>@@@std@@YA$$QAV<lambda_4d3c514b9e5ad6cc29096aa3b57f98f2>@@AAV1@@Z 00444b90 f i JigsawDemo.obj
 0001:00043ba0       ??$move@AAV<lambda_817584b2460f1bcab806f46a25c321a8>@@@std@@YA$$QAV<lambda_817584b2460f1bcab806f46a25c321a8>@@AAV1@@Z 00444ba0 f i JigsawDemo.obj
 0001:00043be0       ??$move@AAV?$function@$$A6AXPAVDisplayableObject@@@Z@std@@@std@@YA$$QAV?$function@$$A6AXPAVDisplayableObject@@@Z@0@AAV10@@Z 00444be0 f i JigsawDemo.obj
 0001:00043bf0       ??$swap@HX@std@@YAXAAH0@Z  00444bf0 f i JigsawDemo.obj
 0001:00043c40       ??0<lambda_341a6657abb2758c42a6873833e6116f>@@QAE@QAVJigsawPiece@@@Z 00444c40 f i JigsawDemo.obj
 0001:00043c60       ??0<lambda_369f3aee610e50bbd15c3a78d9c8686f>@@QAE@QAVJigsawPiece@@@Z 00444c60 f i JigsawDemo.obj
 0001:00043c80       ??0<lambda_4d3c514b9e5ad6cc29096aa3b57f98f2>@@QAE@QAVJigsawPiece@@@Z 00444c80 f i JigsawDemo.obj
 0001:00043ca0       ??0<lambda_817584b2460f1bcab806f46a25c321a8>@@QAE@QAVJigsawPiece@@@Z 00444ca0 f i JigsawDemo.obj
 0001:00043cf0       ??0?$_Func_base@XPAVDisplayableObject@@@std@@QAE@XZ 00444cf0 f i JigsawDemo.obj
 0001:00043d10       ??0?$_Func_class@XPAVDisplayableObject@@@std@@QAE@XZ 00444d10 f i JigsawDemo.obj
 0001:00043d30       ??0?$function@$$A6AXPAVDisplayableObject@@@Z@std@@QAE@$$QAV01@@Z 00444d30 f i JigsawDemo.obj
 0001:00043db0       ??0?$function@$$A6AXPAVDisplayableObject@@@Z@std@@QAE@ABV01@@Z 00444db0 f i JigsawDemo.obj
 0001:00043e30       ??0CoordinateMapping@@QAE@XZ 00444e30 f i JigsawDemo.obj
 0001:00043e50       ??0JigsawPiece@@QAE@PAU_iobuf@@HHPAVJigsawDemo@@V?$basic_string@DU?$char_traits@D@std@@V?$allocator@D@2@@std@@HH@Z 00444e50 f i JigsawDemo.obj
 0001:00044240       ??1?$_Func_class@XPAVDisplayableObject@@@std@@QAE@XZ 00445240 f i JigsawDemo.obj
 0001:00044260       ??1?$function@$$A6AXPAVDisplayableObject@@@Z@std@@QAE@XZ 00445260 f i JigsawDemo.obj
 0001:00044280       ??1JigsawPiece@@UAE@XZ     00445280 f i JigsawDemo.obj
 0001:000442a0       ??R<lambda_2870de01b601283699da779de20905fc>@@QBE@PAVDisplayableObject@@@Z 004452a0 f i JigsawDemo.obj
 0001:000442d0       ??R<lambda_341a6657abb2758c42a6873833e6116f>@@QBE@PAVDisplayableObject@@@Z 004452d0 f i JigsawDemo.obj
 0001:00044300       ??R<lambda_369f3aee610e50bbd15c3a78d9c8686f>@@QBE@PAVDisplayableObject@@@Z 00445300 f i JigsawDemo.obj
 0001:00044330       ??R<lambda_4d3c514b9e5ad6cc29096aa3b57f98f2>@@QBE@PAVDisplayableObject@@@Z 00445330 f i JigsawDemo.obj
 0001:00044360       ??R<lambda_817584b2460f1bcab806f46a25c321a8>@@QBE@PAVDisplayableObject@@@Z 00445360 f i JigsawDemo.obj
 0001:00044450       ??R?$_Func_class@XPAVDisplayableObject@@@std@@QBEXPAVDisplayableObject@@@Z 00445450 f i JigsawDemo.obj
 0001:000444b0       ??_GJigsawPiece@@UAEPAXI@Z 004454b0 f i JigsawDemo.obj
 0001:000444b0       ??_EJigsawPiece@@UAEPAXI@Z 004454b0 f i JigsawDemo.obj
 0001:000444f0       ?_Clone@?$_Func_impl_no_alloc@V<lambda_2870de01b601283699da779de20905fc>@@XPAVDisplayableObject@@@std@@ABEPAV?$_Func_base@XPAVDisplayableObject@@@2@PAXU?$integral_constant@_N$0A@@2@@Z 004454f0 f i JigsawDemo.obj
 0001:00044530       ?_Clone@?$_Func_impl_no_alloc@V<lambda_341a6657abb2758c42a6873833e6116f>@@XPAVDisplayableObject@@@std@@ABEPAV?$_Func_base@XPAVDisplayableObject@@@2@PAXU?$integral_constant@_N$0A@@2@@Z 00445530 f i JigsawDemo.obj
 0001:00044570       ?_Clone@?$_Func_impl_no_alloc@V<lambda_369f3aee610e50bbd15c3a78d9c8686f>@@XPAVDisplayableObject@@@std@@ABEPAV?$_Func_base@XPAVDisplayableObject@@@2@PAXU?$integral_constant@_N$0A@@2@@Z 00445570 f i JigsawDemo.obj
 0001:000445b0       ?_Clone@?$_Func_impl_no_alloc@V<lambda_4d3c514b9e5ad6cc29096aa3b57f98f2>@@XPAVDisplayableObject@@@std@@ABEPAV?$_Func_base@XPAVDisplayableObject@@@2@PAXU?$integral_constant@_N$0A@@2@@Z 004455b0 f i JigsawDemo.obj
 0001:000445f0       ?_Clone@?$_Func_impl_no_alloc@V<lambda_817584b2460f1bcab806f46a25c321a8>@@XPAVDisplayableObject@@@std@@ABEPAV?$_Func_base@XPAVDisplayableObject@@@2@PAXU?$integral_constant@_N$0A@@2@@Z 004455f0 f i JigsawDemo.obj
 0001:000446f0       ?_Copy@?$_Func_impl_no_alloc@V<lambda_2870de01b601283699da779de20905fc>@@XPAVDisplayableObject@@@std@@EBEPAV?$_Func_base@XPAVDisplayableObject@@@2@PAX@Z 004456f0 f i JigsawDemo.obj
 0001:00044720       ?_Copy@?$_Func_impl_no_alloc@V<lambda_341a6657abb2758c42a6873833e6116f>@@XPAVDisplayableObject@@@std@@EBEPAV?$_Func_base@XPAVDisplayableObject@@@2@PAX@Z 00445720 f i JigsawDemo.obj
 0001:00044750       ?_Copy@?$_Func_impl_no_alloc@V<lambda_369f3aee610e50bbd15c3a78d9c8686f>@@XPAVDisplayableObject@@@std@@EBEPAV?$_Func_base@XPAVDisplayableObject@@@2@PAX@Z 00445750 f i JigsawDemo.obj
 0001:00044780       ?_Copy@?$_Func_impl_no_alloc@V<lambda_4d3c514b9e5ad6cc29096aa3b57f98f2>@@XPAVDisplayableObject@@@std@@EBEPAV?$_Func_base@XPAVDisplayableObject@@@2@PAX@Z 00445780 f i JigsawDemo.obj
 0001:000447b0       ?_Copy@?$_Func_impl_no_alloc@V<lambda_817584b2460f1bcab806f46a25c321a8>@@XPAVDisplayableObject@@@std@@EBEPAV?$_Func_base@XPAVDisplayableObject@@@2@PAX@Z 004457b0 f i JigsawDemo.obj
 0001:00044870       ?_Delete_this@?$_Func_impl_no_alloc@V<lambda_2870de01b601283699da779de20905fc>@@XPAVDisplayableObject@@@std@@EAEX_N@Z 00445870 f i JigsawDemo.obj
 0001:000448d0       ?_Delete_this@?$_Func_impl_no_alloc@V<lambda_341a6657abb2758c42a6873833e6116f>@@XPAVDisplayableObject@@@std@@EAEX_N@Z 004458d0 f i JigsawDemo.obj
 0001:00044930       ?_Delete_this@?$_Func_impl_no_alloc@V<lambda_369f3aee610e50bbd15c3a78d9c8686f>@@XPAVDisplayableObject@@@std@@EAEX_N@Z 00445930 f i JigsawDemo.obj
 0001:00044990       ?_Delete_this@?$_Func_impl_no_alloc@V<lambda_4d3c514b9e5ad6cc29096aa3b57f98f2>@@XPAVDisplayableObject@@@std@@EAEX_N@Z 00445990 f i JigsawDemo.obj
 0001:000449f0       ?_Delete_this@?$_Func_impl_no_alloc@V<lambda_817584b2460f1bcab806f46a25c321a8>@@XPAVDisplayableObject@@@std@@EAEX_N@Z 004459f0 f i JigsawDemo.obj
 0001:00044b70       ?_Do_call@?$_Func_impl_no_alloc@V<lambda_2870de01b601283699da779de20905fc>@@XPAVDisplayableObject@@@std@@EAEX$$QAPAVDisplayableObject@@@Z 00445b70 f i JigsawDemo.obj
 0001:00044bb0       ?_Do_call@?$_Func_impl_no_alloc@V<lambda_341a6657abb2758c42a6873833e6116f>@@XPAVDisplayableObject@@@std@@EAEX$$QAPAVDisplayableObject@@@Z 00445bb0 f i JigsawDemo.obj
 0001:00044bf0       ?_Do_call@?$_Func_impl_no_alloc@V<lambda_369f3aee610e50bbd15c3a78d9c8686f>@@XPAVDisplayableObject@@@std@@EAEX$$QAPAVDisplayableObject@@@Z 00445bf0 f i JigsawDemo.obj
 0001:00044c30       ?_Do_call@?$_Func_impl_no_alloc@V<lambda_4d3c514b9e5ad6cc29096aa3b57f98f2>@@XPAVDisplayableObject@@@std@@EAEX$$QAPAVDisplayableObject@@@Z 00445c30 f i JigsawDemo.obj
 0001:00044c70       ?_Do_call@?$_Func_impl_no_alloc@V<lambda_817584b2460f1bcab806f46a25c321a8>@@XPAVDisplayableObject@@@std@@EAEX$$QAPAVDisplayableObject@@@Z 00445c70 f i JigsawDemo.obj
 0001:00044d70       ?_Empty@?$_Func_class@XPAVDisplayableObject@@@std@@IBE_NXZ 00445d70 f i JigsawDemo.obj
 0001:00044db0       ?_Get@?$_Func_impl_no_alloc@V<lambda_2870de01b601283699da779de20905fc>@@XPAVDisplayableObject@@@std@@EBEPBXXZ 00445db0 f i JigsawDemo.obj
 0001:00044dd0       ?_Get@?$_Func_impl_no_alloc@V<lambda_341a6657abb2758c42a6873833e6116f>@@XPAVDisplayableObject@@@std@@EBEPBXXZ 00445dd0 f i JigsawDemo.obj
 0001:00044df0       ?_Get@?$_Func_impl_no_alloc@V<lambda_369f3aee610e50bbd15c3a78d9c8686f>@@XPAVDisplayableObject@@@std@@EBEPBXXZ 00445df0 f i JigsawDemo.obj
 0001:00044e10       ?_Get@?$_Func_impl_no_alloc@V<lambda_4d3c514b9e5ad6cc29096aa3b57f98f2>@@XPAVDisplayableObject@@@std@@EBEPBXXZ 00445e10 f i JigsawDemo.obj
 0001:00044e30       ?_Get@?$_Func_impl_no_alloc@V<lambda_817584b2460f1bcab806f46a25c321a8>@@XPAVDisplayableObject@@@std@@EBEPBXXZ 00445e30 f i JigsawDemo.obj
 0001:00044eb0       ?_Getimpl@?$_Func_class@XPAVDisplayableObject@@@std@@ABEPAV?$_Func_base@XPAVDisplayableObject@@@2@XZ 00445eb0 f i JigsawDemo.obj
 0001:00044ed0       ?_Getspace@?$_Func_class@XPAVDisplayableObject@@@std@@AAEPAXXZ 00445ed0 f i JigsawDemo.obj
 0001:00044ef0       ?_Getspace@?$_Func_class@XPAVDisplayableObject@@@std@@ABEPBXXZ 00445ef0 f i JigsawDemo.obj
 0001:00044f10       ?_Local@?$_Func_class@XPAVDisplayableObject@@@std@@ABE_NXZ 00445f10 f i JigsawDemo.obj
 0001:00044f60       ?_Move@?$_Func_impl_no_alloc@V<lambda_2870de01b601283699da779de20905fc>@@XPAVDisplayableObject@@@std@@EAEPAV?$_Func_base@XPAVDisplayableObject@@@2@PAX@Z 00445f60 f i JigsawDemo.obj
 0001:00044fb0       ?_Move@?$_Func_impl_no_alloc@V<lambda_341a6657abb2758c42a6873833e6116f>@@XPAVDisplayableObject@@@std@@EAEPAV?$_Func_base@XPAVDisplayableObject@@@2@PAX@Z 00445fb0 f i JigsawDemo.obj
 0001:00045000       ?_Move@?$_Func_impl_no_alloc@V<lambda_369f3aee610e50bbd15c3a78d9c8686f>@@XPAVDisplayableObject@@@std@@EAEPAV?$_Func_base@XPAVDisplayableObject@@@2@PAX@Z 00446000 f i JigsawDemo.obj
 0001:00045050       ?_Move@?$_Func_impl_no_alloc@V<lambda_4d3c514b9e5ad6cc29096aa3b57f98f2>@@XPAVDisplayableObject@@@std@@EAEPAV?$_Func_base@XPAVDisplayableObject@@@2@PAX@Z 00446050 f i JigsawDemo.obj
 0001:000450a0       ?_Move@?$_Func_impl_no_alloc@V<lambda_817584b2460f1bcab806f46a25c321a8>@@XPAVDisplayableObject@@@std@@EAEPAV?$_Func_base@XPAVDisplayableObject@@@2@PAX@Z 004460a0 f i JigsawDemo.obj
 0001:000451e0       ?_Reset_copy@?$_Func_class@XPAVDisplayableObject@@@std@@IAEXABV12@@Z 004461e0 f i JigsawDemo.obj
 0001:00045240       ?_Reset_move@?$_Func_class@XPAVDisplayableObject@@@std@@IAEX$$QAV12@@Z 00446240 f i JigsawDemo.obj
 0001:000452e0       ?_Set@?$_Func_class@XPAVDisplayableObject@@@std@@AAEXPAV?$_Func_base@XPAVDisplayableObject@@@2@@Z 004462e0 f i JigsawDemo.obj
 0001:00045310       ?_Target_type@?$_Func_impl_no_alloc@V<lambda_2870de01b601283699da779de20905fc>@@XPAVDisplayableObject@@@std@@EBEABVtype_info@@XZ 00446310 f i JigsawDemo.obj
 0001:00045330       ?_Target_type@?$_Func_impl_no_alloc@V<lambda_341a6657abb2758c42a6873833e6116f>@@XPAVDisplayableObject@@@std@@EBEABVtype_info@@XZ 00446330 f i JigsawDemo.obj
 0001:00045350       ?_Target_type@?$_Func_impl_no_alloc@V<lambda_369f3aee610e50bbd15c3a78d9c8686f>@@XPAVDisplayableObject@@@std@@EBEABVtype_info@@XZ 00446350 f i JigsawDemo.obj
 0001:00045370       ?_Target_type@?$_Func_impl_no_alloc@V<lambda_4d3c514b9e5ad6cc29096aa3b57f98f2>@@XPAVDisplayableObject@@@std@@EBEABVtype_info@@XZ 00446370 f i JigsawDemo.obj
 0001:00045390       ?_Target_type@?$_Func_impl_no_alloc@V<lambda_817584b2460f1bcab806f46a25c321a8>@@XPAVDisplayableObject@@@std@@EBEABVtype_info@@XZ 00446390 f i JigsawDemo.obj
 0001:00045410       ?_Tidy@?$_Func_class@XPAVDisplayableObject@@@std@@IAEXXZ 00446410 f i JigsawDemo.obj
 0001:00045490       ?_Unwrapped@?$_Vector_const_iterator@V?$_Vector_val@U?$_Simple_types@PAVDisplayableObject@@@std@@@std@@@std@@QBEPBQAVDisplayableObject@@XZ 00446490 f i JigsawDemo.obj
 0001:000454b0       ?applyToAll@DisplayableObjectContainer@@QBEXV?$function@$$A6AXPAVDisplayableObject@@@Z@std@@@Z 004464b0 f i JigsawDemo.obj
 0001:00045590       ?begin@?$vector@PAVDisplayableObject@@V?$allocator@PAVDisplayableObject@@@std@@@std@@QBE?AV?$_Vector_const_iterator@V?$_Vector_val@U?$_Simple_types@PAVDisplayableObject@@@std@@@std@@@2@XZ 00446590 f i JigsawDemo.obj
 0001:00045610       ?changeOffset@FilterPointsTranslation@@QAEXHH@Z 00446610 f i JigsawDemo.obj
 0001:00045650       ?changePixelColour@CoordinateMapping@@UAE_NHHAAHPAVDrawingSurface@@@Z 00446650 f i JigsawDemo.obj
 0001:00045670       ?checkForLinksWithOthers@JigsawPiece@@QAEXXZ 00446670 f i JigsawDemo.obj
 0001:00045790       ?checkJoinBottom@JigsawPiece@@QAEXPAV1@@Z 00446790 f i JigsawDemo.obj
 0001:00045860       ?checkJoinLeft@JigsawPiece@@QAEXPAV1@@Z 00446860 f i JigsawDemo.obj
 0001:00045930       ?checkJoinRight@JigsawPiece@@QAEXPAV1@@Z 00446930 f i JigsawDemo.obj
 0001:00045a00       ?checkJoinTop@JigsawPiece@@QAEXPAV1@@Z 00446a00 f i JigsawDemo.obj
 0001:00045ad0       ?compress@FilterPointsScaling@@QAEXXZ 00446ad0 f i JigsawDemo.obj
 0001:00045b00       ?compressX@FilterPointsScaling@@QAEXXZ 00446b00 f i JigsawDemo.obj
 0001:00045b50       ?compressY@FilterPointsScaling@@QAEXXZ 00446b50 f i JigsawDemo.obj
 0001:00045ba0       ?convertClickedToVirtualPixelXPosition@BaseEngine@@QAEHH@Z 00446ba0 f i JigsawDemo.obj
 0001:00045bd0       ?convertClickedToVirtualPixelYPosition@BaseEngine@@QAEHH@Z 00446bd0 f i JigsawDemo.obj
 0001:00045c00       ?doDragRedraw@JigsawPiece@@UAEXXZ 00446c00 f i JigsawDemo.obj
 0001:00045c20       ?end@?$vector@PAVDisplayableObject@@V?$allocator@PAVDisplayableObject@@@std@@@std@@QBE?AV?$_Vector_const_iterator@V?$_Vector_val@U?$_Simple_types@PAVDisplayableObject@@@std@@@std@@@2@XZ 00446c20 f i JigsawDemo.obj
 0001:00045ca0       ?getMode@JigsawDemo@@QAE?AW4mode@1@XZ 00446ca0 f i JigsawDemo.obj
 0001:00045cc0       ?getXInImage@JigsawPiece@@QAEHXZ 00446cc0 f i JigsawDemo.obj
 0001:00045ce0       ?getYInImage@JigsawPiece@@QAEHXZ 00446ce0 f i JigsawDemo.obj
 0001:00045d00       ?joinBottom@JigsawPiece@@QAEXPAV1@@Z 00446d00 f i JigsawDemo.obj
 0001:00045d30       ?joinLeft@JigsawPiece@@QAEXPAV1@@Z 00446d30 f i JigsawDemo.obj
 0001:00045d60       ?joinRight@JigsawPiece@@QAEXPAV1@@Z 00446d60 f i JigsawDemo.obj
 0001:00045d90       ?joinTop@JigsawPiece@@QAEXPAV1@@Z 00446d90 f i JigsawDemo.obj
 0001:00045dc0       ?mapCoordinates@JigsawPiece@@UAE_NAAN0ABVSimpleImage@@@Z 00446dc0 f i JigsawDemo.obj
 0001:00045f90       ?moveToLast@DisplayableObjectContainer@@QAE_NPAVDisplayableObject@@@Z 00446f90 f i JigsawDemo.obj
 0001:00046120       ?recursiveDrag@JigsawPiece@@UAEXHH@Z 00447120 f i JigsawDemo.obj
 0001:00046280       ?setFilter@JigsawPiece@@QAEXPAVPieceFilter@@@Z 00447280 f i JigsawDemo.obj
 0001:000462a0       ?setOffset@FilterPointsTranslation@@QAEXHH@Z 004472a0 f i JigsawDemo.obj
 0001:000462d0       ?shouldDraw@PieceFilter@@QAE_NHH@Z 004472d0 f i JigsawDemo.obj
 0001:00046350       ?stretch@FilterPointsScaling@@QAEXXZ 00447350 f i JigsawDemo.obj
 0001:00046380       ?stretchX@FilterPointsScaling@@QAEXXZ 00447380 f i JigsawDemo.obj
 0001:000463d0       ?stretchY@FilterPointsScaling@@QAEXXZ 004473d0 f i JigsawDemo.obj
 0001:00046420       ?virtDraw@JigsawPiece@@UAEXXZ 00447420 f i JigsawDemo.obj
 0001:000464d0       ?virtMouseDown@JigsawPiece@@UAEXHHH@Z 004474d0 f i JigsawDemo.obj
 0001:00046500       ?virtMouseMoved@JigsawPiece@@UAEXHH@Z 00447500 f i JigsawDemo.obj
 0001:000465e0       ?virtMouseUp@JigsawPiece@@UAEXHHH@Z 004475e0 f i JigsawDemo.obj
 0001:000466a0       ?virtSingleItemMouseDown@JigsawPiece@@UAE_NHHH@Z 004476a0 f i JigsawDemo.obj
 0001:00046810       ?write@JigsawPiece@@QAEXPAU_iobuf@@H@Z 00447810 f i JigsawDemo.obj
 0001:00046880       ?zoomIn@JigsawDemo@@QAEXXZ 00447880 f i JigsawDemo.obj
 0001:00046950       ?zoomOut@JigsawDemo@@QAEXXZ 00447950 f i JigsawDemo.obj
 0001:00046a20       _fprintf                   00447a20 f i JigsawDemo.obj
 0001:00046a60       ??0KSP2D@@QAE@XZ           00447a60 f   KSP2D.obj
 0001:00046c20       ?virtSetupBackgroundBuffer@KSP2D@@UAEXXZ 00447c20 f   KSP2D.obj
 0001:00046c40       ?virtCleanUp@KSP2D@@UAEXXZ 00447c40 f   KSP2D.obj
 0001:00046c50       ?virtInitialise@KSP2D@@UAEHXZ 00447c50 f   KSP2D.obj
 0001:00046ce0       ?virtInitialiseObjects@KSP2D@@UAEHXZ 00447ce0 f   KSP2D.obj
 0001:000479c0       ?virtMainLoopPreUpdate@KSP2D@@UAEXXZ 004489c0 f   KSP2D.obj
 0001:00047b00       ?virtMainLoopDoBeforeUpdate@KSP2D@@UAEXXZ 00448b00 f   KSP2D.obj
 0001:00047b10       ?virtMainLoopPostUpdate@KSP2D@@UAEXXZ 00448b10 f   KSP2D.obj
 0001:00047bd0       ?virtPostDraw@KSP2D@@UAEXXZ 00448bd0 f   KSP2D.obj
 0001:00047cf0       ?virtMouseDown@KSP2D@@UAEXHHH@Z 00448cf0 f   KSP2D.obj
 0001:00047d10       ?speedUpGravObjs@KSP2D@@QAEXO@Z 00448d10 f   KSP2D.obj
 0001:00047dc0       ?setPlanetScale@KSP2D@@QAEXOPAVVec2D@@@Z 00448dc0 f   KSP2D.obj
 0001:00047ea0       ?checkKeyInputs@KSP2D@@QAEXXZ 00448ea0 f   KSP2D.obj
 0001:00048410       ?drawForegroundEllipse@KSP2D@@QAEXJJJJI@Z 00449410 f   KSP2D.obj
 0001:00048620       ?plot4EllipsePoints@KSP2D@@QAEXJJJJI@Z 00449620 f   KSP2D.obj
 0001:000486c0       ?drawForegroundArrow@KSP2D@@QAEXHHVVec2D@@HI@Z 004496c0 f   KSP2D.obj
 0001:00048800       ?buildPlayerSpacecraft@KSP2D@@QAEXXZ 00449800 f   KSP2D.obj
 0001:000488f0       ?addNewSpacecraft@KSP2D@@QAEXXZ 004498f0 f   KSP2D.obj
 0001:00048c70       ?spacecraftDestroyed@KSP2D@@QAEXXZ 00449c70 f   KSP2D.obj
 0001:00048f40       ?changeSkyColour@KSP2D@@QAEXN@Z 00449f40 f   KSP2D.obj
 0001:00049940       ??$?0$$V@?$_Compressed_pair@V?$allocator@PAVCelestialBody@@@std@@V?$_Vector_val@U?$_Simple_types@PAVCelestialBody@@@std@@@2@$00@std@@QAE@U_Zero_then_variadic_args_t@1@@Z 0044a940 f i KSP2D.obj
 0001:00049970       ??$?0$$V@?$_Compressed_pair@V?$allocator@PAVPlanetObject@@@std@@V?$_Vector_val@U?$_Simple_types@PAVPlanetObject@@@std@@@2@$00@std@@QAE@U_Zero_then_variadic_args_t@1@@Z 0044a970 f i KSP2D.obj
 0001:000499a0       ??$?0$$V@?$_Compressed_pair@V?$allocator@PAVSpacecraft@@@std@@V?$_Vector_val@U?$_Simple_types@PAVSpacecraft@@@std@@@2@$00@std@@QAE@U_Zero_then_variadic_args_t@1@@Z 0044a9a0 f i KSP2D.obj
 0001:000499d0       ??$?0PAVCelestialBody@@@?$allocator@U_Container_proxy@std@@@std@@QAE@ABV?$allocator@PAVCelestialBody@@@1@@Z 0044a9d0 f i KSP2D.obj
 0001:000499f0       ??$?0PAVPlanetObject@@@?$allocator@U_Container_proxy@std@@@std@@QAE@ABV?$allocator@PAVPlanetObject@@@1@@Z 0044a9f0 f i KSP2D.obj
 0001:00049a10       ??$?0PAVSpacecraft@@@?$allocator@U_Container_proxy@std@@@std@@QAE@ABV?$allocator@PAVSpacecraft@@@1@@Z 0044aa10 f i KSP2D.obj
 0001:00049a30       ??$?HDU?$char_traits@D@std@@V?$allocator@D@1@@std@@YA?AV?$basic_string@DU?$char_traits@D@std@@V?$allocator@D@2@@0@QBDABV10@@Z 0044aa30 f i KSP2D.obj
 0001:00049b30       ??$_Copy_backward_memmove@PAPAVDisplayableObject@@PAPAV1@@std@@YAPAPAVDisplayableObject@@PAPAV1@00@Z 0044ab30 f i KSP2D.obj
 0001:00049b80       ??$_Copy_memmove@PAPAVCelestialBody@@PAPAV1@@std@@YAPAPAVCelestialBody@@PAPAV1@00@Z 0044ab80 f i KSP2D.obj
 0001:00049bd0       ??$_Copy_memmove@PAPAVPlanetObject@@PAPAV1@@std@@YAPAPAVPlanetObject@@PAPAV1@00@Z 0044abd0 f i KSP2D.obj
 0001:00049c20       ??$_Copy_memmove@PAPAVSpacecraft@@PAPAV1@@std@@YAPAPAVSpacecraft@@PAPAV1@00@Z 0044ac20 f i KSP2D.obj
 0001:00049c70       ??$_Destroy_range1@V?$allocator@PAVCelestialBody@@@std@@@std@@YAXPAPAVCelestialBody@@0AAV?$allocator@PAVCelestialBody@@@0@U?$integral_constant@_N$00@0@@Z 0044ac70 f i KSP2D.obj
 0001:00049c80       ??$_Destroy_range1@V?$allocator@PAVPlanetObject@@@std@@@std@@YAXPAPAVPlanetObject@@0AAV?$allocator@PAVPlanetObject@@@0@U?$integral_constant@_N$00@0@@Z 0044ac80 f i KSP2D.obj
 0001:00049c90       ??$_Destroy_range1@V?$allocator@PAVSpacecraft@@@std@@@std@@YAXPAPAVSpacecraft@@0AAV?$allocator@PAVSpacecraft@@@0@U?$integral_constant@_N$00@0@@Z 0044ac90 f i KSP2D.obj
 0001:00049ca0       ??$_Destroy_range@V?$allocator@PAVCelestialBody@@@std@@@std@@YAXPAPAVCelestialBody@@0AAV?$allocator@PAVCelestialBody@@@0@@Z 0044aca0 f i KSP2D.obj
 0001:00049cd0       ??$_Destroy_range@V?$allocator@PAVPlanetObject@@@std@@@std@@YAXPAPAVPlanetObject@@0AAV?$allocator@PAVPlanetObject@@@0@@Z 0044acd0 f i KSP2D.obj
 0001:00049d00       ??$_Destroy_range@V?$allocator@PAVSpacecraft@@@std@@@std@@YAXPAPAVSpacecraft@@0AAV?$allocator@PAVSpacecraft@@@0@@Z 0044ad00 f i KSP2D.obj
 0001:00049d30       ??$_Emplace_back_with_unused_capacity@ABQAVSpacecraft@@@?$vector@PAVSpacecraft@@V?$allocator@PAVSpacecraft@@@std@@@std@@AAE@ABQAVSpacecraft@@@Z 0044ad30 f i KSP2D.obj
 0001:00049de0       ??$_Emplace_back_with_unused_capacity@PAVCelestialBody@@@?$vector@PAVCelestialBody@@V?$allocator@PAVCelestialBody@@@std@@@std@@AAE@$$QAPAVCelestialBody@@@Z 0044ade0 f i KSP2D.obj
 0001:00049e90       ??$_Emplace_back_with_unused_capacity@PAVPlanetObject@@@?$vector@PAVPlanetObject@@V?$allocator@PAVPlanetObject@@@std@@@std@@AAE@$$QAPAVPlanetObject@@@Z 0044ae90 f i KSP2D.obj
 0001:00049f40       ??$_Emplace_reallocate@ABQAVSpacecraft@@@?$vector@PAVSpacecraft@@V?$allocator@PAVSpacecraft@@@std@@@std@@QAEPAPAVSpacecraft@@QAPAV2@ABQAV2@@Z 0044af40 f i KSP2D.obj
 0001:0004a190       ??$_Emplace_reallocate@PAVCelestialBody@@@?$vector@PAVCelestialBody@@V?$allocator@PAVCelestialBody@@@std@@@std@@QAEPAPAVCelestialBody@@QAPAV2@$$QAPAV2@@Z 0044b190 f i KSP2D.obj
 0001:0004a3e0       ??$_Emplace_reallocate@PAVPlanetObject@@@?$vector@PAVPlanetObject@@V?$allocator@PAVPlanetObject@@@std@@@std@@QAEPAPAVPlanetObject@@QAPAV2@$$QAPAV2@@Z 0044b3e0 f i KSP2D.obj
 0001:0004a630       ??$_Get_unwrapped@PAVCelestialBody@@@std@@YAPAPAVCelestialBody@@QAPAV1@@Z 0044b630 f i KSP2D.obj
 0001:0004a640       ??$_Get_unwrapped@PAVPlanetObject@@@std@@YAPAPAVPlanetObject@@QAPAV1@@Z 0044b640 f i KSP2D.obj
 0001:0004a650       ??$_Get_unwrapped@PAVSpacecraft@@@std@@YAPAPAVSpacecraft@@QAPAV1@@Z 0044b650 f i KSP2D.obj
 0001:0004a660       ??$_Get_unwrapped_n@PAVCelestialBody@@H$0A@@std@@YAPAPAVCelestialBody@@QAPAV1@H@Z 0044b660 f i KSP2D.obj
 0001:0004a670       ??$_Get_unwrapped_n@PAVPlanetObject@@H$0A@@std@@YAPAPAVPlanetObject@@QAPAV1@H@Z 0044b670 f i KSP2D.obj
 0001:0004a680       ??$_Get_unwrapped_n@PAVSpacecraft@@H$0A@@std@@YAPAPAVSpacecraft@@QAPAV1@H@Z 0044b680 f i KSP2D.obj
 0001:0004a690       ??$_Idl_distance1@PAPAVCelestialBody@@PAPAV1@@std@@YAHABQAPAVCelestialBody@@0Urandom_access_iterator_tag@0@@Z 0044b690 f i KSP2D.obj
 0001:0004a6b0       ??$_Idl_distance1@PAPAVPlanetObject@@PAPAV1@@std@@YAHABQAPAVPlanetObject@@0Urandom_access_iterator_tag@0@@Z 0044b6b0 f i KSP2D.obj
 0001:0004a6d0       ??$_Idl_distance1@PAPAVSpacecraft@@PAPAV1@@std@@YAHABQAPAVSpacecraft@@0Urandom_access_iterator_tag@0@@Z 0044b6d0 f i KSP2D.obj
 0001:0004a6f0       ??$_Idl_distance@PAPAVCelestialBody@@PAPAV1@@std@@YA@ABQAPAVCelestialBody@@0@Z 0044b6f0 f i KSP2D.obj
 0001:0004a720       ??$_Idl_distance@PAPAVPlanetObject@@PAPAV1@@std@@YA@ABQAPAVPlanetObject@@0@Z 0044b720 f i KSP2D.obj
 0001:0004a750       ??$_Idl_distance@PAPAVSpacecraft@@PAPAV1@@std@@YA@ABQAPAVSpacecraft@@0@Z 0044b750 f i KSP2D.obj
 0001:0004a780       ??$_Move_backward_unchecked1@PAPAVDisplayableObject@@PAPAV1@@std@@YAPAPAVDisplayableObject@@PAPAV1@00U_Trivially_copyable_ptr_iterator_tag@0@@Z 0044b780 f i KSP2D.obj
 0001:0004a7a0       ??$_Move_backward_unchecked@PAPAVDisplayableObject@@PAPAV1@@std@@YAPAPAVDisplayableObject@@PAPAV1@00@Z 0044b7a0 f i KSP2D.obj
 0001:0004a7f0       ??$_Move_unchecked1@PAPAVSpacecraft@@PAPAV1@@std@@YAPAPAVSpacecraft@@PAPAV1@00U_Trivially_copyable_ptr_iterator_tag@0@@Z 0044b7f0 f i KSP2D.obj
 0001:0004a810       ??$_Move_unchecked@PAPAVSpacecraft@@PAPAV1@@std@@YAPAPAVSpacecraft@@PAPAV1@00@Z 0044b810 f i KSP2D.obj
 0001:0004a860       ??$_Ptr_move_cat@PAVCelestialBody@@PAV1@@std@@YA?AU_Really_trivial_ptr_iterator_tag@0@ABQAPAVCelestialBody@@0@Z 0044b860 f i KSP2D.obj
 0001:0004a870       ??$_Ptr_move_cat@PAVPlanetObject@@PAV1@@std@@YA?AU_Really_trivial_ptr_iterator_tag@0@ABQAPAVPlanetObject@@0@Z 0044b870 f i KSP2D.obj
 0001:0004a880       ??$_Ptr_move_cat@PAVSpacecraft@@PAV1@@std@@YA?AU_Really_trivial_ptr_iterator_tag@0@ABQAPAVSpacecraft@@0@Z 0044b880 f i KSP2D.obj
 0001:0004a890       ??$_Reallocate_grow_by@V<lambda_67d87d4aa1269033985980465fd1d824>@@$$V@?$basic_string@DU?$char_traits@D@std@@V?$allocator@D@2@@std@@QAEAAV01@IV<lambda_67d87d4aa1269033985980465fd1d824>@@@Z 0044b890 f i KSP2D.obj
 0001:0004aa00       ??$_Seek_wrapped@PAVCelestialBody@@@std@@YAXAAPAPAVCelestialBody@@QAPAV1@@Z 0044ba00 f i KSP2D.obj
 0001:0004aa10       ??$_Seek_wrapped@PAVPlanetObject@@@std@@YAXAAPAPAVPlanetObject@@QAPAV1@@Z 0044ba10 f i KSP2D.obj
 0001:0004aa20       ??$_Seek_wrapped@PAVSpacecraft@@@std@@YAXAAPAPAVSpacecraft@@QAPAV1@@Z 0044ba20 f i KSP2D.obj
 0001:0004aa30       ??$_Unfancy@PAVCelestialBody@@@std@@YAPAPAVCelestialBody@@PAPAV1@@Z 0044ba30 f i KSP2D.obj
 0001:0004aa40       ??$_Unfancy@PAVPlanetObject@@@std@@YAPAPAVPlanetObject@@PAPAV1@@Z 0044ba40 f i KSP2D.obj
 0001:0004aa50       ??$_Unfancy@PAVSpacecraft@@@std@@YAPAPAVSpacecraft@@PAPAV1@@Z 0044ba50 f i KSP2D.obj
 0001:0004aa60       ??$_Uninitialized_move@PAPAVCelestialBody@@PAPAV1@V?$allocator@PAVCelestialBody@@@std@@@std@@YAPAPAVCelestialBody@@QAPAV1@0PAPAV1@AAV?$allocator@PAVCelestialBody@@@0@@Z 0044ba60 f i KSP2D.obj
 0001:0004ab20       ??$_Uninitialized_move@PAPAVPlanetObject@@PAPAV1@V?$allocator@PAVPlanetObject@@@std@@@std@@YAPAPAVPlanetObject@@QAPAV1@0PAPAV1@AAV?$allocator@PAVPlanetObject@@@0@@Z 0044bb20 f i KSP2D.obj
 0001:0004abe0       ??$_Uninitialized_move@PAPAVSpacecraft@@PAPAV1@V?$allocator@PAVSpacecraft@@@std@@@std@@YAPAPAVSpacecraft@@QAPAV1@0PAPAV1@AAV?$allocator@PAVSpacecraft@@@0@@Z 0044bbe0 f i KSP2D.obj
 0001:0004aca0       ??$_Uninitialized_move_al_unchecked@PAVCelestialBody@@PAV1@V?$allocator@PAVCelestialBody@@@std@@@std@@YAPAPAVCelestialBody@@QAPAV1@00AAV?$allocator@PAVCelestialBody@@@0@U_Really_trivial_ptr_iterator_tag@0@U?$integral_constant@_N$00@0@@Z 0044bca0 f i KSP2D.obj
 0001:0004acc0       ??$_Uninitialized_move_al_unchecked@PAVPlanetObject@@PAV1@V?$allocator@PAVPlanetObject@@@std@@@std@@YAPAPAVPlanetObject@@QAPAV1@00AAV?$allocator@PAVPlanetObject@@@0@U_Really_trivial_ptr_iterator_tag@0@U?$integral_constant@_N$00@0@@Z 0044bcc0 f i KSP2D.obj
 0001:0004ace0       ??$_Uninitialized_move_al_unchecked@PAVSpacecraft@@PAV1@V?$allocator@PAVSpacecraft@@@std@@@std@@YAPAPAVSpacecraft@@QAPAV1@00AAV?$allocator@PAVSpacecraft@@@0@U_Really_trivial_ptr_iterator_tag@0@U?$integral_constant@_N$00@0@@Z 0044bce0 f i KSP2D.obj
 0001:0004ad00       ??$addressof@V?$_Vector_val@U?$_Simple_types@PAVCelestialBody@@@std@@@std@@@std@@YAPAV?$_Vector_val@U?$_Simple_types@PAVCelestialBody@@@std@@@0@AAV10@@Z 0044bd00 f i KSP2D.obj
 0001:0004ad10       ??$addressof@V?$_Vector_val@U?$_Simple_types@PAVPlanetObject@@@std@@@std@@@std@@YAPAV?$_Vector_val@U?$_Simple_types@PAVPlanetObject@@@std@@@0@AAV10@@Z 0044bd10 f i KSP2D.obj
 0001:0004ad20       ??$addressof@V?$_Vector_val@U?$_Simple_types@PAVSpacecraft@@@std@@@std@@@std@@YAPAV?$_Vector_val@U?$_Simple_types@PAVSpacecraft@@@std@@@0@AAV10@@Z 0044bd20 f i KSP2D.obj
 0001:0004ad30       ??$construct@PAVCelestialBody@@PAV1@@?$_Default_allocator_traits@V?$allocator@PAVCelestialBody@@@std@@@std@@SAXAAV?$allocator@PAVCelestialBody@@@1@QAPAVCelestialBody@@$$QAPAV3@@Z 0044bd30 f i KSP2D.obj
 0001:0004ad70       ??$construct@PAVDisplayableObject@@PAV1@@?$_Default_allocator_traits@V?$allocator@PAVDisplayableObject@@@std@@@std@@SAXAAV?$allocator@PAVDisplayableObject@@@1@QAPAVDisplayableObject@@$$QAPAV3@@Z 0044bd70 f i KSP2D.obj
 0001:0004adb0       ??$construct@PAVPlanetObject@@PAV1@@?$_Default_allocator_traits@V?$allocator@PAVPlanetObject@@@std@@@std@@SAXAAV?$allocator@PAVPlanetObject@@@1@QAPAVPlanetObject@@$$QAPAV3@@Z 0044bdb0 f i KSP2D.obj
 0001:0004adf0       ??$construct@PAVSpacecraft@@ABQAV1@@?$_Default_allocator_traits@V?$allocator@PAVSpacecraft@@@std@@@std@@SAXAAV?$allocator@PAVSpacecraft@@@1@QAPAVSpacecraft@@ABQAV3@@Z 0044bdf0 f i KSP2D.obj
 0001:0004ae30       ??$destroy@PAVSpacecraft@@@?$_Default_allocator_traits@V?$allocator@PAVSpacecraft@@@std@@@std@@SAXAAV?$allocator@PAVSpacecraft@@@1@QAPAVSpacecraft@@@Z 0044be30 f i KSP2D.obj
 0001:0004ae40       ??$emplace@ABQAVDisplayableObject@@@?$vector@PAVDisplayableObject@@V?$allocator@PAVDisplayableObject@@@std@@@std@@QAE?AV?$_Vector_iterator@V?$_Vector_val@U?$_Simple_types@PAVDisplayableObject@@@std@@@std@@@1@V?$_Vector_const_iterator@V?$_Vector_val@U?$_Simple_types@PAVDisplayableObject@@@std@@@std@@@1@ABQAVDisplayableObject@@@Z 0044be40 f i KSP2D.obj
 0001:0004b0f0       ??$emplace_back@ABQAVSpacecraft@@@?$vector@PAVSpacecraft@@V?$allocator@PAVSpacecraft@@@std@@@std@@QAE@ABQAVSpacecraft@@@Z 0044c0f0 f i KSP2D.obj
 0001:0004b160       ??$emplace_back@PAVCelestialBody@@@?$vector@PAVCelestialBody@@V?$allocator@PAVCelestialBody@@@std@@@std@@QAE@$$QAPAVCelestialBody@@@Z 0044c160 f i KSP2D.obj
 0001:0004b1d0       ??$emplace_back@PAVPlanetObject@@@?$vector@PAVPlanetObject@@V?$allocator@PAVPlanetObject@@@std@@@std@@QAE@$$QAPAVPlanetObject@@@Z 0044c1d0 f i KSP2D.obj
 0001:0004b240       ??$forward@ABQAVSpacecraft@@@std@@YAABQAVSpacecraft@@ABQAV1@@Z 0044c240 f i KSP2D.obj
 0001:0004b250       ??$forward@PAVCelestialBody@@@std@@YA$$QAPAVCelestialBody@@AAPAV1@@Z 0044c250 f i KSP2D.obj
 0001:0004b260       ??$forward@PAVPlanetObject@@@std@@YA$$QAPAVPlanetObject@@AAPAV1@@Z 0044c260 f i KSP2D.obj
 0001:0004b270       ??$move@AAPAVCelestialBody@@@std@@YA$$QAPAVCelestialBody@@AAPAV1@@Z 0044c270 f i KSP2D.obj
 0001:0004b280       ??$move@AAPAVDisplayableObject@@@std@@YA$$QAPAVDisplayableObject@@AAPAV1@@Z 0044c280 f i KSP2D.obj
 0001:0004b290       ??$move@AAPAVPlanetObject@@@std@@YA$$QAPAVPlanetObject@@AAPAV1@@Z 0044c290 f i KSP2D.obj
 0001:0004b2a0       ??0?$_Vector_alloc@U?$_Vec_base_types@PAVCelestialBody@@V?$allocator@PAVCelestialBody@@@std@@@std@@@std@@QAE@XZ 0044c2a0 f i KSP2D.obj
 0001:0004b2d0       ??0?$_Vector_alloc@U?$_Vec_base_types@PAVPlanetObject@@V?$allocator@PAVPlanetObject@@@std@@@std@@@std@@QAE@XZ 0044c2d0 f i KSP2D.obj
 0001:0004b300       ??0?$_Vector_alloc@U?$_Vec_base_types@PAVSpacecraft@@V?$allocator@PAVSpacecraft@@@std@@@std@@@std@@QAE@XZ 0044c300 f i KSP2D.obj
 0001:0004b330       ??0?$_Vector_const_iterator@V?$_Vector_val@U?$_Simple_types@PAVSpacecraft@@@std@@@std@@@std@@QAE@$$QAV01@@Z 0044c330 f i KSP2D.obj
 0001:0004b370       ??0?$_Vector_const_iterator@V?$_Vector_val@U?$_Simple_types@PAVSpacecraft@@@std@@@std@@@std@@QAE@ABV01@@Z 0044c370 f i KSP2D.obj
 0001:0004b3b0       ??0?$_Vector_const_iterator@V?$_Vector_val@U?$_Simple_types@PAVSpacecraft@@@std@@@std@@@std@@QAE@PAPAVSpacecraft@@PBU_Container_base12@1@@Z 0044c3b0 f i KSP2D.obj
 0001:0004b3f0       ??0?$_Vector_iterator@V?$_Vector_val@U?$_Simple_types@PAVSpacecraft@@@std@@@std@@@std@@QAE@ABV01@@Z 0044c3f0 f i KSP2D.obj
 0001:0004b420       ??0?$_Vector_iterator@V?$_Vector_val@U?$_Simple_types@PAVSpacecraft@@@std@@@std@@@std@@QAE@PAPAVSpacecraft@@PBU_Container_base12@1@@Z 0044c420 f i KSP2D.obj
 0001:0004b450       ??0?$_Vector_val@U?$_Simple_types@PAVCelestialBody@@@std@@@std@@QAE@XZ 0044c450 f i KSP2D.obj
 0001:0004b4a0       ??0?$_Vector_val@U?$_Simple_types@PAVPlanetObject@@@std@@@std@@QAE@XZ 0044c4a0 f i KSP2D.obj
 0001:0004b4f0       ??0?$_Vector_val@U?$_Simple_types@PAVSpacecraft@@@std@@@std@@QAE@XZ 0044c4f0 f i KSP2D.obj
 0001:0004b540       ??0?$allocator@PAVCelestialBody@@@std@@QAE@XZ 0044c540 f i KSP2D.obj
 0001:0004b560       ??0?$allocator@PAVPlanetObject@@@std@@QAE@XZ 0044c560 f i KSP2D.obj
 0001:0004b580       ??0?$allocator@PAVSpacecraft@@@std@@QAE@XZ 0044c580 f i KSP2D.obj
 0001:0004b5a0       ??0?$vector@PAVCelestialBody@@V?$allocator@PAVCelestialBody@@@std@@@std@@QAE@XZ 0044c5a0 f i KSP2D.obj
 0001:0004b5f0       ??0?$vector@PAVPlanetObject@@V?$allocator@PAVPlanetObject@@@std@@@std@@QAE@XZ 0044c5f0 f i KSP2D.obj
 0001:0004b640       ??0?$vector@PAVSpacecraft@@V?$allocator@PAVSpacecraft@@@std@@@std@@QAE@XZ 0044c640 f i KSP2D.obj
 0001:0004b690       ??0Planet@@QAE@PAVBaseEngine@@PBD11OOOOPAVVec2D@@NONPAVCelestialBody@@@Z 0044c690 f i KSP2D.obj
 0001:0004b900       ??0SimpleTrig@@AAE@XZ      0044c900 f i KSP2D.obj
 0001:0004b980       ??0Sun@@QAE@PAVBaseEngine@@PBD11OOOOPAVVec2D@@@Z 0044c980 f i KSP2D.obj
 0001:0004bbb0       ??1?$_Vector_alloc@U?$_Vec_base_types@PAVCelestialBody@@V?$allocator@PAVCelestialBody@@@std@@@std@@@std@@QAE@XZ 0044cbb0 f i KSP2D.obj
 0001:0004bc00       ??1?$_Vector_alloc@U?$_Vec_base_types@PAVPlanetObject@@V?$allocator@PAVPlanetObject@@@std@@@std@@@std@@QAE@XZ 0044cc00 f i KSP2D.obj
 0001:0004bc50       ??1?$_Vector_alloc@U?$_Vec_base_types@PAVSpacecraft@@V?$allocator@PAVSpacecraft@@@std@@@std@@@std@@QAE@XZ 0044cc50 f i KSP2D.obj
 0001:0004bca0       ??1?$_Vector_const_iterator@V?$_Vector_val@U?$_Simple_types@PAVSpacecraft@@@std@@@std@@@std@@QAE@XZ 0044cca0 f i KSP2D.obj
 0001:0004bcc0       ??1?$_Vector_iterator@V?$_Vector_val@U?$_Simple_types@PAVSpacecraft@@@std@@@std@@@std@@QAE@XZ 0044ccc0 f i KSP2D.obj
 0001:0004bce0       ??1?$vector@PAVCelestialBody@@V?$allocator@PAVCelestialBody@@@std@@@std@@QAE@XZ 0044cce0 f i KSP2D.obj
 0001:0004bd40       ??1?$vector@PAVPlanetObject@@V?$allocator@PAVPlanetObject@@@std@@@std@@QAE@XZ 0044cd40 f i KSP2D.obj
 0001:0004bda0       ??1?$vector@PAVSpacecraft@@V?$allocator@PAVSpacecraft@@@std@@@std@@QAE@XZ 0044cda0 f i KSP2D.obj
 0001:0004be00       ??1KSP2D@@UAE@XZ           0044ce00 f i KSP2D.obj
 0001:0004be80       ??1Planet@@UAE@XZ          0044ce80 f i KSP2D.obj
 0001:0004bea0       ??1Sun@@UAE@XZ             0044cea0 f i KSP2D.obj
 0001:0004bec0       ??A?$vector@PAVCelestialBody@@V?$allocator@PAVCelestialBody@@@std@@@std@@QAEAAPAVCelestialBody@@I@Z 0044cec0 f i KSP2D.obj
 0001:0004bf60       ??A?$vector@PAVSpacecraft@@V?$allocator@PAVSpacecraft@@@std@@@std@@QAEAAPAVSpacecraft@@I@Z 0044cf60 f i KSP2D.obj
 0001:0004c000       ??H?$_Vector_iterator@V?$_Vector_val@U?$_Simple_types@PAVSpacecraft@@@std@@@std@@@std@@QBE?AV01@H@Z 0044d000 f i KSP2D.obj
 0001:0004c0b0       ??R<lambda_67d87d4aa1269033985980465fd1d824>@@QBE@QADQBDI@Z 0044d0b0 f i KSP2D.obj
 0001:0004c0e0       ??Y?$_Vector_const_iterator@V?$_Vector_val@U?$_Simple_types@PAVSpacecraft@@@std@@@std@@@std@@QAEAAV01@H@Z 0044d0e0 f i KSP2D.obj
 0001:0004c120       ??Y?$_Vector_iterator@V?$_Vector_val@U?$_Simple_types@PAVSpacecraft@@@std@@@std@@@std@@QAEAAV01@H@Z 0044d120 f i KSP2D.obj
 0001:0004c150       ??_GGUIManager@@AAEPAXI@Z  0044d150 f i KSP2D.obj
 0001:0004c190       ??_EKSP2D@@UAEPAXI@Z       0044d190 f i KSP2D.obj
 0001:0004c190       ??_GKSP2D@@UAEPAXI@Z       0044d190 f i KSP2D.obj
 0001:0004c1d0       ??_EPlanet@@UAEPAXI@Z      0044d1d0 f i KSP2D.obj
 0001:0004c1d0       ??_GPlanet@@UAEPAXI@Z      0044d1d0 f i KSP2D.obj
 0001:0004c210       ??_GSun@@UAEPAXI@Z         0044d210 f i KSP2D.obj
 0001:0004c210       ??_ESun@@UAEPAXI@Z         0044d210 f i KSP2D.obj
 0001:0004c250       ?_Alloc_proxy@?$_Vector_alloc@U?$_Vec_base_types@PAVCelestialBody@@V?$allocator@PAVCelestialBody@@@std@@@std@@@std@@QAEXXZ 0044d250 f i KSP2D.obj
 0001:0004c2f0       ?_Alloc_proxy@?$_Vector_alloc@U?$_Vec_base_types@PAVPlanetObject@@V?$allocator@PAVPlanetObject@@@std@@@std@@@std@@QAEXXZ 0044d2f0 f i KSP2D.obj
 0001:0004c390       ?_Alloc_proxy@?$_Vector_alloc@U?$_Vec_base_types@PAVSpacecraft@@V?$allocator@PAVSpacecraft@@@std@@@std@@@std@@QAEXXZ 0044d390 f i KSP2D.obj
 0001:0004c430       ?_Become_small@?$basic_string@DU?$char_traits@D@std@@V?$allocator@D@2@@std@@QAEXXZ 0044d430 f i KSP2D.obj
 0001:0004c4f0       ?_Calculate_growth@?$vector@PAVCelestialBody@@V?$allocator@PAVCelestialBody@@@std@@@std@@ABEII@Z 0044d4f0 f i KSP2D.obj
 0001:0004c560       ?_Calculate_growth@?$vector@PAVPlanetObject@@V?$allocator@PAVPlanetObject@@@std@@@std@@ABEII@Z 0044d560 f i KSP2D.obj
 0001:0004c5d0       ?_Calculate_growth@?$vector@PAVSpacecraft@@V?$allocator@PAVSpacecraft@@@std@@@std@@ABEII@Z 0044d5d0 f i KSP2D.obj
 0001:0004c640       ?_Change_array@?$vector@PAVCelestialBody@@V?$allocator@PAVCelestialBody@@@std@@@std@@AAEXQAPAVCelestialBody@@II@Z 0044d640 f i KSP2D.obj
 0001:0004c700       ?_Change_array@?$vector@PAVPlanetObject@@V?$allocator@PAVPlanetObject@@@std@@@std@@AAEXQAPAVPlanetObject@@II@Z 0044d700 f i KSP2D.obj
 0001:0004c7c0       ?_Change_array@?$vector@PAVSpacecraft@@V?$allocator@PAVSpacecraft@@@std@@@std@@AAEXQAPAVSpacecraft@@II@Z 0044d7c0 f i KSP2D.obj
 0001:0004c880       ?_Destroy@?$vector@PAVCelestialBody@@V?$allocator@PAVCelestialBody@@@std@@@std@@AAEXPAPAVCelestialBody@@0@Z 0044d880 f i KSP2D.obj
 0001:0004c8b0       ?_Destroy@?$vector@PAVPlanetObject@@V?$allocator@PAVPlanetObject@@@std@@@std@@AAEXPAPAVPlanetObject@@0@Z 0044d8b0 f i KSP2D.obj
 0001:0004c8e0       ?_Destroy@?$vector@PAVSpacecraft@@V?$allocator@PAVSpacecraft@@@std@@@std@@AAEXPAPAVSpacecraft@@0@Z 0044d8e0 f i KSP2D.obj
 0001:0004c910       ?_Free_proxy@?$_Vector_alloc@U?$_Vec_base_types@PAVCelestialBody@@V?$allocator@PAVCelestialBody@@@std@@@std@@@std@@QAEXXZ 0044d910 f i KSP2D.obj
 0001:0004c990       ?_Free_proxy@?$_Vector_alloc@U?$_Vec_base_types@PAVPlanetObject@@V?$allocator@PAVPlanetObject@@@std@@@std@@@std@@QAEXXZ 0044d990 f i KSP2D.obj
 0001:0004ca10       ?_Free_proxy@?$_Vector_alloc@U?$_Vec_base_types@PAVSpacecraft@@V?$allocator@PAVSpacecraft@@@std@@@std@@@std@@QAEXXZ 0044da10 f i KSP2D.obj
 0001:0004ca90       ?_Get_data@?$_Vector_alloc@U?$_Vec_base_types@PAVCelestialBody@@V?$allocator@PAVCelestialBody@@@std@@@std@@@std@@QBEABV?$_Vector_val@U?$_Simple_types@PAVCelestialBody@@@std@@@2@XZ 0044da90 f i KSP2D.obj
 0001:0004cab0       ?_Get_data@?$_Vector_alloc@U?$_Vec_base_types@PAVPlanetObject@@V?$allocator@PAVPlanetObject@@@std@@@std@@@std@@QAEAAV?$_Vector_val@U?$_Simple_types@PAVPlanetObject@@@std@@@2@XZ 0044dab0 f i KSP2D.obj
 0001:0004cad0       ?_Get_data@?$_Vector_alloc@U?$_Vec_base_types@PAVPlanetObject@@V?$allocator@PAVPlanetObject@@@std@@@std@@@std@@QBEABV?$_Vector_val@U?$_Simple_types@PAVPlanetObject@@@std@@@2@XZ 0044dad0 f i KSP2D.obj
 0001:0004caf0       ?_Get_data@?$_Vector_alloc@U?$_Vec_base_types@PAVSpacecraft@@V?$allocator@PAVSpacecraft@@@std@@@std@@@std@@QAEAAV?$_Vector_val@U?$_Simple_types@PAVSpacecraft@@@std@@@2@XZ 0044daf0 f i KSP2D.obj
 0001:0004cb10       ?_Get_data@?$_Vector_alloc@U?$_Vec_base_types@PAVSpacecraft@@V?$allocator@PAVSpacecraft@@@std@@@std@@@std@@QBEABV?$_Vector_val@U?$_Simple_types@PAVSpacecraft@@@std@@@2@XZ 0044db10 f i KSP2D.obj
 0001:0004cb30       ?_Get_first@?$_Compressed_pair@V?$allocator@PAVCelestialBody@@@std@@V?$_Vector_val@U?$_Simple_types@PAVCelestialBody@@@std@@@2@$00@std@@QAEAAV?$allocator@PAVCelestialBody@@@2@XZ 0044db30 f i KSP2D.obj
 0001:0004cb50       ?_Get_first@?$_Compressed_pair@V?$allocator@PAVCelestialBody@@@std@@V?$_Vector_val@U?$_Simple_types@PAVCelestialBody@@@std@@@2@$00@std@@QBEABV?$allocator@PAVCelestialBody@@@2@XZ 0044db50 f i KSP2D.obj
 0001:0004cb70       ?_Get_first@?$_Compressed_pair@V?$allocator@PAVPlanetObject@@@std@@V?$_Vector_val@U?$_Simple_types@PAVPlanetObject@@@std@@@2@$00@std@@QAEAAV?$allocator@PAVPlanetObject@@@2@XZ 0044db70 f i KSP2D.obj
 0001:0004cb90       ?_Get_first@?$_Compressed_pair@V?$allocator@PAVPlanetObject@@@std@@V?$_Vector_val@U?$_Simple_types@PAVPlanetObject@@@std@@@2@$00@std@@QBEABV?$allocator@PAVPlanetObject@@@2@XZ 0044db90 f i KSP2D.obj
 0001:0004cbb0       ?_Get_first@?$_Compressed_pair@V?$allocator@PAVSpacecraft@@@std@@V?$_Vector_val@U?$_Simple_types@PAVSpacecraft@@@std@@@2@$00@std@@QAEAAV?$allocator@PAVSpacecraft@@@2@XZ 0044dbb0 f i KSP2D.obj
 0001:0004cbd0       ?_Get_first@?$_Compressed_pair@V?$allocator@PAVSpacecraft@@@std@@V?$_Vector_val@U?$_Simple_types@PAVSpacecraft@@@std@@@2@$00@std@@QBEABV?$allocator@PAVSpacecraft@@@2@XZ 0044dbd0 f i KSP2D.obj
 0001:0004cbf0       ?_Get_second@?$_Compressed_pair@V?$allocator@PAVCelestialBody@@@std@@V?$_Vector_val@U?$_Simple_types@PAVCelestialBody@@@std@@@2@$00@std@@QBEABV?$_Vector_val@U?$_Simple_types@PAVCelestialBody@@@std@@@2@XZ 0044dbf0 f i KSP2D.obj
 0001:0004cc10       ?_Get_second@?$_Compressed_pair@V?$allocator@PAVPlanetObject@@@std@@V?$_Vector_val@U?$_Simple_types@PAVPlanetObject@@@std@@@2@$00@std@@QAEAAV?$_Vector_val@U?$_Simple_types@PAVPlanetObject@@@std@@@2@XZ 0044dc10 f i KSP2D.obj
 0001:0004cc30       ?_Get_second@?$_Compressed_pair@V?$allocator@PAVPlanetObject@@@std@@V?$_Vector_val@U?$_Simple_types@PAVPlanetObject@@@std@@@2@$00@std@@QBEABV?$_Vector_val@U?$_Simple_types@PAVPlanetObject@@@std@@@2@XZ 0044dc30 f i KSP2D.obj
 0001:0004cc50       ?_Get_second@?$_Compressed_pair@V?$allocator@PAVSpacecraft@@@std@@V?$_Vector_val@U?$_Simple_types@PAVSpacecraft@@@std@@@2@$00@std@@QAEAAV?$_Vector_val@U?$_Simple_types@PAVSpacecraft@@@std@@@2@XZ 0044dc50 f i KSP2D.obj
 0001:0004cc70       ?_Get_second@?$_Compressed_pair@V?$allocator@PAVSpacecraft@@@std@@V?$_Vector_val@U?$_Simple_types@PAVSpacecraft@@@std@@@2@$00@std@@QBEABV?$_Vector_val@U?$_Simple_types@PAVSpacecraft@@@std@@@2@XZ 0044dc70 f i KSP2D.obj
 0001:0004cc90       ?_Getal@?$_Vector_alloc@U?$_Vec_base_types@PAVCelestialBody@@V?$allocator@PAVCelestialBody@@@std@@@std@@@std@@QAEAAV?$allocator@PAVCelestialBody@@@2@XZ 0044dc90 f i KSP2D.obj
 0001:0004ccb0       ?_Getal@?$_Vector_alloc@U?$_Vec_base_types@PAVCelestialBody@@V?$allocator@PAVCelestialBody@@@std@@@std@@@std@@QBEABV?$allocator@PAVCelestialBody@@@2@XZ 0044dcb0 f i KSP2D.obj
 0001:0004ccd0       ?_Getal@?$_Vector_alloc@U?$_Vec_base_types@PAVPlanetObject@@V?$allocator@PAVPlanetObject@@@std@@@std@@@std@@QAEAAV?$allocator@PAVPlanetObject@@@2@XZ 0044dcd0 f i KSP2D.obj
 0001:0004ccf0       ?_Getal@?$_Vector_alloc@U?$_Vec_base_types@PAVPlanetObject@@V?$allocator@PAVPlanetObject@@@std@@@std@@@std@@QBEABV?$allocator@PAVPlanetObject@@@2@XZ 0044dcf0 f i KSP2D.obj
 0001:0004cd10       ?_Getal@?$_Vector_alloc@U?$_Vec_base_types@PAVSpacecraft@@V?$allocator@PAVSpacecraft@@@std@@@std@@@std@@QAEAAV?$allocator@PAVSpacecraft@@@2@XZ 0044dd10 f i KSP2D.obj
 0001:0004cd30       ?_Getal@?$_Vector_alloc@U?$_Vec_base_types@PAVSpacecraft@@V?$allocator@PAVSpacecraft@@@std@@@std@@@std@@QBEABV?$allocator@PAVSpacecraft@@@2@XZ 0044dd30 f i KSP2D.obj
 0001:0004cd50       ?_Getpfirst@?$_Vector_alloc@U?$_Vec_base_types@PAVCelestialBody@@V?$allocator@PAVCelestialBody@@@std@@@std@@@std@@QBEPAPAU_Iterator_base12@2@XZ 0044dd50 f i KSP2D.obj
 0001:0004cd70       ?_Getpfirst@?$_Vector_alloc@U?$_Vec_base_types@PAVPlanetObject@@V?$allocator@PAVPlanetObject@@@std@@@std@@@std@@QBEPAPAU_Iterator_base12@2@XZ 0044dd70 f i KSP2D.obj
 0001:0004cd90       ?_Getpfirst@?$_Vector_alloc@U?$_Vec_base_types@PAVSpacecraft@@V?$allocator@PAVSpacecraft@@@std@@@std@@@std@@QBEPAPAU_Iterator_base12@2@XZ 0044dd90 f i KSP2D.obj
 0001:0004cdb0       ?_Has_unused_capacity@?$vector@PAVCelestialBody@@V?$allocator@PAVCelestialBody@@@std@@@std@@ABE_NXZ 0044ddb0 f i KSP2D.obj
 0001:0004ce00       ?_Has_unused_capacity@?$vector@PAVPlanetObject@@V?$allocator@PAVPlanetObject@@@std@@@std@@ABE_NXZ 0044de00 f i KSP2D.obj
 0001:0004ce50       ?_Has_unused_capacity@?$vector@PAVSpacecraft@@V?$allocator@PAVSpacecraft@@@std@@@std@@ABE_NXZ 0044de50 f i KSP2D.obj
 0001:0004cea0       ?_Make_iterator@?$_Vector_alloc@U?$_Vec_base_types@PAVDisplayableObject@@V?$allocator@PAVDisplayableObject@@@std@@@std@@@std@@QAE?AV?$_Vector_iterator@V?$_Vector_val@U?$_Simple_types@PAVDisplayableObject@@@std@@@std@@@2@QAPAVDisplayableObject@@@Z 0044dea0 f i KSP2D.obj
 0001:0004cf10       ?_Myend@?$_Vector_alloc@U?$_Vec_base_types@PAVCelestialBody@@V?$allocator@PAVCelestialBody@@@std@@@std@@@std@@QAEAAPAPAVCelestialBody@@XZ 0044df10 f i KSP2D.obj
 0001:0004cf30       ?_Myend@?$_Vector_alloc@U?$_Vec_base_types@PAVCelestialBody@@V?$allocator@PAVCelestialBody@@@std@@@std@@@std@@QBEABQAPAVCelestialBody@@XZ 0044df30 f i KSP2D.obj
 0001:0004cf50       ?_Myend@?$_Vector_alloc@U?$_Vec_base_types@PAVPlanetObject@@V?$allocator@PAVPlanetObject@@@std@@@std@@@std@@QAEAAPAPAVPlanetObject@@XZ 0044df50 f i KSP2D.obj
 0001:0004cf70       ?_Myend@?$_Vector_alloc@U?$_Vec_base_types@PAVPlanetObject@@V?$allocator@PAVPlanetObject@@@std@@@std@@@std@@QBEABQAPAVPlanetObject@@XZ 0044df70 f i KSP2D.obj
 0001:0004cf90       ?_Myend@?$_Vector_alloc@U?$_Vec_base_types@PAVSpacecraft@@V?$allocator@PAVSpacecraft@@@std@@@std@@@std@@QAEAAPAPAVSpacecraft@@XZ 0044df90 f i KSP2D.obj
 0001:0004cfb0       ?_Myend@?$_Vector_alloc@U?$_Vec_base_types@PAVSpacecraft@@V?$allocator@PAVSpacecraft@@@std@@@std@@@std@@QBEABQAPAVSpacecraft@@XZ 0044dfb0 f i KSP2D.obj
 0001:0004cfd0       ?_Myfirst@?$_Vector_alloc@U?$_Vec_base_types@PAVCelestialBody@@V?$allocator@PAVCelestialBody@@@std@@@std@@@std@@QBEABQAPAVCelestialBody@@XZ 0044dfd0 f i KSP2D.obj
 0001:0004cff0       ?_Myfirst@?$_Vector_alloc@U?$_Vec_base_types@PAVPlanetObject@@V?$allocator@PAVPlanetObject@@@std@@@std@@@std@@QAEAAPAPAVPlanetObject@@XZ 0044dff0 f i KSP2D.obj
 0001:0004d010       ?_Myfirst@?$_Vector_alloc@U?$_Vec_base_types@PAVPlanetObject@@V?$allocator@PAVPlanetObject@@@std@@@std@@@std@@QBEABQAPAVPlanetObject@@XZ 0044e010 f i KSP2D.obj
 0001:0004d030       ?_Myfirst@?$_Vector_alloc@U?$_Vec_base_types@PAVSpacecraft@@V?$allocator@PAVSpacecraft@@@std@@@std@@@std@@QAEAAPAPAVSpacecraft@@XZ 0044e030 f i KSP2D.obj
 0001:0004d050       ?_Myfirst@?$_Vector_alloc@U?$_Vec_base_types@PAVSpacecraft@@V?$allocator@PAVSpacecraft@@@std@@@std@@@std@@QBEABQAPAVSpacecraft@@XZ 0044e050 f i KSP2D.obj
 0001:0004d070       ?_Mylast@?$_Vector_alloc@U?$_Vec_base_types@PAVCelestialBody@@V?$allocator@PAVCelestialBody@@@std@@@std@@@std@@QBEABQAPAVCelestialBody@@XZ 0044e070 f i KSP2D.obj
 0001:0004d090       ?_Mylast@?$_Vector_alloc@U?$_Vec_base_types@PAVPlanetObject@@V?$allocator@PAVPlanetObject@@@std@@@std@@@std@@QAEAAPAPAVPlanetObject@@XZ 0044e090 f i KSP2D.obj
 0001:0004d0b0       ?_Mylast@?$_Vector_alloc@U?$_Vec_base_types@PAVPlanetObject@@V?$allocator@PAVPlanetObject@@@std@@@std@@@std@@QBEABQAPAVPlanetObject@@XZ 0044e0b0 f i KSP2D.obj
 0001:0004d0d0       ?_Mylast@?$_Vector_alloc@U?$_Vec_base_types@PAVSpacecraft@@V?$allocator@PAVSpacecraft@@@std@@@std@@@std@@QAEAAPAPAVSpacecraft@@XZ 0044e0d0 f i KSP2D.obj
 0001:0004d0f0       ?_Mylast@?$_Vector_alloc@U?$_Vec_base_types@PAVSpacecraft@@V?$allocator@PAVSpacecraft@@@std@@@std@@@std@@QBEABQAPAVSpacecraft@@XZ 0044e0f0 f i KSP2D.obj
 0001:0004d110       ?_Myproxy@?$_Vector_alloc@U?$_Vec_base_types@PAVCelestialBody@@V?$allocator@PAVCelestialBody@@@std@@@std@@@std@@QAEAAPAU_Container_proxy@2@XZ 0044e110 f i KSP2D.obj
 0001:0004d130       ?_Myproxy@?$_Vector_alloc@U?$_Vec_base_types@PAVPlanetObject@@V?$allocator@PAVPlanetObject@@@std@@@std@@@std@@QAEAAPAU_Container_proxy@2@XZ 0044e130 f i KSP2D.obj
 0001:0004d150       ?_Myproxy@?$_Vector_alloc@U?$_Vec_base_types@PAVSpacecraft@@V?$allocator@PAVSpacecraft@@@std@@@std@@@std@@QAEAAPAU_Container_proxy@2@XZ 0044e150 f i KSP2D.obj
 0001:0004d170       ?_Orphan_all@?$_Vector_alloc@U?$_Vec_base_types@PAVCelestialBody@@V?$allocator@PAVCelestialBody@@@std@@@std@@@std@@QAEXXZ 0044e170 f i KSP2D.obj
 0001:0004d190       ?_Orphan_all@?$_Vector_alloc@U?$_Vec_base_types@PAVPlanetObject@@V?$allocator@PAVPlanetObject@@@std@@@std@@@std@@QAEXXZ 0044e190 f i KSP2D.obj
 0001:0004d1b0       ?_Orphan_all@?$_Vector_alloc@U?$_Vec_base_types@PAVSpacecraft@@V?$allocator@PAVSpacecraft@@@std@@@std@@@std@@QAEXXZ 0044e1b0 f i KSP2D.obj
 0001:0004d1d0       ?_Orphan_range@?$vector@PAVCelestialBody@@V?$allocator@PAVCelestialBody@@@std@@@std@@ABEXPAPAVCelestialBody@@0@Z 0044e1d0 f i KSP2D.obj
 0001:0004d2c0       ?_Orphan_range@?$vector@PAVPlanetObject@@V?$allocator@PAVPlanetObject@@@std@@@std@@ABEXPAPAVPlanetObject@@0@Z 0044e2c0 f i KSP2D.obj
 0001:0004d3b0       ?_Orphan_range@?$vector@PAVSpacecraft@@V?$allocator@PAVSpacecraft@@@std@@@std@@ABEXPAPAVSpacecraft@@0@Z 0044e3b0 f i KSP2D.obj
 0001:0004d4a0       ?_Tidy@?$vector@PAVCelestialBody@@V?$allocator@PAVCelestialBody@@@std@@@std@@AAEXXZ 0044e4a0 f i KSP2D.obj
 0001:0004d550       ?_Tidy@?$vector@PAVPlanetObject@@V?$allocator@PAVPlanetObject@@@std@@@std@@AAEXXZ 0044e550 f i KSP2D.obj
 0001:0004d600       ?_Tidy@?$vector@PAVSpacecraft@@V?$allocator@PAVSpacecraft@@@std@@@std@@AAEXXZ 0044e600 f i KSP2D.obj
 0001:0004d6b0       ?_Umove@?$vector@PAVCelestialBody@@V?$allocator@PAVCelestialBody@@@std@@@std@@AAEPAPAVCelestialBody@@PAPAV3@00@Z 0044e6b0 f i KSP2D.obj
 0001:0004d6f0       ?_Umove@?$vector@PAVPlanetObject@@V?$allocator@PAVPlanetObject@@@std@@@std@@AAEPAPAVPlanetObject@@PAPAV3@00@Z 0044e6f0 f i KSP2D.obj
 0001:0004d730       ?_Umove@?$vector@PAVSpacecraft@@V?$allocator@PAVSpacecraft@@@std@@@std@@AAEPAPAVSpacecraft@@PAPAV3@00@Z 0044e730 f i KSP2D.obj
 0001:0004d770       ?_Umove_if_noexcept1@?$vector@PAVCelestialBody@@V?$allocator@PAVCelestialBody@@@std@@@std@@AAEXPAPAVCelestialBody@@00U?$integral_constant@_N$00@2@@Z 0044e770 f i KSP2D.obj
 0001:0004d7b0       ?_Umove_if_noexcept1@?$vector@PAVPlanetObject@@V?$allocator@PAVPlanetObject@@@std@@@std@@AAEXPAPAVPlanetObject@@00U?$integral_constant@_N$00@2@@Z 0044e7b0 f i KSP2D.obj
 0001:0004d7f0       ?_Umove_if_noexcept1@?$vector@PAVSpacecraft@@V?$allocator@PAVSpacecraft@@@std@@@std@@AAEXPAPAVSpacecraft@@00U?$integral_constant@_N$00@2@@Z 0044e7f0 f i KSP2D.obj
 0001:0004d830       ?_Umove_if_noexcept@?$vector@PAVCelestialBody@@V?$allocator@PAVCelestialBody@@@std@@@std@@AAEXPAPAVCelestialBody@@00@Z 0044e830 f i KSP2D.obj
 0001:0004d870       ?_Umove_if_noexcept@?$vector@PAVPlanetObject@@V?$allocator@PAVPlanetObject@@@std@@@std@@AAEXPAPAVPlanetObject@@00@Z 0044e870 f i KSP2D.obj
 0001:0004d8b0       ?_Umove_if_noexcept@?$vector@PAVSpacecraft@@V?$allocator@PAVSpacecraft@@@std@@@std@@AAEXPAPAVSpacecraft@@00@Z 0044e8b0 f i KSP2D.obj
 0001:0004d8f0       ?_Unchecked_begin@?$vector@PAVPlanetObject@@V?$allocator@PAVPlanetObject@@@std@@@std@@QAEPAPAVPlanetObject@@XZ 0044e8f0 f i KSP2D.obj
 0001:0004d910       ?_Unchecked_begin@?$vector@PAVSpacecraft@@V?$allocator@PAVSpacecraft@@@std@@@std@@QAEPAPAVSpacecraft@@XZ 0044e910 f i KSP2D.obj
 0001:0004d930       ?_Unchecked_end@?$vector@PAVPlanetObject@@V?$allocator@PAVPlanetObject@@@std@@@std@@QAEPAPAVPlanetObject@@XZ 0044e930 f i KSP2D.obj
 0001:0004d950       ?_Unchecked_end@?$vector@PAVSpacecraft@@V?$allocator@PAVSpacecraft@@@std@@@std@@QAEPAPAVSpacecraft@@XZ 0044e950 f i KSP2D.obj
 0001:0004d970       ?_Verify_offset@?$_Vector_const_iterator@V?$_Vector_val@U?$_Simple_types@PAVSpacecraft@@@std@@@std@@@std@@QBEXH@Z 0044e970 f i KSP2D.obj
 0001:0004db00       ?_Xlength@?$vector@PAVCelestialBody@@V?$allocator@PAVCelestialBody@@@std@@@std@@CAXXZ 0044eb00 f i KSP2D.obj
 0001:0004db20       ?_Xlength@?$vector@PAVPlanetObject@@V?$allocator@PAVPlanetObject@@@std@@@std@@CAXXZ 0044eb20 f i KSP2D.obj
 0001:0004db40       ?_Xlength@?$vector@PAVSpacecraft@@V?$allocator@PAVSpacecraft@@@std@@@std@@CAXXZ 0044eb40 f i KSP2D.obj
 0001:0004db60       ?_Xrange@?$vector@PAVCelestialBody@@V?$allocator@PAVCelestialBody@@@std@@@std@@CAXXZ 0044eb60 f i KSP2D.obj
 0001:0004db80       ?allocate@?$allocator@PAVCelestialBody@@@std@@QAEPAPAVCelestialBody@@I@Z 0044eb80 f i KSP2D.obj
 0001:0004dbb0       ?allocate@?$allocator@PAVPlanetObject@@@std@@QAEPAPAVPlanetObject@@I@Z 0044ebb0 f i KSP2D.obj
 0001:0004dbe0       ?allocate@?$allocator@PAVSpacecraft@@@std@@QAEPAPAVSpacecraft@@I@Z 0044ebe0 f i KSP2D.obj
 0001:0004dc10       ?applyGravity@PhysBody@@QAEXPAV1@@Z 0044ec10 f i KSP2D.obj
 0001:0004dd60       ?at@?$vector@PAVCelestialBody@@V?$allocator@PAVCelestialBody@@@std@@@std@@QAEAAPAVCelestialBody@@I@Z 0044ed60 f i KSP2D.obj
 0001:0004dda0       ?begin@?$vector@PAVSpacecraft@@V?$allocator@PAVSpacecraft@@@std@@@std@@QAE?AV?$_Vector_iterator@V?$_Vector_val@U?$_Simple_types@PAVSpacecraft@@@std@@@std@@@2@XZ 0044eda0 f i KSP2D.obj
 0001:0004de20       ?capacity@?$vector@PAVCelestialBody@@V?$allocator@PAVCelestialBody@@@std@@@std@@QBEIXZ 0044ee20 f i KSP2D.obj
 0001:0004de60       ?capacity@?$vector@PAVPlanetObject@@V?$allocator@PAVPlanetObject@@@std@@@std@@QBEIXZ 0044ee60 f i KSP2D.obj
 0001:0004dea0       ?capacity@?$vector@PAVSpacecraft@@V?$allocator@PAVSpacecraft@@@std@@@std@@QBEIXZ 0044eea0 f i KSP2D.obj
 0001:0004dee0       ?deallocate@?$allocator@PAVCelestialBody@@@std@@QAEXQAPAVCelestialBody@@I@Z 0044eee0 f i KSP2D.obj
 0001:0004df10       ?deallocate@?$allocator@PAVPlanetObject@@@std@@QAEXQAPAVPlanetObject@@I@Z 0044ef10 f i KSP2D.obj
 0001:0004df40       ?deallocate@?$allocator@PAVSpacecraft@@@std@@QAEXQAPAVSpacecraft@@I@Z 0044ef40 f i KSP2D.obj
 0001:0004df70       ?drawForegroundLine@BaseEngine@@QAEXHHHHI@Z 0044ef70 f i KSP2D.obj
 0001:0004dfe0       ?erase@?$vector@PAVSpacecraft@@V?$allocator@PAVSpacecraft@@@std@@@std@@QAE?AV?$_Vector_iterator@V?$_Vector_val@U?$_Simple_types@PAVSpacecraft@@@std@@@std@@@2@V?$_Vector_const_iterator@V?$_Vector_val@U?$_Simple_types@PAVSpacecraft@@@std@@@std@@@2@@Z 0044efe0 f i KSP2D.obj
 0001:0004e1d0       ?getRawTime@BaseEngine@@QBEHXZ 0044f1d0 f i KSP2D.obj
 0001:0004e1f0       ?init@GUIManager@@SAXPAVKSP2D@@@Z 0044f1f0 f i KSP2D.obj
 0001:0004e2a0       ?init@SimpleTrig@@SAXXZ    0044f2a0 f i KSP2D.obj
 0001:0004e340       ?insert@?$vector@PAVDisplayableObject@@V?$allocator@PAVDisplayableObject@@@std@@@std@@QAE?AV?$_Vector_iterator@V?$_Vector_val@U?$_Simple_types@PAVDisplayableObject@@@std@@@std@@@2@V?$_Vector_const_iterator@V?$_Vector_val@U?$_Simple_types@PAVDisplayableObject@@@std@@@std@@@2@ABQAVDisplayableObject@@@Z 0044f340 f i KSP2D.obj
 0001:0004e3f0       ?max_size@?$_Default_allocator_traits@V?$allocator@PAVCelestialBody@@@std@@@std@@SAIABV?$allocator@PAVCelestialBody@@@2@@Z 0044f3f0 f i KSP2D.obj
 0001:0004e400       ?max_size@?$_Default_allocator_traits@V?$allocator@PAVPlanetObject@@@std@@@std@@SAIABV?$allocator@PAVPlanetObject@@@2@@Z 0044f400 f i KSP2D.obj
 0001:0004e410       ?max_size@?$_Default_allocator_traits@V?$allocator@PAVSpacecraft@@@std@@@std@@SAIABV?$allocator@PAVSpacecraft@@@2@@Z 0044f410 f i KSP2D.obj
 0001:0004e420       ?max_size@?$vector@PAVCelestialBody@@V?$allocator@PAVCelestialBody@@@std@@@std@@QBEIXZ 0044f420 f i KSP2D.obj
 0001:0004e470       ?max_size@?$vector@PAVPlanetObject@@V?$allocator@PAVPlanetObject@@@std@@@std@@QBEIXZ 0044f470 f i KSP2D.obj
 0001:0004e4c0       ?max_size@?$vector@PAVSpacecraft@@V?$allocator@PAVSpacecraft@@@std@@@std@@QBEIXZ 0044f4c0 f i KSP2D.obj
 0001:0004e510       ?normalise@Vec2D@@QAEAAV1@XZ 0044f510 f i KSP2D.obj
 0001:0004e5a0       ?notifyObjectsAboutKeys@BaseEngine@@QAEX_N@Z 0044f5a0 f i KSP2D.obj
 0001:0004e5c0       ?pow@@YANNH@Z              0044f5c0 f i KSP2D.obj
 0001:0004e620       ?push_back@?$vector@PAVCelestialBody@@V?$allocator@PAVCelestialBody@@@std@@@std@@QAEX$$QAPAVCelestialBody@@@Z 0044f620 f i KSP2D.obj
 0001:0004e650       ?push_back@?$vector@PAVPlanetObject@@V?$allocator@PAVPlanetObject@@@std@@@std@@QAEX$$QAPAVPlanetObject@@@Z 0044f650 f i KSP2D.obj
 0001:0004e680       ?push_back@?$vector@PAVSpacecraft@@V?$allocator@PAVSpacecraft@@@std@@@std@@QAEXABQAVSpacecraft@@@Z 0044f680 f i KSP2D.obj
 0001:0004e6a0       ?reserve@?$basic_string@DU?$char_traits@D@std@@V?$allocator@D@2@@std@@QAEXI@Z 0044f6a0 f i KSP2D.obj
 0001:0004e750       ?setStatic@PhysBody@@QAEXXZ 0044f750 f i KSP2D.obj
 0001:0004e770       ?size@?$vector@PAVCelestialBody@@V?$allocator@PAVCelestialBody@@@std@@@std@@QBEIXZ 0044f770 f i KSP2D.obj
 0001:0004e7b0       ?size@?$vector@PAVPlanetObject@@V?$allocator@PAVPlanetObject@@@std@@@std@@QBEIXZ 0044f7b0 f i KSP2D.obj
 0001:0004e7f0       ?size@?$vector@PAVSpacecraft@@V?$allocator@PAVSpacecraft@@@std@@@std@@QBEIXZ 0044f7f0 f i KSP2D.obj
 0001:0004e830       ?uninit@GUIManager@@SAXXZ  0044f830 f i KSP2D.obj
 0001:0004e880       ?getPartData@KSPMetaManager@@QAE?AV?$shared_ptr@UPartData@@@std@@ABV?$basic_string@DU?$char_traits@D@std@@V?$allocator@D@2@@3@_N@Z 0044f880 f   KSPMetaManager.obj
 0001:0004f2b0       ?getPartDataCopy@KSPMetaManager@@QAEPAUPartData@@ABV?$basic_string@DU?$char_traits@D@std@@V?$allocator@D@2@@std@@_N@Z 004502b0 f   KSPMetaManager.obj
 0001:0004f460       ?newGadget@KSPMetaManager@@SAPAVGadget@@ABV?$basic_string@DU?$char_traits@D@std@@V?$allocator@D@2@@std@@ABH@Z 00450460 f   KSPMetaManager.obj
 0001:0004fc60       ??$?0$$V@?$_Compressed_pair@V?$allocator@PAVGadget@@@std@@V?$_Vector_val@U?$_Simple_types@PAVGadget@@@std@@@2@$00@std@@QAE@U_Zero_then_variadic_args_t@1@@Z 00450c60 f i KSPMetaManager.obj
 0001:0004fc90       ??$?0AAV?$_Tree_iterator@V?$_Tree_val@U?$_Tree_simple_types@U?$pair@$$CBV?$basic_string@DU?$char_traits@D@std@@V?$allocator@D@2@@std@@V?$shared_ptr@UPartData@@@2@@std@@@std@@@std@@@std@@_N$0A@@?$pair@V?$_Tree_iterator@V?$_Tree_val@U?$_Tree_simple_types@U?$pair@$$CBV?$basic_string@DU?$char_traits@D@std@@V?$allocator@D@2@@std@@V?$shared_ptr@UPartData@@@2@@std@@@std@@@std@@@std@@_N@std@@QAE@AAV?$_Tree_iterator@V?$_Tree_val@U?$_Tree_simple_types@U?$pair@$$CBV?$basic_string@DU?$char_traits@D@std@@V?$allocator@D@2@@std@@V?$shared_ptr@UPartData@@@2@@std@@@std@@@std@@@1@$$QA_N@Z 00450c90 f i KSPMetaManager.obj
 0001:0004fce0       ??$?0ABV?$basic_string@DU?$char_traits@D@std@@V?$allocator@D@2@@std@@AAV?$shared_ptr@UPartData@@@1@$0A@@?$pair@V?$basic_string@DU?$char_traits@D@std@@V?$allocator@D@2@@std@@V?$shared_ptr@UPartData@@@2@@std@@QAE@ABV?$basic_string@DU?$char_traits@D@std@@V?$allocator@D@2@@1@AAV?$shared_ptr@UPartData@@@1@@Z 00450ce0 f i KSPMetaManager.obj
 0001:0004fd30       ??$?0PAVGadget@@@?$allocator@U_Container_proxy@std@@@std@@QAE@ABV?$allocator@PAVGadget@@@1@@Z 00450d30 f i KSPMetaManager.obj
 0001:0004fd50       ??$?0UPartData@@$0A@@?$shared_ptr@UPartData@@@std@@QAE@PAUPartData@@@Z 00450d50 f i KSPMetaManager.obj
 0001:0004fd90       ??$?0V?$_Tree_iterator@V?$_Tree_val@U?$_Tree_simple_types@U?$pair@$$CBV?$basic_string@DU?$char_traits@D@std@@V?$allocator@D@2@@std@@V?$shared_ptr@UPartData@@@2@@std@@@std@@@std@@@std@@_N$0A@@?$pair@V?$_Tree_iterator@V?$_Tree_val@U?$_Tree_simple_types@U?$pair@$$CBV?$basic_string@DU?$char_traits@D@std@@V?$allocator@D@2@@std@@V?$shared_ptr@UPartData@@@2@@std@@@std@@@std@@@std@@_N@std@@QAE@$$QAV?$_Tree_iterator@V?$_Tree_val@U?$_Tree_simple_types@U?$pair@$$CBV?$basic_string@DU?$char_traits@D@std@@V?$allocator@D@2@@std@@V?$shared_ptr@UPartData@@@2@@std@@@std@@@std@@@1@$$QA_N@Z 00450d90 f i KSPMetaManager.obj
 0001:0004fde0       ??$?0V?$basic_string@DU?$char_traits@D@std@@V?$allocator@D@2@@std@@V?$shared_ptr@UPartData@@@1@$0A@@?$pair@$$CBV?$basic_string@DU?$char_traits@D@std@@V?$allocator@D@2@@std@@V?$shared_ptr@UPartData@@@2@@std@@QAE@$$QAU?$pair@V?$basic_string@DU?$char_traits@D@std@@V?$allocator@D@2@@std@@V?$shared_ptr@UPartData@@@2@@1@@Z 00450de0 f i KSPMetaManager.obj
 0001:0004fe30       ??$?8DU?$char_traits@D@std@@V?$allocator@D@1@@std@@YA_NABV?$basic_string@DU?$char_traits@D@std@@V?$allocator@D@2@@0@QBD@Z 00450e30 f i KSPMetaManager.obj
 0001:0004fe50       ??$?CUPartData@@$0A@@?$shared_ptr@UPartData@@@std@@QBEPAUPartData@@XZ 00450e50 f i KSPMetaManager.obj
 0001:0004fe70       ??$?DUPartData@@$0A@@?$shared_ptr@UPartData@@@std@@QBEAAUPartData@@XZ 00450e70 f i KSPMetaManager.obj
 0001:0004fe90       ??$_Buy_if_not_node@AAU?$pair@$$CBV?$basic_string@DU?$char_traits@D@std@@V?$allocator@D@2@@std@@V?$shared_ptr@UPartData@@@2@@std@@@?$_Tree@V?$_Tmap_traits@V?$basic_string@DU?$char_traits@D@std@@V?$allocator@D@2@@std@@V?$shared_ptr@UPartData@@@2@U?$less@V?$basic_string@DU?$char_traits@D@std@@V?$allocator@D@2@@std@@@2@V?$allocator@U?$pair@$$CBV?$basic_string@DU?$char_traits@D@std@@V?$allocator@D@2@@std@@V?$shared_ptr@UPartData@@@2@@std@@@2@$0A@@std@@@std@@IAEPAU?$_Tree_node@U?$pair@$$CBV?$basic_string@DU?$char_traits@D@std@@V?$allocator@D@2@@std@@V?$shared_ptr@UPartData@@@2@@std@@PAX@1@PAU21@AAU?$pair@$$CBV?$basic_string@DU?$char_traits@D@std@@V?$allocator@D@2@@std@@V?$shared_ptr@UPartData@@@2@@1@@Z 00450e90 f i KSPMetaManager.obj
 0001:0004feb0       ??$_Buynode@U?$pair@V?$basic_string@DU?$char_traits@D@std@@V?$allocator@D@2@@std@@V?$shared_ptr@UPartData@@@2@@std@@@?$_Tree_comp_alloc@V?$_Tmap_traits@V?$basic_string@DU?$char_traits@D@std@@V?$allocator@D@2@@std@@V?$shared_ptr@UPartData@@@2@U?$less@V?$basic_string@DU?$char_traits@D@std@@V?$allocator@D@2@@std@@@2@V?$allocator@U?$pair@$$CBV?$basic_string@DU?$char_traits@D@std@@V?$allocator@D@2@@std@@V?$shared_ptr@UPartData@@@2@@std@@@2@$0A@@std@@@std@@QAEPAU?$_Tree_node@U?$pair@$$CBV?$basic_string@DU?$char_traits@D@std@@V?$allocator@D@2@@std@@V?$shared_ptr@UPartData@@@2@@std@@PAX@1@$$QAU?$pair@V?$basic_string@DU?$char_traits@D@std@@V?$allocator@D@2@@std@@V?$shared_ptr@UPartData@@@2@@1@@Z 00450eb0 f i KSPMetaManager.obj
 0001:0004ffb0       ??$_Copy_construct_from@UPartData@@@?$_Ptr_base@UPartData@@@std@@IAEXABV?$shared_ptr@UPartData@@@1@@Z 00450fb0 f i KSPMetaManager.obj
 0001:00050000       ??$_Copy_memmove@PAPAVGadget@@PAPAV1@@std@@YAPAPAVGadget@@PAPAV1@00@Z 00451000 f i KSPMetaManager.obj
 0001:00050050       ??$_Destroy_range1@V?$allocator@PAVGadget@@@std@@@std@@YAXPAPAVGadget@@0AAV?$allocator@PAVGadget@@@0@U?$integral_constant@_N$00@0@@Z 00451050 f i KSPMetaManager.obj
 0001:00050060       ??$_Destroy_range@V?$allocator@PAVGadget@@@std@@@std@@YAXPAPAVGadget@@0AAV?$allocator@PAVGadget@@@0@@Z 00451060 f i KSPMetaManager.obj
 0001:00050090       ??$_Emplace_back_with_unused_capacity@PAVGadget@@@?$vector@PAVGadget@@V?$allocator@PAVGadget@@@std@@@std@@AAE@$$QAPAVGadget@@@Z 00451090 f i KSPMetaManager.obj
 0001:00050140       ??$_Emplace_reallocate@PAVGadget@@@?$vector@PAVGadget@@V?$allocator@PAVGadget@@@std@@@std@@QAEPAPAVGadget@@QAPAV2@$$QAPAV2@@Z 00451140 f i KSPMetaManager.obj
 0001:00050390       ??$_Enable_shared_from_this1@UPartData@@U1@@std@@YAXABV?$shared_ptr@UPartData@@@0@PAUPartData@@U?$integral_constant@_N$0A@@0@@Z 00451390 f i KSPMetaManager.obj
 0001:000503a0       ??$_Enable_shared_from_this@UPartData@@U1@@std@@YAXABV?$shared_ptr@UPartData@@@0@PAUPartData@@@Z 004513a0 f i KSPMetaManager.obj
 0001:000503d0       ??$_Freenode0@V?$allocator@U?$_Tree_node@U?$pair@$$CBV?$basic_string@DU?$char_traits@D@std@@V?$allocator@D@2@@std@@V?$shared_ptr@UPartData@@@2@@std@@PAX@std@@@std@@@?$_Tree_node@U?$pair@$$CBV?$basic_string@DU?$char_traits@D@std@@V?$allocator@D@2@@std@@V?$shared_ptr@UPartData@@@2@@std@@PAX@std@@SAXAAV?$allocator@U?$_Tree_node@U?$pair@$$CBV?$basic_string@DU?$char_traits@D@std@@V?$allocator@D@2@@std@@V?$shared_ptr@UPartData@@@2@@std@@PAX@std@@@1@PAU01@@Z 004513d0 f i KSPMetaManager.obj
 0001:00050490       ??$_Get_unwrapped@PAVGadget@@@std@@YAPAPAVGadget@@QAPAV1@@Z 00451490 f i KSPMetaManager.obj
 0001:000504a0       ??$_Get_unwrapped_n@PAVGadget@@H$0A@@std@@YAPAPAVGadget@@QAPAV1@H@Z 004514a0 f i KSPMetaManager.obj
 0001:000504b0       ??$_Idl_distance1@PAPAVGadget@@PAPAV1@@std@@YAHABQAPAVGadget@@0Urandom_access_iterator_tag@0@@Z 004514b0 f i KSPMetaManager.obj
 0001:000504d0       ??$_Idl_distance@PAPAVGadget@@PAPAV1@@std@@YA@ABQAPAVGadget@@0@Z 004514d0 f i KSPMetaManager.obj
 0001:00050500       ??$_Insert_at@AAU?$pair@$$CBV?$basic_string@DU?$char_traits@D@std@@V?$allocator@D@2@@std@@V?$shared_ptr@UPartData@@@2@@std@@PAU?$_Tree_node@U?$pair@$$CBV?$basic_string@DU?$char_traits@D@std@@V?$allocator@D@2@@std@@V?$shared_ptr@UPartData@@@2@@std@@PAX@2@@?$_Tree@V?$_Tmap_traits@V?$basic_string@DU?$char_traits@D@std@@V?$allocator@D@2@@std@@V?$shared_ptr@UPartData@@@2@U?$less@V?$basic_string@DU?$char_traits@D@std@@V?$allocator@D@2@@std@@@2@V?$allocator@U?$pair@$$CBV?$basic_string@DU?$char_traits@D@std@@V?$allocator@D@2@@std@@V?$shared_ptr@UPartData@@@2@@std@@@2@$0A@@std@@@std@@IAE?AV?$_Tree_iterator@V?$_Tree_val@U?$_Tree_simple_types@U?$pair@$$CBV?$basic_string@DU?$char_traits@D@std@@V?$allocator@D@2@@std@@V?$shared_ptr@UPartData@@@2@@std@@@std@@@std@@@1@_NPAU?$_Tree_node@U?$pair@$$CBV?$basic_string@DU?$char_traits@D@std@@V?$allocator@D@2@@std@@V?$shared_ptr@UPartData@@@2@@std@@PAX@1@AAU?$pair@$$CBV?$basic_string@DU?$char_traits@D@std@@V?$allocator@D@2@@std@@V?$shared_ptr@UPartData@@@2@@1@1@Z 00451500 f i KSPMetaManager.obj
 0001:00050840       ??$_Insert_nohint@AAU?$pair@$$CBV?$basic_string@DU?$char_traits@D@std@@V?$allocator@D@2@@std@@V?$shared_ptr@UPartData@@@2@@std@@PAU?$_Tree_node@U?$pair@$$CBV?$basic_string@DU?$char_traits@D@std@@V?$allocator@D@2@@std@@V?$shared_ptr@UPartData@@@2@@std@@PAX@2@@?$_Tree@V?$_Tmap_traits@V?$basic_string@DU?$char_traits@D@std@@V?$allocator@D@2@@std@@V?$shared_ptr@UPartData@@@2@U?$less@V?$basic_string@DU?$char_traits@D@std@@V?$allocator@D@2@@std@@@2@V?$allocator@U?$pair@$$CBV?$basic_string@DU?$char_traits@D@std@@V?$allocator@D@2@@std@@V?$shared_ptr@UPartData@@@2@@std@@@2@$0A@@std@@@std@@IAE?AU?$pair@V?$_Tree_iterator@V?$_Tree_val@U?$_Tree_simple_types@U?$pair@$$CBV?$basic_string@DU?$char_traits@D@std@@V?$allocator@D@2@@std@@V?$shared_ptr@UPartData@@@2@@std@@@std@@@std@@@std@@_N@1@_NAAU?$pair@$$CBV?$basic_string@DU?$char_traits@D@std@@V?$allocator@D@2@@std@@V?$shared_ptr@UPartData@@@2@@1@PAU?$_Tree_node@U?$pair@$$CBV?$basic_string@DU?$char_traits@D@std@@V?$allocator@D@2@@std@@V?$shared_ptr@UPartData@@@2@@std@@PAX@1@@Z 00451840 f i KSPMetaManager.obj
 0001:00050cf0       ??$_Kfn@$$CBV?$basic_string@DU?$char_traits@D@std@@V?$allocator@D@2@@std@@V?$shared_ptr@UPartData@@@2@@?$_Tmap_traits@V?$basic_string@DU?$char_traits@D@std@@V?$allocator@D@2@@std@@V?$shared_ptr@UPartData@@@2@U?$less@V?$basic_string@DU?$char_traits@D@std@@V?$allocator@D@2@@std@@@2@V?$allocator@U?$pair@$$CBV?$basic_string@DU?$char_traits@D@std@@V?$allocator@D@2@@std@@V?$shared_ptr@UPartData@@@2@@std@@@2@$0A@@std@@SAABV?$basic_string@DU?$char_traits@D@std@@V?$allocator@D@2@@1@ABU?$pair@$$CBV?$basic_string@DU?$char_traits@D@std@@V?$allocator@D@2@@std@@V?$shared_ptr@UPartData@@@2@@1@@Z 00451cf0 f i KSPMetaManager.obj
 0001:00050d00       ??$_Lbound@V?$basic_string@DU?$char_traits@D@std@@V?$allocator@D@2@@std@@@?$_Tree@V?$_Tmap_traits@V?$basic_string@DU?$char_traits@D@std@@V?$allocator@D@2@@std@@V?$shared_ptr@UPartData@@@2@U?$less@V?$basic_string@DU?$char_traits@D@std@@V?$allocator@D@2@@std@@@2@V?$allocator@U?$pair@$$CBV?$basic_string@DU?$char_traits@D@std@@V?$allocator@D@2@@std@@V?$shared_ptr@UPartData@@@2@@std@@@2@$0A@@std@@@std@@IBEPAU?$_Tree_node@U?$pair@$$CBV?$basic_string@DU?$char_traits@D@std@@V?$allocator@D@2@@std@@V?$shared_ptr@UPartData@@@2@@std@@PAX@1@ABV?$basic_string@DU?$char_traits@D@std@@V?$allocator@D@2@@1@@Z 00451d00 f i KSPMetaManager.obj
 0001:00050d90       ??$_Move_construct_from@UPartData@@@?$_Ptr_base@UPartData@@@std@@IAEX$$QAV01@@Z 00451d90 f i KSPMetaManager.obj
 0001:00050de0       ??$_Ptr_move_cat@PAVGadget@@PAV1@@std@@YA?AU_Really_trivial_ptr_iterator_tag@0@ABQAPAVGadget@@0@Z 00451de0 f i KSPMetaManager.obj
 0001:00050df0       ??$_Seek_wrapped@PAVGadget@@@std@@YAXAAPAPAVGadget@@QAPAV1@@Z 00451df0 f i KSPMetaManager.obj
 0001:00050e00       ??$_Set_ptr_rep_and_enable_shared@UPartData@@@?$shared_ptr@UPartData@@@std@@AAEXPAUPartData@@PAV_Ref_count_base@1@@Z 00451e00 f i KSPMetaManager.obj
 0001:00050e40       ??$_Setp@UPartData@@@?$shared_ptr@UPartData@@@std@@AAEXPAUPartData@@U?$integral_constant@_N$0A@@1@@Z 00451e40 f i KSPMetaManager.obj
 0001:00050f70       ??$_Traits_equal@U?$char_traits@D@std@@@std@@YA_NQBDI0I@Z 00451f70 f i KSPMetaManager.obj
 0001:00050fc0       ??$_Unfancy@PAVGadget@@@std@@YAPAPAVGadget@@PAPAV1@@Z 00451fc0 f i KSPMetaManager.obj
 0001:00050fd0       ??$_Uninitialized_move@PAPAVGadget@@PAPAV1@V?$allocator@PAVGadget@@@std@@@std@@YAPAPAVGadget@@QAPAV1@0PAPAV1@AAV?$allocator@PAVGadget@@@0@@Z 00451fd0 f i KSPMetaManager.obj
 0001:00051090       ??$_Uninitialized_move_al_unchecked@PAVGadget@@PAV1@V?$allocator@PAVGadget@@@std@@@std@@YAPAPAVGadget@@QAPAV1@00AAV?$allocator@PAVGadget@@@0@U_Really_trivial_ptr_iterator_tag@0@U?$integral_constant@_N$00@0@@Z 00452090 f i KSPMetaManager.obj
 0001:000510b0       ??$addressof@PAU?$_Tree_node@U?$pair@$$CBV?$basic_string@DU?$char_traits@D@std@@V?$allocator@D@2@@std@@V?$shared_ptr@UPartData@@@2@@std@@PAX@std@@@std@@YAPAPAU?$_Tree_node@U?$pair@$$CBV?$basic_string@DU?$char_traits@D@std@@V?$allocator@D@2@@std@@V?$shared_ptr@UPartData@@@2@@std@@PAX@0@AAPAU10@@Z 004520b0 f i KSPMetaManager.obj
 0001:000510c0       ??$addressof@U?$pair@$$CBV?$basic_string@DU?$char_traits@D@std@@V?$allocator@D@2@@std@@V?$shared_ptr@UPartData@@@2@@std@@@std@@YAPAU?$pair@$$CBV?$basic_string@DU?$char_traits@D@std@@V?$allocator@D@2@@std@@V?$shared_ptr@UPartData@@@2@@0@AAU10@@Z 004520c0 f i KSPMetaManager.obj
 0001:000510d0       ??$addressof@V?$_Tree_val@U?$_Tree_simple_types@U?$pair@$$CBV?$basic_string@DU?$char_traits@D@std@@V?$allocator@D@2@@std@@V?$shared_ptr@UPartData@@@2@@std@@@std@@@std@@@std@@YAPAV?$_Tree_val@U?$_Tree_simple_types@U?$pair@$$CBV?$basic_string@DU?$char_traits@D@std@@V?$allocator@D@2@@std@@V?$shared_ptr@UPartData@@@2@@std@@@std@@@0@AAV10@@Z 004520d0 f i KSPMetaManager.obj
 0001:000510e0       ??$addressof@V?$_Vector_val@U?$_Simple_types@PAVGadget@@@std@@@std@@@std@@YAPAV?$_Vector_val@U?$_Simple_types@PAVGadget@@@std@@@0@AAV10@@Z 004520e0 f i KSPMetaManager.obj
 0001:000510f0       ??$construct@PAU?$_Tree_node@U?$pair@$$CBV?$basic_string@DU?$char_traits@D@std@@V?$allocator@D@2@@std@@V?$shared_ptr@UPartData@@@2@@std@@PAX@std@@AAPAU12@@?$_Default_allocator_traits@V?$allocator@U?$_Tree_node@U?$pair@$$CBV?$basic_string@DU?$char_traits@D@std@@V?$allocator@D@2@@std@@V?$shared_ptr@UPartData@@@2@@std@@PAX@std@@@std@@@std@@SAXAAV?$allocator@U?$_Tree_node@U?$pair@$$CBV?$basic_string@DU?$char_traits@D@std@@V?$allocator@D@2@@std@@V?$shared_ptr@UPartData@@@2@@std@@PAX@std@@@1@QAPAU?$_Tree_node@U?$pair@$$CBV?$basic_string@DU?$char_traits@D@std@@V?$allocator@D@2@@std@@V?$shared_ptr@UPartData@@@2@@std@@PAX@1@AAPAU31@@Z 004520f0 f i KSPMetaManager.obj
 0001:00051130       ??$construct@PAVGadget@@PAV1@@?$_Default_allocator_traits@V?$allocator@PAVGadget@@@std@@@std@@SAXAAV?$allocator@PAVGadget@@@1@QAPAVGadget@@$$QAPAV3@@Z 00452130 f i KSPMetaManager.obj
 0001:00051170       ??$construct@U?$pair@$$CBV?$basic_string@DU?$char_traits@D@std@@V?$allocator@D@2@@std@@V?$shared_ptr@UPartData@@@2@@std@@U?$pair@V?$basic_string@DU?$char_traits@D@std@@V?$allocator@D@2@@std@@V?$shared_ptr@UPartData@@@2@@2@@?$_Default_allocator_traits@V?$allocator@U?$_Tree_node@U?$pair@$$CBV?$basic_string@DU?$char_traits@D@std@@V?$allocator@D@2@@std@@V?$shared_ptr@UPartData@@@2@@std@@PAX@std@@@std@@@std@@SAXAAV?$allocator@U?$_Tree_node@U?$pair@$$CBV?$basic_string@DU?$char_traits@D@std@@V?$allocator@D@2@@std@@V?$shared_ptr@UPartData@@@2@@std@@PAX@std@@@1@QAU?$pair@$$CBV?$basic_string@DU?$char_traits@D@std@@V?$allocator@D@2@@std@@V?$shared_ptr@UPartData@@@2@@1@$$QAU?$pair@V?$basic_string@DU?$char_traits@D@std@@V?$allocator@D@2@@std@@V?$shared_ptr@UPartData@@@2@@1@@Z 00452170 f i KSPMetaManager.obj
 0001:000511b0       ??$destroy@PAU?$_Tree_node@U?$pair@$$CBV?$basic_string@DU?$char_traits@D@std@@V?$allocator@D@2@@std@@V?$shared_ptr@UPartData@@@2@@std@@PAX@std@@@?$_Default_allocator_traits@V?$allocator@U?$_Tree_node@U?$pair@$$CBV?$basic_string@DU?$char_traits@D@std@@V?$allocator@D@2@@std@@V?$shared_ptr@UPartData@@@2@@std@@PAX@std@@@std@@@std@@SAXAAV?$allocator@U?$_Tree_node@U?$pair@$$CBV?$basic_string@DU?$char_traits@D@std@@V?$allocator@D@2@@std@@V?$shared_ptr@UPartData@@@2@@std@@PAX@std@@@1@QAPAU?$_Tree_node@U?$pair@$$CBV?$basic_string@DU?$char_traits@D@std@@V?$allocator@D@2@@std@@V?$shared_ptr@UPartData@@@2@@std@@PAX@1@@Z 004521b0 f i KSPMetaManager.obj
 0001:000511c0       ??$destroy@U?$pair@$$CBV?$basic_string@DU?$char_traits@D@std@@V?$allocator@D@2@@std@@V?$shared_ptr@UPartData@@@2@@std@@@?$_Default_allocator_traits@V?$allocator@U?$_Tree_node@U?$pair@$$CBV?$basic_string@DU?$char_traits@D@std@@V?$allocator@D@2@@std@@V?$shared_ptr@UPartData@@@2@@std@@PAX@std@@@std@@@std@@SAXAAV?$allocator@U?$_Tree_node@U?$pair@$$CBV?$basic_string@DU?$char_traits@D@std@@V?$allocator@D@2@@std@@V?$shared_ptr@UPartData@@@2@@std@@PAX@std@@@1@QAU?$pair@$$CBV?$basic_string@DU?$char_traits@D@std@@V?$allocator@D@2@@std@@V?$shared_ptr@UPartData@@@2@@1@@Z 004521c0 f i KSPMetaManager.obj
 0001:000511e0       ??$emplace@U?$pair@V?$basic_string@DU?$char_traits@D@std@@V?$allocator@D@2@@std@@V?$shared_ptr@UPartData@@@2@@std@@@?$_Tree@V?$_Tmap_traits@V?$basic_string@DU?$char_traits@D@std@@V?$allocator@D@2@@std@@V?$shared_ptr@UPartData@@@2@U?$less@V?$basic_string@DU?$char_traits@D@std@@V?$allocator@D@2@@std@@@2@V?$allocator@U?$pair@$$CBV?$basic_string@DU?$char_traits@D@std@@V?$allocator@D@2@@std@@V?$shared_ptr@UPartData@@@2@@std@@@2@$0A@@std@@@std@@QAE?AU?$pair@V?$_Tree_iterator@V?$_Tree_val@U?$_Tree_simple_types@U?$pair@$$CBV?$basic_string@DU?$char_traits@D@std@@V?$allocator@D@2@@std@@V?$shared_ptr@UPartData@@@2@@std@@@std@@@std@@@std@@_N@1@$$QAU?$pair@V?$basic_string@DU?$char_traits@D@std@@V?$allocator@D@2@@std@@V?$shared_ptr@UPartData@@@2@@1@@Z 004521e0 f i KSPMetaManager.obj
 0001:00051250       ??$emplace_back@PAVGadget@@@?$vector@PAVGadget@@V?$allocator@PAVGadget@@@std@@@std@@QAE@$$QAPAVGadget@@@Z 00452250 f i KSPMetaManager.obj
 0001:000512c0       ??$forward@AAPAU?$_Tree_node@U?$pair@$$CBV?$basic_string@DU?$char_traits@D@std@@V?$allocator@D@2@@std@@V?$shared_ptr@UPartData@@@2@@std@@PAX@std@@@std@@YAAAPAU?$_Tree_node@U?$pair@$$CBV?$basic_string@DU?$char_traits@D@std@@V?$allocator@D@2@@std@@V?$shared_ptr@UPartData@@@2@@std@@PAX@0@AAPAU10@@Z 004522c0 f i KSPMetaManager.obj
 0001:000512d0       ??$forward@AAU?$pair@$$CBV?$basic_string@DU?$char_traits@D@std@@V?$allocator@D@2@@std@@V?$shared_ptr@UPartData@@@2@@std@@@std@@YAAAU?$pair@$$CBV?$basic_string@DU?$char_traits@D@std@@V?$allocator@D@2@@std@@V?$shared_ptr@UPartData@@@2@@0@AAU10@@Z 004522d0 f i KSPMetaManager.obj
 0001:000512e0       ??$forward@AAV?$_Tree_iterator@V?$_Tree_val@U?$_Tree_simple_types@U?$pair@$$CBV?$basic_string@DU?$char_traits@D@std@@V?$allocator@D@2@@std@@V?$shared_ptr@UPartData@@@2@@std@@@std@@@std@@@std@@@std@@YAAAV?$_Tree_iterator@V?$_Tree_val@U?$_Tree_simple_types@U?$pair@$$CBV?$basic_string@DU?$char_traits@D@std@@V?$allocator@D@2@@std@@V?$shared_ptr@UPartData@@@2@@std@@@std@@@std@@@0@AAV10@@Z 004522e0 f i KSPMetaManager.obj
 0001:000512f0       ??$forward@AAV?$shared_ptr@UPartData@@@std@@@std@@YAAAV?$shared_ptr@UPartData@@@0@AAV10@@Z 004522f0 f i KSPMetaManager.obj
 0001:00051300       ??$forward@ABV?$basic_string@DU?$char_traits@D@std@@V?$allocator@D@2@@std@@@std@@YAABV?$basic_string@DU?$char_traits@D@std@@V?$allocator@D@2@@0@ABV10@@Z 00452300 f i KSPMetaManager.obj
 0001:00051310       ??$forward@PAVGadget@@@std@@YA$$QAPAVGadget@@AAPAV1@@Z 00452310 f i KSPMetaManager.obj
 0001:00051320       ??$forward@U?$pair@V?$basic_string@DU?$char_traits@D@std@@V?$allocator@D@2@@std@@V?$shared_ptr@UPartData@@@2@@std@@@std@@YA$$QAU?$pair@V?$basic_string@DU?$char_traits@D@std@@V?$allocator@D@2@@std@@V?$shared_ptr@UPartData@@@2@@0@AAU10@@Z 00452320 f i KSPMetaManager.obj
 0001:00051330       ??$forward@V?$_Tree_iterator@V?$_Tree_val@U?$_Tree_simple_types@U?$pair@$$CBV?$basic_string@DU?$char_traits@D@std@@V?$allocator@D@2@@std@@V?$shared_ptr@UPartData@@@2@@std@@@std@@@std@@@std@@@std@@YA$$QAV?$_Tree_iterator@V?$_Tree_val@U?$_Tree_simple_types@U?$pair@$$CBV?$basic_string@DU?$char_traits@D@std@@V?$allocator@D@2@@std@@V?$shared_ptr@UPartData@@@2@@std@@@std@@@std@@@0@AAV10@@Z 00452330 f i KSPMetaManager.obj
 0001:00051340       ??$forward@V?$shared_ptr@UPartData@@@std@@@std@@YA$$QAV?$shared_ptr@UPartData@@@0@AAV10@@Z 00452340 f i KSPMetaManager.obj
 0001:00051350       ??$insert@U?$pair@V?$basic_string@DU?$char_traits@D@std@@V?$allocator@D@2@@std@@V?$shared_ptr@UPartData@@@2@@std@@X@?$map@V?$basic_string@DU?$char_traits@D@std@@V?$allocator@D@2@@std@@V?$shared_ptr@UPartData@@@2@U?$less@V?$basic_string@DU?$char_traits@D@std@@V?$allocator@D@2@@std@@@2@V?$allocator@U?$pair@$$CBV?$basic_string@DU?$char_traits@D@std@@V?$allocator@D@2@@std@@V?$shared_ptr@UPartData@@@2@@std@@@2@@std@@QAE?AU?$pair@V?$_Tree_iterator@V?$_Tree_val@U?$_Tree_simple_types@U?$pair@$$CBV?$basic_string@DU?$char_traits@D@std@@V?$allocator@D@2@@std@@V?$shared_ptr@UPartData@@@2@@std@@@std@@@std@@@std@@_N@1@$$QAU?$pair@V?$basic_string@DU?$char_traits@D@std@@V?$allocator@D@2@@std@@V?$shared_ptr@UPartData@@@2@@1@@Z 00452350 f i KSPMetaManager.obj
 0001:000513a0       ??$move@AAPAVGadget@@@std@@YA$$QAPAVGadget@@AAPAV1@@Z 004523a0 f i KSPMetaManager.obj
 0001:000513b0       ??$move@AAV?$shared_ptr@UPartData@@@std@@@std@@YA$$QAV?$shared_ptr@UPartData@@@0@AAV10@@Z 004523b0 f i KSPMetaManager.obj
 0001:000513c0       ??0?$_Ptr_base@UPartData@@@std@@IAE@XZ 004523c0 f i KSPMetaManager.obj
 0001:000513f0       ??0?$_Ref_count@UPartData@@@std@@QAE@PAUPartData@@@Z 004523f0 f i KSPMetaManager.obj
 0001:00051430       ??0?$_Tree_const_iterator@V?$_Tree_val@U?$_Tree_simple_types@U?$pair@$$CBV?$basic_string@DU?$char_traits@D@std@@V?$allocator@D@2@@std@@V?$shared_ptr@UPartData@@@2@@std@@@std@@@std@@@std@@QAE@$$QAV01@@Z 00452430 f i KSPMetaManager.obj
 0001:00051460       ??0?$_Tree_const_iterator@V?$_Tree_val@U?$_Tree_simple_types@U?$pair@$$CBV?$basic_string@DU?$char_traits@D@std@@V?$allocator@D@2@@std@@V?$shared_ptr@UPartData@@@2@@std@@@std@@@std@@@std@@QAE@ABV01@@Z 00452460 f i KSPMetaManager.obj
 0001:00051490       ??0?$_Tree_const_iterator@V?$_Tree_val@U?$_Tree_simple_types@U?$pair@$$CBV?$basic_string@DU?$char_traits@D@std@@V?$allocator@D@2@@std@@V?$shared_ptr@UPartData@@@2@@std@@@std@@@std@@@std@@QAE@PAU?$_Tree_node@U?$pair@$$CBV?$basic_string@DU?$char_traits@D@std@@V?$allocator@D@2@@std@@V?$shared_ptr@UPartData@@@2@@std@@PAX@1@PBV?$_Tree_val@U?$_Tree_simple_types@U?$pair@$$CBV?$basic_string@DU?$char_traits@D@std@@V?$allocator@D@2@@std@@V?$shared_ptr@UPartData@@@2@@std@@@std@@@1@@Z 00452490 f i KSPMetaManager.obj
 0001:000514c0       ??0?$_Tree_iterator@V?$_Tree_val@U?$_Tree_simple_types@U?$pair@$$CBV?$basic_string@DU?$char_traits@D@std@@V?$allocator@D@2@@std@@V?$shared_ptr@UPartData@@@2@@std@@@std@@@std@@@std@@QAE@$$QAV01@@Z 004524c0 f i KSPMetaManager.obj
 0001:000514f0       ??0?$_Tree_iterator@V?$_Tree_val@U?$_Tree_simple_types@U?$pair@$$CBV?$basic_string@DU?$char_traits@D@std@@V?$allocator@D@2@@std@@V?$shared_ptr@UPartData@@@2@@std@@@std@@@std@@@std@@QAE@ABV01@@Z 004524f0 f i KSPMetaManager.obj
 0001:00051520       ??0?$_Tree_iterator@V?$_Tree_val@U?$_Tree_simple_types@U?$pair@$$CBV?$basic_string@DU?$char_traits@D@std@@V?$allocator@D@2@@std@@V?$shared_ptr@UPartData@@@2@@std@@@std@@@std@@@std@@QAE@PAU?$_Tree_node@U?$pair@$$CBV?$basic_string@DU?$char_traits@D@std@@V?$allocator@D@2@@std@@V?$shared_ptr@UPartData@@@2@@std@@PAX@1@PBV?$_Tree_val@U?$_Tree_simple_types@U?$pair@$$CBV?$basic_string@DU?$char_traits@D@std@@V?$allocator@D@2@@std@@V?$shared_ptr@UPartData@@@2@@std@@@std@@@1@@Z 00452520 f i KSPMetaManager.obj
 0001:00051550       ??0?$_Tree_unchecked_const_iterator@V?$_Tree_val@U?$_Tree_simple_types@U?$pair@$$CBV?$basic_string@DU?$char_traits@D@std@@V?$allocator@D@2@@std@@V?$shared_ptr@UPartData@@@2@@std@@@std@@@std@@U_Iterator_base12@2@@std@@QAE@$$QAV01@@Z 00452550 f i KSPMetaManager.obj
 0001:00051590       ??0?$_Tree_unchecked_const_iterator@V?$_Tree_val@U?$_Tree_simple_types@U?$pair@$$CBV?$basic_string@DU?$char_traits@D@std@@V?$allocator@D@2@@std@@V?$shared_ptr@UPartData@@@2@@std@@@std@@@std@@U_Iterator_base12@2@@std@@QAE@ABV01@@Z 00452590 f i KSPMetaManager.obj
 0001:000515d0       ??0?$_Tree_unchecked_const_iterator@V?$_Tree_val@U?$_Tree_simple_types@U?$pair@$$CBV?$basic_string@DU?$char_traits@D@std@@V?$allocator@D@2@@std@@V?$shared_ptr@UPartData@@@2@@std@@@std@@@std@@U_Iterator_base12@2@@std@@QAE@PAU?$_Tree_node@U?$pair@$$CBV?$basic_string@DU?$char_traits@D@std@@V?$allocator@D@2@@std@@V?$shared_ptr@UPartData@@@2@@std@@PAX@1@PBV?$_Tree_val@U?$_Tree_simple_types@U?$pair@$$CBV?$basic_string@DU?$char_traits@D@std@@V?$allocator@D@2@@std@@V?$shared_ptr@UPartData@@@2@@std@@@std@@@1@@Z 004525d0 f i KSPMetaManager.obj
 0001:00051610       ??0?$_Vector_alloc@U?$_Vec_base_types@PAVGadget@@V?$allocator@PAVGadget@@@std@@@std@@@std@@QAE@XZ 00452610 f i KSPMetaManager.obj
 0001:00051640       ??0?$_Vector_val@U?$_Simple_types@PAVGadget@@@std@@@std@@QAE@XZ 00452640 f i KSPMetaManager.obj
 0001:00051690       ??0?$allocator@PAVGadget@@@std@@QAE@XZ 00452690 f i KSPMetaManager.obj
 0001:000516b0       ??0?$shared_ptr@UPartData@@@std@@QAE@$$QAV01@@Z 004526b0 f i KSPMetaManager.obj
 0001:00051720       ??0?$shared_ptr@UPartData@@@std@@QAE@$$T@Z 00452720 f i KSPMetaManager.obj
 0001:00051740       ??0?$shared_ptr@UPartData@@@std@@QAE@ABV01@@Z 00452740 f i KSPMetaManager.obj
 0001:000517b0       ??0?$vector@PAVGadget@@V?$allocator@PAVGadget@@@std@@@std@@QAE@XZ 004527b0 f i KSPMetaManager.obj
 0001:00051800       ??0AntennaGadget@@QAE@H@Z  00452800 f i KSPMetaManager.obj
 0001:00051840       ??0ControllerGadget@@QAE@H@Z 00452840 f i KSPMetaManager.obj
 0001:00051880       ??0CrewContainerGadget@@QAE@H@Z 00452880 f i KSPMetaManager.obj
 0001:000518c0       ??0DecouplerGadget@@QAE@H@Z 004528c0 f i KSPMetaManager.obj
 0001:00051900       ??0FuelThrusterGadget@@QAE@H@Z 00452900 f i KSPMetaManager.obj
 0001:00051950       ??0Gadget@@QAE@HPBD@Z      00452950 f i KSPMetaManager.obj
 0001:000519a0       ??0IonThrusterGadget@@QAE@H@Z 004529a0 f i KSPMetaManager.obj
 0001:000519f0       ??0MonopropThrusterGadget@@QAE@H@Z 004529f0 f i KSPMetaManager.obj
 0001:00051a40       ??0PartData@@QAE@XZ        00452a40 f i KSPMetaManager.obj
 0001:00051ad0       ??0ReactionWheelGadget@@QAE@H@Z 00452ad0 f i KSPMetaManager.obj
 0001:00051b20       ??0SolarPanelGadget@@QAE@H@Z 00452b20 f i KSPMetaManager.obj
 0001:00051b60       ??1?$_Ref_count@UPartData@@@std@@UAE@XZ 00452b60 f i KSPMetaManager.obj
 0001:00051b80       ??1?$_Tree_const_iterator@V?$_Tree_val@U?$_Tree_simple_types@U?$pair@$$CBV?$basic_string@DU?$char_traits@D@std@@V?$allocator@D@2@@std@@V?$shared_ptr@UPartData@@@2@@std@@@std@@@std@@@std@@QAE@XZ 00452b80 f i KSPMetaManager.obj
 0001:00051ba0       ??1?$_Tree_iterator@V?$_Tree_val@U?$_Tree_simple_types@U?$pair@$$CBV?$basic_string@DU?$char_traits@D@std@@V?$allocator@D@2@@std@@V?$shared_ptr@UPartData@@@2@@std@@@std@@@std@@@std@@QAE@XZ 00452ba0 f i KSPMetaManager.obj
 0001:00051bc0       ??1?$_Tree_unchecked_const_iterator@V?$_Tree_val@U?$_Tree_simple_types@U?$pair@$$CBV?$basic_string@DU?$char_traits@D@std@@V?$allocator@D@2@@std@@V?$shared_ptr@UPartData@@@2@@std@@@std@@@std@@U_Iterator_base12@2@@std@@QAE@XZ 00452bc0 f i KSPMetaManager.obj
 0001:00051be0       ??1?$pair@$$CBV?$basic_string@DU?$char_traits@D@std@@V?$allocator@D@2@@std@@V?$shared_ptr@UPartData@@@2@@std@@QAE@XZ 00452be0 f i KSPMetaManager.obj
 0001:00051c10       ??1?$pair@V?$_Tree_iterator@V?$_Tree_val@U?$_Tree_simple_types@U?$pair@$$CBV?$basic_string@DU?$char_traits@D@std@@V?$allocator@D@2@@std@@V?$shared_ptr@UPartData@@@2@@std@@@std@@@std@@@std@@_N@std@@QAE@XZ 00452c10 f i KSPMetaManager.obj
 0001:00051c30       ??1?$pair@V?$basic_string@DU?$char_traits@D@std@@V?$allocator@D@2@@std@@V?$shared_ptr@UPartData@@@2@@std@@QAE@XZ 00452c30 f i KSPMetaManager.obj
 0001:00051c60       ??1?$shared_ptr@UPartData@@@std@@QAE@XZ 00452c60 f i KSPMetaManager.obj
 0001:00051cb0       ??1PartData@@QAE@XZ        00452cb0 f i KSPMetaManager.obj
 0001:00051ce0       ??4PartData@@QAEAAU0@ABU0@@Z 00452ce0 f i KSPMetaManager.obj
 0001:00051e80       ??8?$_Tree_const_iterator@V?$_Tree_val@U?$_Tree_simple_types@U?$pair@$$CBV?$basic_string@DU?$char_traits@D@std@@V?$allocator@D@2@@std@@V?$shared_ptr@UPartData@@@2@@std@@@std@@@std@@@std@@QBE_NABV01@@Z 00452e80 f i KSPMetaManager.obj
 0001:00051f40       ??9?$_Tree_const_iterator@V?$_Tree_val@U?$_Tree_simple_types@U?$pair@$$CBV?$basic_string@DU?$char_traits@D@std@@V?$allocator@D@2@@std@@V?$shared_ptr@UPartData@@@2@@std@@@std@@@std@@@std@@QBE_NABV01@@Z 00452f40 f i KSPMetaManager.obj
 0001:00051f90       ??A?$GenericArray@$0A@V?$GenericValue@U?$UTF8@D@rapidjson@@V?$MemoryPoolAllocator@VCrtAllocator@rapidjson@@@2@@rapidjson@@@rapidjson@@QBEAAV?$GenericValue@U?$UTF8@D@rapidjson@@V?$MemoryPoolAllocator@VCrtAllocator@rapidjson@@@2@@1@I@Z 00452f90 f i KSPMetaManager.obj
 0001:00051fc0       ??A?$GenericValue@U?$UTF8@D@rapidjson@@V?$MemoryPoolAllocator@VCrtAllocator@rapidjson@@@2@@rapidjson@@QAEAAV01@I@Z 00452fc0 f i KSPMetaManager.obj
 0001:00052040       ??B?$shared_ptr@UPartData@@@std@@QBE_NXZ 00453040 f i KSPMetaManager.obj
 0001:00052080       ??C?$_Tree_iterator@V?$_Tree_val@U?$_Tree_simple_types@U?$pair@$$CBV?$basic_string@DU?$char_traits@D@std@@V?$allocator@D@2@@std@@V?$shared_ptr@UPartData@@@2@@std@@@std@@@std@@@std@@QBEPAU?$pair@$$CBV?$basic_string@DU?$char_traits@D@std@@V?$allocator@D@2@@std@@V?$shared_ptr@UPartData@@@2@@1@XZ 00453080 f i KSPMetaManager.obj
 0001:000520b0       ??D?$_Tree_const_iterator@V?$_Tree_val@U?$_Tree_simple_types@U?$pair@$$CBV?$basic_string@DU?$char_traits@D@std@@V?$allocator@D@2@@std@@V?$shared_ptr@UPartData@@@2@@std@@@std@@@std@@@std@@QBEABU?$pair@$$CBV?$basic_string@DU?$char_traits@D@std@@V?$allocator@D@2@@std@@V?$shared_ptr@UPartData@@@2@@1@XZ 004530b0 f i KSPMetaManager.obj
 0001:000521c0       ??D?$_Tree_iterator@V?$_Tree_val@U?$_Tree_simple_types@U?$pair@$$CBV?$basic_string@DU?$char_traits@D@std@@V?$allocator@D@2@@std@@V?$shared_ptr@UPartData@@@2@@std@@@std@@@std@@@std@@QBEAAU?$pair@$$CBV?$basic_string@DU?$char_traits@D@std@@V?$allocator@D@2@@std@@V?$shared_ptr@UPartData@@@2@@1@XZ 004531c0 f i KSPMetaManager.obj
 0001:000521e0       ??F?$_Tree_const_iterator@V?$_Tree_val@U?$_Tree_simple_types@U?$pair@$$CBV?$basic_string@DU?$char_traits@D@std@@V?$allocator@D@2@@std@@V?$shared_ptr@UPartData@@@2@@std@@@std@@@std@@@std@@QAEAAV01@XZ 004531e0 f i KSPMetaManager.obj
 0001:000522f0       ??F?$_Tree_iterator@V?$_Tree_val@U?$_Tree_simple_types@U?$pair@$$CBV?$basic_string@DU?$char_traits@D@std@@V?$allocator@D@2@@std@@V?$shared_ptr@UPartData@@@2@@std@@@std@@@std@@@std@@QAEAAV01@XZ 004532f0 f i KSPMetaManager.obj
 0001:00052310       ??F?$_Tree_unchecked_const_iterator@V?$_Tree_val@U?$_Tree_simple_types@U?$pair@$$CBV?$basic_string@DU?$char_traits@D@std@@V?$allocator@D@2@@std@@V?$shared_ptr@UPartData@@@2@@std@@@std@@@std@@U_Iterator_base12@2@@std@@QAEAAV01@XZ 00453310 f i KSPMetaManager.obj
 0001:000523e0       ??_E?$_Ref_count@UPartData@@@std@@UAEPAXI@Z 004533e0 f i KSPMetaManager.obj
 0001:000523e0       ??_G?$_Ref_count@UPartData@@@std@@UAEPAXI@Z 004533e0 f i KSPMetaManager.obj
 0001:00052420       ??_G?$pair@$$CBV?$basic_string@DU?$char_traits@D@std@@V?$allocator@D@2@@std@@V?$shared_ptr@UPartData@@@2@@std@@QAEPAXI@Z 00453420 f i KSPMetaManager.obj
 0001:00052460       ??_GPartData@@QAEPAXI@Z    00453460 f i KSPMetaManager.obj
 0001:000524a0       ?GetBool@?$GenericValue@U?$UTF8@D@rapidjson@@V?$MemoryPoolAllocator@VCrtAllocator@rapidjson@@@2@@rapidjson@@QBE_NXZ 004534a0 f i KSPMetaManager.obj
 0001:00052510       ?GetDouble@?$GenericValue@U?$UTF8@D@rapidjson@@V?$MemoryPoolAllocator@VCrtAllocator@rapidjson@@@2@@rapidjson@@QBENXZ 00453510 f i KSPMetaManager.obj
 0001:00052650       ?GetFloat@?$GenericValue@U?$UTF8@D@rapidjson@@V?$MemoryPoolAllocator@VCrtAllocator@rapidjson@@@2@@rapidjson@@QBEMXZ 00453650 f i KSPMetaManager.obj
 0001:00052680       ?GetUint@?$GenericValue@U?$UTF8@D@rapidjson@@V?$MemoryPoolAllocator@VCrtAllocator@rapidjson@@@2@@rapidjson@@QBEIXZ 00453680 f i KSPMetaManager.obj
 0001:000526d0       ?IsBool@?$GenericValue@U?$UTF8@D@rapidjson@@V?$MemoryPoolAllocator@VCrtAllocator@rapidjson@@@2@@rapidjson@@QBE_NXZ 004536d0 f i KSPMetaManager.obj
 0001:00052710       ?IsNumber@?$GenericValue@U?$UTF8@D@rapidjson@@V?$MemoryPoolAllocator@VCrtAllocator@rapidjson@@@2@@rapidjson@@QBE_NXZ 00453710 f i KSPMetaManager.obj
 0001:00052750       ?Size@?$GenericArray@$0A@V?$GenericValue@U?$UTF8@D@rapidjson@@V?$MemoryPoolAllocator@VCrtAllocator@rapidjson@@@2@@rapidjson@@@rapidjson@@QBEIXZ 00453750 f i KSPMetaManager.obj
 0001:00052770       ?Size@?$GenericValue@U?$UTF8@D@rapidjson@@V?$MemoryPoolAllocator@VCrtAllocator@rapidjson@@@2@@rapidjson@@QBEIXZ 00453770 f i KSPMetaManager.obj
 0001:000527c0       ?_Alloc_proxy@?$_Vector_alloc@U?$_Vec_base_types@PAVGadget@@V?$allocator@PAVGadget@@@std@@@std@@@std@@QAEXXZ 004537c0 f i KSPMetaManager.obj
 0001:00052860       ?_Buynode0@?$_Tree_comp_alloc@V?$_Tmap_traits@V?$basic_string@DU?$char_traits@D@std@@V?$allocator@D@2@@std@@V?$shared_ptr@UPartData@@@2@U?$less@V?$basic_string@DU?$char_traits@D@std@@V?$allocator@D@2@@std@@@2@V?$allocator@U?$pair@$$CBV?$basic_string@DU?$char_traits@D@std@@V?$allocator@D@2@@std@@V?$shared_ptr@UPartData@@@2@@std@@@2@$0A@@std@@@std@@QAEPAU?$_Tree_node@U?$pair@$$CBV?$basic_string@DU?$char_traits@D@std@@V?$allocator@D@2@@std@@V?$shared_ptr@UPartData@@@2@@std@@PAX@2@XZ 00453860 f i KSPMetaManager.obj
 0001:000529b0       ?_Calculate_growth@?$vector@PAVGadget@@V?$allocator@PAVGadget@@@std@@@std@@ABEII@Z 004539b0 f i KSPMetaManager.obj
 0001:00052a20       ?_Change_array@?$vector@PAVGadget@@V?$allocator@PAVGadget@@@std@@@std@@AAEXQAPAVGadget@@II@Z 00453a20 f i KSPMetaManager.obj
 0001:00052ae0       ?_Compare@?$_Tree@V?$_Tmap_traits@V?$basic_string@DU?$char_traits@D@std@@V?$allocator@D@2@@std@@V?$shared_ptr@UPartData@@@2@U?$less@V?$basic_string@DU?$char_traits@D@std@@V?$allocator@D@2@@std@@@2@V?$allocator@U?$pair@$$CBV?$basic_string@DU?$char_traits@D@std@@V?$allocator@D@2@@std@@V?$shared_ptr@UPartData@@@2@@std@@@2@$0A@@std@@@std@@IBE_NABV?$basic_string@DU?$char_traits@D@std@@V?$allocator@D@2@@2@0@Z 00453ae0 f i KSPMetaManager.obj
 0001:00052b10       ?_Decref@?$_Ptr_base@UPartData@@@std@@IAEXXZ 00453b10 f i KSPMetaManager.obj
 0001:00052b40       ?_Delete_this@?$_Ref_count@UPartData@@@std@@EAEXXZ 00453b40 f i KSPMetaManager.obj
 0001:00052b90       ?_Destroy@?$_Ref_count@UPartData@@@std@@EAEXXZ 00453b90 f i KSPMetaManager.obj
 0001:00052be0       ?_Destroy@?$vector@PAVGadget@@V?$allocator@PAVGadget@@@std@@@std@@AAEXPAPAVGadget@@0@Z 00453be0 f i KSPMetaManager.obj
 0001:00052c10       ?_Destroy_if_node@?$_Tree@V?$_Tmap_traits@V?$basic_string@DU?$char_traits@D@std@@V?$allocator@D@2@@std@@V?$shared_ptr@UPartData@@@2@U?$less@V?$basic_string@DU?$char_traits@D@std@@V?$allocator@D@2@@std@@@2@V?$allocator@U?$pair@$$CBV?$basic_string@DU?$char_traits@D@std@@V?$allocator@D@2@@std@@V?$shared_ptr@UPartData@@@2@@std@@@2@$0A@@std@@@std@@IAEXPAU?$_Tree_node@U?$pair@$$CBV?$basic_string@DU?$char_traits@D@std@@V?$allocator@D@2@@std@@V?$shared_ptr@UPartData@@@2@@std@@PAX@2@@Z 00453c10 f i KSPMetaManager.obj
 0001:00052c70       ?_Equal@?$basic_string@DU?$char_traits@D@std@@V?$allocator@D@2@@std@@QBE_NQBD@Z 00453c70 f i KSPMetaManager.obj
 0001:00052d00       ?_Freenode0@?$_Tree_comp_alloc@V?$_Tmap_traits@V?$basic_string@DU?$char_traits@D@std@@V?$allocator@D@2@@std@@V?$shared_ptr@UPartData@@@2@U?$less@V?$basic_string@DU?$char_traits@D@std@@V?$allocator@D@2@@std@@@2@V?$allocator@U?$pair@$$CBV?$basic_string@DU?$char_traits@D@std@@V?$allocator@D@2@@std@@V?$shared_ptr@UPartData@@@2@@std@@@2@$0A@@std@@@std@@QAEXPAU?$_Tree_node@U?$pair@$$CBV?$basic_string@DU?$char_traits@D@std@@V?$allocator@D@2@@std@@V?$shared_ptr@UPartData@@@2@@std@@PAX@2@@Z 00453d00 f i KSPMetaManager.obj
 0001:00052d30       ?_Get_data@?$_Tree_comp_alloc@V?$_Tmap_traits@V?$basic_string@DU?$char_traits@D@std@@V?$allocator@D@2@@std@@V?$shared_ptr@UPartData@@@2@U?$less@V?$basic_string@DU?$char_traits@D@std@@V?$allocator@D@2@@std@@@2@V?$allocator@U?$pair@$$CBV?$basic_string@DU?$char_traits@D@std@@V?$allocator@D@2@@std@@V?$shared_ptr@UPartData@@@2@@std@@@2@$0A@@std@@@std@@QAEAAV?$_Tree_val@U?$_Tree_simple_types@U?$pair@$$CBV?$basic_string@DU?$char_traits@D@std@@V?$allocator@D@2@@std@@V?$shared_ptr@UPartData@@@2@@std@@@std@@@2@XZ 00453d30 f i KSPMetaManager.obj
 0001:00052d50       ?_Get_data@?$_Tree_comp_alloc@V?$_Tmap_traits@V?$basic_string@DU?$char_traits@D@std@@V?$allocator@D@2@@std@@V?$shared_ptr@UPartData@@@2@U?$less@V?$basic_string@DU?$char_traits@D@std@@V?$allocator@D@2@@std@@@2@V?$allocator@U?$pair@$$CBV?$basic_string@DU?$char_traits@D@std@@V?$allocator@D@2@@std@@V?$shared_ptr@UPartData@@@2@@std@@@2@$0A@@std@@@std@@QBEABV?$_Tree_val@U?$_Tree_simple_types@U?$pair@$$CBV?$basic_string@DU?$char_traits@D@std@@V?$allocator@D@2@@std@@V?$shared_ptr@UPartData@@@2@@std@@@std@@@2@XZ 00453d50 f i KSPMetaManager.obj
 0001:00052d70       ?_Get_data@?$_Vector_alloc@U?$_Vec_base_types@PAVGadget@@V?$allocator@PAVGadget@@@std@@@std@@@std@@QAEAAV?$_Vector_val@U?$_Simple_types@PAVGadget@@@std@@@2@XZ 00453d70 f i KSPMetaManager.obj
 0001:00052d90       ?_Get_data@?$_Vector_alloc@U?$_Vec_base_types@PAVGadget@@V?$allocator@PAVGadget@@@std@@@std@@@std@@QBEABV?$_Vector_val@U?$_Simple_types@PAVGadget@@@std@@@2@XZ 00453d90 f i KSPMetaManager.obj
 0001:00052db0       ?_Get_first@?$_Compressed_pair@U?$less@V?$basic_string@DU?$char_traits@D@std@@V?$allocator@D@2@@std@@@std@@V?$_Compressed_pair@V?$allocator@U?$_Tree_node@U?$pair@$$CBV?$basic_string@DU?$char_traits@D@std@@V?$allocator@D@2@@std@@V?$shared_ptr@UPartData@@@2@@std@@PAX@std@@@std@@V?$_Tree_val@U?$_Tree_simple_types@U?$pair@$$CBV?$basic_string@DU?$char_traits@D@std@@V?$allocator@D@2@@std@@V?$shared_ptr@UPartData@@@2@@std@@@std@@@2@$00@2@$00@std@@QAEAAU?$less@V?$basic_string@DU?$char_traits@D@std@@V?$allocator@D@2@@std@@@2@XZ 00453db0 f i KSPMetaManager.obj
 0001:00052dd0       ?_Get_first@?$_Compressed_pair@U?$less@V?$basic_string@DU?$char_traits@D@std@@V?$allocator@D@2@@std@@@std@@V?$_Compressed_pair@V?$allocator@U?$_Tree_node@U?$pair@$$CBV?$basic_string@DU?$char_traits@D@std@@V?$allocator@D@2@@std@@V?$shared_ptr@UPartData@@@2@@std@@PAX@std@@@std@@V?$_Tree_val@U?$_Tree_simple_types@U?$pair@$$CBV?$basic_string@DU?$char_traits@D@std@@V?$allocator@D@2@@std@@V?$shared_ptr@UPartData@@@2@@std@@@std@@@2@$00@2@$00@std@@QBEABU?$less@V?$basic_string@DU?$char_traits@D@std@@V?$allocator@D@2@@std@@@2@XZ 00453dd0 f i KSPMetaManager.obj
 0001:00052df0       ?_Get_first@?$_Compressed_pair@V?$allocator@PAVGadget@@@std@@V?$_Vector_val@U?$_Simple_types@PAVGadget@@@std@@@2@$00@std@@QAEAAV?$allocator@PAVGadget@@@2@XZ 00453df0 f i KSPMetaManager.obj
 0001:00052e10       ?_Get_first@?$_Compressed_pair@V?$allocator@PAVGadget@@@std@@V?$_Vector_val@U?$_Simple_types@PAVGadget@@@std@@@2@$00@std@@QBEABV?$allocator@PAVGadget@@@2@XZ 00453e10 f i KSPMetaManager.obj
 0001:00052e30       ?_Get_first@?$_Compressed_pair@V?$allocator@U?$_Tree_node@U?$pair@$$CBV?$basic_string@DU?$char_traits@D@std@@V?$allocator@D@2@@std@@V?$shared_ptr@UPartData@@@2@@std@@PAX@std@@@std@@V?$_Tree_val@U?$_Tree_simple_types@U?$pair@$$CBV?$basic_string@DU?$char_traits@D@std@@V?$allocator@D@2@@std@@V?$shared_ptr@UPartData@@@2@@std@@@std@@@2@$00@std@@QAEAAV?$allocator@U?$_Tree_node@U?$pair@$$CBV?$basic_string@DU?$char_traits@D@std@@V?$allocator@D@2@@std@@V?$shared_ptr@UPartData@@@2@@std@@PAX@std@@@2@XZ 00453e30 f i KSPMetaManager.obj
 0001:00052e50       ?_Get_first@?$_Compressed_pair@V?$allocator@U?$_Tree_node@U?$pair@$$CBV?$basic_string@DU?$char_traits@D@std@@V?$allocator@D@2@@std@@V?$shared_ptr@UPartData@@@2@@std@@PAX@std@@@std@@V?$_Tree_val@U?$_Tree_simple_types@U?$pair@$$CBV?$basic_string@DU?$char_traits@D@std@@V?$allocator@D@2@@std@@V?$shared_ptr@UPartData@@@2@@std@@@std@@@2@$00@std@@QBEABV?$allocator@U?$_Tree_node@U?$pair@$$CBV?$basic_string@DU?$char_traits@D@std@@V?$allocator@D@2@@std@@V?$shared_ptr@UPartData@@@2@@std@@PAX@std@@@2@XZ 00453e50 f i KSPMetaManager.obj
 0001:00052e70       ?_Get_second@?$_Compressed_pair@U?$less@V?$basic_string@DU?$char_traits@D@std@@V?$allocator@D@2@@std@@@std@@V?$_Compressed_pair@V?$allocator@U?$_Tree_node@U?$pair@$$CBV?$basic_string@DU?$char_traits@D@std@@V?$allocator@D@2@@std@@V?$shared_ptr@UPartData@@@2@@std@@PAX@std@@@std@@V?$_Tree_val@U?$_Tree_simple_types@U?$pair@$$CBV?$basic_string@DU?$char_traits@D@std@@V?$allocator@D@2@@std@@V?$shared_ptr@UPartData@@@2@@std@@@std@@@2@$00@2@$00@std@@QAEAAV?$_Compressed_pair@V?$allocator@U?$_Tree_node@U?$pair@$$CBV?$basic_string@DU?$char_traits@D@std@@V?$allocator@D@2@@std@@V?$shared_ptr@UPartData@@@2@@std@@PAX@std@@@std@@V?$_Tree_val@U?$_Tree_simple_types@U?$pair@$$CBV?$basic_string@DU?$char_traits@D@std@@V?$allocator@D@2@@std@@V?$shared_ptr@UPartData@@@2@@std@@@std@@@2@$00@2@XZ 00453e70 f i KSPMetaManager.obj
 0001:00052e90       ?_Get_second@?$_Compressed_pair@U?$less@V?$basic_string@DU?$char_traits@D@std@@V?$allocator@D@2@@std@@@std@@V?$_Compressed_pair@V?$allocator@U?$_Tree_node@U?$pair@$$CBV?$basic_string@DU?$char_traits@D@std@@V?$allocator@D@2@@std@@V?$shared_ptr@UPartData@@@2@@std@@PAX@std@@@std@@V?$_Tree_val@U?$_Tree_simple_types@U?$pair@$$CBV?$basic_string@DU?$char_traits@D@std@@V?$allocator@D@2@@std@@V?$shared_ptr@UPartData@@@2@@std@@@std@@@2@$00@2@$00@std@@QBEABV?$_Compressed_pair@V?$allocator@U?$_Tree_node@U?$pair@$$CBV?$basic_string@DU?$char_traits@D@std@@V?$allocator@D@2@@std@@V?$shared_ptr@UPartData@@@2@@std@@PAX@std@@@std@@V?$_Tree_val@U?$_Tree_simple_types@U?$pair@$$CBV?$basic_string@DU?$char_traits@D@std@@V?$allocator@D@2@@std@@V?$shared_ptr@UPartData@@@2@@std@@@std@@@2@$00@2@XZ 00453e90 f i KSPMetaManager.obj
 0001:00052eb0       ?_Get_second@?$_Compressed_pair@V?$allocator@PAVGadget@@@std@@V?$_Vector_val@U?$_Simple_types@PAVGadget@@@std@@@2@$00@std@@QAEAAV?$_Vector_val@U?$_Simple_types@PAVGadget@@@std@@@2@XZ 00453eb0 f i KSPMetaManager.obj
 0001:00052ed0       ?_Get_second@?$_Compressed_pair@V?$allocator@PAVGadget@@@std@@V?$_Vector_val@U?$_Simple_types@PAVGadget@@@std@@@2@$00@std@@QBEABV?$_Vector_val@U?$_Simple_types@PAVGadget@@@std@@@2@XZ 00453ed0 f i KSPMetaManager.obj
 0001:00052ef0       ?_Get_second@?$_Compressed_pair@V?$allocator@U?$_Tree_node@U?$pair@$$CBV?$basic_string@DU?$char_traits@D@std@@V?$allocator@D@2@@std@@V?$shared_ptr@UPartData@@@2@@std@@PAX@std@@@std@@V?$_Tree_val@U?$_Tree_simple_types@U?$pair@$$CBV?$basic_string@DU?$char_traits@D@std@@V?$allocator@D@2@@std@@V?$shared_ptr@UPartData@@@2@@std@@@std@@@2@$00@std@@QAEAAV?$_Tree_val@U?$_Tree_simple_types@U?$pair@$$CBV?$basic_string@DU?$char_traits@D@std@@V?$allocator@D@2@@std@@V?$shared_ptr@UPartData@@@2@@std@@@std@@@2@XZ 00453ef0 f i KSPMetaManager.obj
 0001:00052f10       ?_Get_second@?$_Compressed_pair@V?$allocator@U?$_Tree_node@U?$pair@$$CBV?$basic_string@DU?$char_traits@D@std@@V?$allocator@D@2@@std@@V?$shared_ptr@UPartData@@@2@@std@@PAX@std@@@std@@V?$_Tree_val@U?$_Tree_simple_types@U?$pair@$$CBV?$basic_string@DU?$char_traits@D@std@@V?$allocator@D@2@@std@@V?$shared_ptr@UPartData@@@2@@std@@@std@@@2@$00@std@@QBEABV?$_Tree_val@U?$_Tree_simple_types@U?$pair@$$CBV?$basic_string@DU?$char_traits@D@std@@V?$allocator@D@2@@std@@V?$shared_ptr@UPartData@@@2@@std@@@std@@@2@XZ 00453f10 f i KSPMetaManager.obj
 0001:00052f30       ?_Getal@?$_Tree_comp_alloc@V?$_Tmap_traits@V?$basic_string@DU?$char_traits@D@std@@V?$allocator@D@2@@std@@V?$shared_ptr@UPartData@@@2@U?$less@V?$basic_string@DU?$char_traits@D@std@@V?$allocator@D@2@@std@@@2@V?$allocator@U?$pair@$$CBV?$basic_string@DU?$char_traits@D@std@@V?$allocator@D@2@@std@@V?$shared_ptr@UPartData@@@2@@std@@@2@$0A@@std@@@std@@QAEAAV?$allocator@U?$_Tree_node@U?$pair@$$CBV?$basic_string@DU?$char_traits@D@std@@V?$allocator@D@2@@std@@V?$shared_ptr@UPartData@@@2@@std@@PAX@std@@@2@XZ 00453f30 f i KSPMetaManager.obj
 0001:00052f50       ?_Getal@?$_Tree_comp_alloc@V?$_Tmap_traits@V?$basic_string@DU?$char_traits@D@std@@V?$allocator@D@2@@std@@V?$shared_ptr@UPartData@@@2@U?$less@V?$basic_string@DU?$char_traits@D@std@@V?$allocator@D@2@@std@@@2@V?$allocator@U?$pair@$$CBV?$basic_string@DU?$char_traits@D@std@@V?$allocator@D@2@@std@@V?$shared_ptr@UPartData@@@2@@std@@@2@$0A@@std@@@std@@QBEABV?$allocator@U?$_Tree_node@U?$pair@$$CBV?$basic_string@DU?$char_traits@D@std@@V?$allocator@D@2@@std@@V?$shared_ptr@UPartData@@@2@@std@@PAX@std@@@2@XZ 00453f50 f i KSPMetaManager.obj
 0001:00052f70       ?_Getal@?$_Vector_alloc@U?$_Vec_base_types@PAVGadget@@V?$allocator@PAVGadget@@@std@@@std@@@std@@QAEAAV?$allocator@PAVGadget@@@2@XZ 00453f70 f i KSPMetaManager.obj
 0001:00052f90       ?_Getal@?$_Vector_alloc@U?$_Vec_base_types@PAVGadget@@V?$allocator@PAVGadget@@@std@@@std@@@std@@QBEABV?$allocator@PAVGadget@@@2@XZ 00453f90 f i KSPMetaManager.obj
 0001:00052fb0       ?_Getcomp@?$_Tree_comp_alloc@V?$_Tmap_traits@V?$basic_string@DU?$char_traits@D@std@@V?$allocator@D@2@@std@@V?$shared_ptr@UPartData@@@2@U?$less@V?$basic_string@DU?$char_traits@D@std@@V?$allocator@D@2@@std@@@2@V?$allocator@U?$pair@$$CBV?$basic_string@DU?$char_traits@D@std@@V?$allocator@D@2@@std@@V?$shared_ptr@UPartData@@@2@@std@@@2@$0A@@std@@@std@@QAEAAU?$less@V?$basic_string@DU?$char_traits@D@std@@V?$allocator@D@2@@std@@@2@XZ 00453fb0 f i KSPMetaManager.obj
 0001:00052fd0       ?_Getcomp@?$_Tree_comp_alloc@V?$_Tmap_traits@V?$basic_string@DU?$char_traits@D@std@@V?$allocator@D@2@@std@@V?$shared_ptr@UPartData@@@2@U?$less@V?$basic_string@DU?$char_traits@D@std@@V?$allocator@D@2@@std@@@2@V?$allocator@U?$pair@$$CBV?$basic_string@DU?$char_traits@D@std@@V?$allocator@D@2@@std@@V?$shared_ptr@UPartData@@@2@@std@@@2@$0A@@std@@@std@@QBEABU?$less@V?$basic_string@DU?$char_traits@D@std@@V?$allocator@D@2@@std@@@2@XZ 00453fd0 f i KSPMetaManager.obj
 0001:00052ff0       ?_Getpfirst@?$_Vector_alloc@U?$_Vec_base_types@PAVGadget@@V?$allocator@PAVGadget@@@std@@@std@@@std@@QBEPAPAU_Iterator_base12@2@XZ 00453ff0 f i KSPMetaManager.obj
 0001:00053010       ?_Has_unused_capacity@?$vector@PAVGadget@@V?$allocator@PAVGadget@@@std@@@std@@ABE_NXZ 00454010 f i KSPMetaManager.obj
 0001:00053060       ?_Key@?$_Tree@V?$_Tmap_traits@V?$basic_string@DU?$char_traits@D@std@@V?$allocator@D@2@@std@@V?$shared_ptr@UPartData@@@2@U?$less@V?$basic_string@DU?$char_traits@D@std@@V?$allocator@D@2@@std@@@2@V?$allocator@U?$pair@$$CBV?$basic_string@DU?$char_traits@D@std@@V?$allocator@D@2@@std@@V?$shared_ptr@UPartData@@@2@@std@@@2@$0A@@std@@@std@@IBEABV?$basic_string@DU?$char_traits@D@std@@V?$allocator@D@2@@2@PAU?$_Tree_node@U?$pair@$$CBV?$basic_string@DU?$char_traits@D@std@@V?$allocator@D@2@@std@@V?$shared_ptr@UPartData@@@2@@std@@PAX@2@@Z 00454060 f i KSPMetaManager.obj
 0001:00053090       ?_Kfn@?$_Tree@V?$_Tmap_traits@V?$basic_string@DU?$char_traits@D@std@@V?$allocator@D@2@@std@@V?$shared_ptr@UPartData@@@2@U?$less@V?$basic_string@DU?$char_traits@D@std@@V?$allocator@D@2@@std@@@2@V?$allocator@U?$pair@$$CBV?$basic_string@DU?$char_traits@D@std@@V?$allocator@D@2@@std@@V?$shared_ptr@UPartData@@@2@@std@@@2@$0A@@std@@@std@@IBEABV?$basic_string@DU?$char_traits@D@std@@V?$allocator@D@2@@2@ABU?$pair@$$CBV?$basic_string@DU?$char_traits@D@std@@V?$allocator@D@2@@std@@V?$shared_ptr@UPartData@@@2@@2@@Z 00454090 f i KSPMetaManager.obj
 0001:000530b0       ?_Lmost@?$_Tree_val@U?$_Tree_simple_types@U?$pair@$$CBV?$basic_string@DU?$char_traits@D@std@@V?$allocator@D@2@@std@@V?$shared_ptr@UPartData@@@2@@std@@@std@@@std@@QBEAAPAU?$_Tree_node@U?$pair@$$CBV?$basic_string@DU?$char_traits@D@std@@V?$allocator@D@2@@std@@V?$shared_ptr@UPartData@@@2@@std@@PAX@2@XZ 004540b0 f i KSPMetaManager.obj
 0001:000530d0       ?_Lrotate@?$_Tree_val@U?$_Tree_simple_types@U?$pair@$$CBV?$basic_string@DU?$char_traits@D@std@@V?$allocator@D@2@@std@@V?$shared_ptr@UPartData@@@2@@std@@@std@@@std@@QAEXPAU?$_Tree_node@U?$pair@$$CBV?$basic_string@DU?$char_traits@D@std@@V?$allocator@D@2@@std@@V?$shared_ptr@UPartData@@@2@@std@@PAX@2@@Z 004540d0 f i KSPMetaManager.obj
 0001:00053190       ?_Max@?$_Tree_val@U?$_Tree_simple_types@U?$pair@$$CBV?$basic_string@DU?$char_traits@D@std@@V?$allocator@D@2@@std@@V?$shared_ptr@UPartData@@@2@@std@@@std@@@std@@SAPAU?$_Tree_node@U?$pair@$$CBV?$basic_string@DU?$char_traits@D@std@@V?$allocator@D@2@@std@@V?$shared_ptr@UPartData@@@2@@std@@PAX@2@PAU32@@Z 00454190 f i KSPMetaManager.obj
 0001:000531c0       ?_Myend@?$_Vector_alloc@U?$_Vec_base_types@PAVGadget@@V?$allocator@PAVGadget@@@std@@@std@@@std@@QAEAAPAPAVGadget@@XZ 004541c0 f i KSPMetaManager.obj
 0001:000531e0       ?_Myend@?$_Vector_alloc@U?$_Vec_base_types@PAVGadget@@V?$allocator@PAVGadget@@@std@@@std@@@std@@QBEABQAPAVGadget@@XZ 004541e0 f i KSPMetaManager.obj
 0001:00053200       ?_Myfirst@?$_Vector_alloc@U?$_Vec_base_types@PAVGadget@@V?$allocator@PAVGadget@@@std@@@std@@@std@@QAEAAPAPAVGadget@@XZ 00454200 f i KSPMetaManager.obj
 0001:00053220       ?_Myfirst@?$_Vector_alloc@U?$_Vec_base_types@PAVGadget@@V?$allocator@PAVGadget@@@std@@@std@@@std@@QBEABQAPAVGadget@@XZ 00454220 f i KSPMetaManager.obj
 0001:00053240       ?_Mylast@?$_Vector_alloc@U?$_Vec_base_types@PAVGadget@@V?$allocator@PAVGadget@@@std@@@std@@@std@@QAEAAPAPAVGadget@@XZ 00454240 f i KSPMetaManager.obj
 0001:00053260       ?_Mylast@?$_Vector_alloc@U?$_Vec_base_types@PAVGadget@@V?$allocator@PAVGadget@@@std@@@std@@@std@@QBEABQAPAVGadget@@XZ 00454260 f i KSPMetaManager.obj
 0001:00053280       ?_Myproxy@?$_Vector_alloc@U?$_Vec_base_types@PAVGadget@@V?$allocator@PAVGadget@@@std@@@std@@@std@@QAEAAPAU_Container_proxy@2@XZ 00454280 f i KSPMetaManager.obj
 0001:000532a0       ?_Orphan_all@?$_Vector_alloc@U?$_Vec_base_types@PAVGadget@@V?$allocator@PAVGadget@@@std@@@std@@@std@@QAEXXZ 004542a0 f i KSPMetaManager.obj
 0001:000532c0       ?_Orphan_range@?$vector@PAVGadget@@V?$allocator@PAVGadget@@@std@@@std@@ABEXPAPAVGadget@@0@Z 004542c0 f i KSPMetaManager.obj
 0001:000533b0       ?_Rmost@?$_Tree_val@U?$_Tree_simple_types@U?$pair@$$CBV?$basic_string@DU?$char_traits@D@std@@V?$allocator@D@2@@std@@V?$shared_ptr@UPartData@@@2@@std@@@std@@@std@@QBEAAPAU?$_Tree_node@U?$pair@$$CBV?$basic_string@DU?$char_traits@D@std@@V?$allocator@D@2@@std@@V?$shared_ptr@UPartData@@@2@@std@@PAX@2@XZ 004543b0 f i KSPMetaManager.obj
 0001:000533d0       ?_Root@?$_Tree_val@U?$_Tree_simple_types@U?$pair@$$CBV?$basic_string@DU?$char_traits@D@std@@V?$allocator@D@2@@std@@V?$shared_ptr@UPartData@@@2@@std@@@std@@@std@@QBEAAPAU?$_Tree_node@U?$pair@$$CBV?$basic_string@DU?$char_traits@D@std@@V?$allocator@D@2@@std@@V?$shared_ptr@UPartData@@@2@@std@@PAX@2@XZ 004543d0 f i KSPMetaManager.obj
 0001:000533f0       ?_Rrotate@?$_Tree_val@U?$_Tree_simple_types@U?$pair@$$CBV?$basic_string@DU?$char_traits@D@std@@V?$allocator@D@2@@std@@V?$shared_ptr@UPartData@@@2@@std@@@std@@@std@@QAEXPAU?$_Tree_node@U?$pair@$$CBV?$basic_string@DU?$char_traits@D@std@@V?$allocator@D@2@@std@@V?$shared_ptr@UPartData@@@2@@std@@PAX@2@@Z 004543f0 f i KSPMetaManager.obj
 0001:000534c0       ?_Set_ptr_rep@?$_Ptr_base@UPartData@@@std@@IAEXPAUPartData@@PAV_Ref_count_base@2@@Z 004544c0 f i KSPMetaManager.obj
 0001:000534f0       ?_Umove@?$vector@PAVGadget@@V?$allocator@PAVGadget@@@std@@@std@@AAEPAPAVGadget@@PAPAV3@00@Z 004544f0 f i KSPMetaManager.obj
 0001:00053530       ?_Umove_if_noexcept1@?$vector@PAVGadget@@V?$allocator@PAVGadget@@@std@@@std@@AAEXPAPAVGadget@@00U?$integral_constant@_N$00@2@@Z 00454530 f i KSPMetaManager.obj
 0001:00053570       ?_Umove_if_noexcept@?$vector@PAVGadget@@V?$allocator@PAVGadget@@@std@@@std@@AAEXPAPAVGadget@@00@Z 00454570 f i KSPMetaManager.obj
 0001:000535b0       ?_Unchecked_begin@?$vector@PAVGadget@@V?$allocator@PAVGadget@@@std@@@std@@QAEPAPAVGadget@@XZ 004545b0 f i KSPMetaManager.obj
 0001:000535d0       ?_Unchecked_end@?$vector@PAVGadget@@V?$allocator@PAVGadget@@@std@@@std@@QAEPAPAVGadget@@XZ 004545d0 f i KSPMetaManager.obj
 0001:000535f0       ?_Xlength@?$vector@PAVGadget@@V?$allocator@PAVGadget@@@std@@@std@@CAXXZ 004545f0 f i KSPMetaManager.obj
 0001:00053610       ?activate@Gadget@@UAE_NXZ  00454610 f i KSPMetaManager.obj
 0001:00053630       ?allocate@?$allocator@PAVGadget@@@std@@QAEPAPAVGadget@@I@Z 00454630 f i KSPMetaManager.obj
 0001:00053660       ?allocate@?$allocator@U?$_Tree_node@U?$pair@$$CBV?$basic_string@DU?$char_traits@D@std@@V?$allocator@D@2@@std@@V?$shared_ptr@UPartData@@@2@@std@@PAX@std@@@std@@QAEPAU?$_Tree_node@U?$pair@$$CBV?$basic_string@DU?$char_traits@D@std@@V?$allocator@D@2@@std@@V?$shared_ptr@UPartData@@@2@@std@@PAX@2@I@Z 00454660 f i KSPMetaManager.obj
 0001:00053690       ?begin@?$_Tree@V?$_Tmap_traits@V?$basic_string@DU?$char_traits@D@std@@V?$allocator@D@2@@std@@V?$shared_ptr@UPartData@@@2@U?$less@V?$basic_string@DU?$char_traits@D@std@@V?$allocator@D@2@@std@@@2@V?$allocator@U?$pair@$$CBV?$basic_string@DU?$char_traits@D@std@@V?$allocator@D@2@@std@@V?$shared_ptr@UPartData@@@2@@std@@@2@$0A@@std@@@std@@QAE?AV?$_Tree_iterator@V?$_Tree_val@U?$_Tree_simple_types@U?$pair@$$CBV?$basic_string@DU?$char_traits@D@std@@V?$allocator@D@2@@std@@V?$shared_ptr@UPartData@@@2@@std@@@std@@@std@@@2@XZ 00454690 f i KSPMetaManager.obj
 0001:00053710       ?capacity@?$vector@PAVGadget@@V?$allocator@PAVGadget@@@std@@@std@@QBEIXZ 00454710 f i KSPMetaManager.obj
 0001:00053750       ?deallocate@?$_Default_allocator_traits@V?$allocator@U?$_Tree_node@U?$pair@$$CBV?$basic_string@DU?$char_traits@D@std@@V?$allocator@D@2@@std@@V?$shared_ptr@UPartData@@@2@@std@@PAX@std@@@std@@@std@@SAXAAV?$allocator@U?$_Tree_node@U?$pair@$$CBV?$basic_string@DU?$char_traits@D@std@@V?$allocator@D@2@@std@@V?$shared_ptr@UPartData@@@2@@std@@PAX@std@@@2@QAU?$_Tree_node@U?$pair@$$CBV?$basic_string@DU?$char_traits@D@std@@V?$allocator@D@2@@std@@V?$shared_ptr@UPartData@@@2@@std@@PAX@2@I@Z 00454750 f i KSPMetaManager.obj
 0001:00053770       ?deallocate@?$allocator@PAVGadget@@@std@@QAEXQAPAVGadget@@I@Z 00454770 f i KSPMetaManager.obj
 0001:000537a0       ?deallocate@?$allocator@U?$_Tree_node@U?$pair@$$CBV?$basic_string@DU?$char_traits@D@std@@V?$allocator@D@2@@std@@V?$shared_ptr@UPartData@@@2@@std@@PAX@std@@@std@@QAEXQAU?$_Tree_node@U?$pair@$$CBV?$basic_string@DU?$char_traits@D@std@@V?$allocator@D@2@@std@@V?$shared_ptr@UPartData@@@2@@std@@PAX@2@I@Z 004547a0 f i KSPMetaManager.obj
 0001:000537d0       ?disable@Gadget@@UAE_NXZ   004547d0 f i KSPMetaManager.obj
 0001:000537f0       ?end@?$_Tree@V?$_Tmap_traits@V?$basic_string@DU?$char_traits@D@std@@V?$allocator@D@2@@std@@V?$shared_ptr@UPartData@@@2@U?$less@V?$basic_string@DU?$char_traits@D@std@@V?$allocator@D@2@@std@@@2@V?$allocator@U?$pair@$$CBV?$basic_string@DU?$char_traits@D@std@@V?$allocator@D@2@@std@@V?$shared_ptr@UPartData@@@2@@std@@@2@$0A@@std@@@std@@QAE?AV?$_Tree_iterator@V?$_Tree_val@U?$_Tree_simple_types@U?$pair@$$CBV?$basic_string@DU?$char_traits@D@std@@V?$allocator@D@2@@std@@V?$shared_ptr@UPartData@@@2@@std@@@std@@@std@@@2@XZ 004547f0 f i KSPMetaManager.obj
 0001:00053870       ?find@?$_Tree@V?$_Tmap_traits@V?$basic_string@DU?$char_traits@D@std@@V?$allocator@D@2@@std@@V?$shared_ptr@UPartData@@@2@U?$less@V?$basic_string@DU?$char_traits@D@std@@V?$allocator@D@2@@std@@@2@V?$allocator@U?$pair@$$CBV?$basic_string@DU?$char_traits@D@std@@V?$allocator@D@2@@std@@V?$shared_ptr@UPartData@@@2@@std@@@2@$0A@@std@@@std@@QAE?AV?$_Tree_iterator@V?$_Tree_val@U?$_Tree_simple_types@U?$pair@$$CBV?$basic_string@DU?$char_traits@D@std@@V?$allocator@D@2@@std@@V?$shared_ptr@UPartData@@@2@@std@@@std@@@std@@@2@ABV?$basic_string@DU?$char_traits@D@std@@V?$allocator@D@2@@2@@Z 00454870 f i KSPMetaManager.obj
 0001:00053a30       ?get@?$_Ptr_base@UPartData@@@std@@IBEPAUPartData@@XZ 00454a30 f i KSPMetaManager.obj
 0001:00053a50       ?isControllable@ControllerGadget@@UAE_NXZ 00454a50 f i KSPMetaManager.obj
 0001:00053a60       ?isControllable@Gadget@@UAE_NXZ 00454a60 f i KSPMetaManager.obj
 0001:00053a70       ?lower_bound@?$_Tree@V?$_Tmap_traits@V?$basic_string@DU?$char_traits@D@std@@V?$allocator@D@2@@std@@V?$shared_ptr@UPartData@@@2@U?$less@V?$basic_string@DU?$char_traits@D@std@@V?$allocator@D@2@@std@@@2@V?$allocator@U?$pair@$$CBV?$basic_string@DU?$char_traits@D@std@@V?$allocator@D@2@@std@@V?$shared_ptr@UPartData@@@2@@std@@@2@$0A@@std@@@std@@QAE?AV?$_Tree_iterator@V?$_Tree_val@U?$_Tree_simple_types@U?$pair@$$CBV?$basic_string@DU?$char_traits@D@std@@V?$allocator@D@2@@std@@V?$shared_ptr@UPartData@@@2@@std@@@std@@@std@@@2@ABV?$basic_string@DU?$char_traits@D@std@@V?$allocator@D@2@@2@@Z 00454a70 f i KSPMetaManager.obj
 0001:00053ad0       ?max_size@?$_Default_allocator_traits@V?$allocator@PAVGadget@@@std@@@std@@SAIABV?$allocator@PAVGadget@@@2@@Z 00454ad0 f i KSPMetaManager.obj
 0001:00053ae0       ?max_size@?$_Default_allocator_traits@V?$allocator@U?$_Tree_node@U?$pair@$$CBV?$basic_string@DU?$char_traits@D@std@@V?$allocator@D@2@@std@@V?$shared_ptr@UPartData@@@2@@std@@PAX@std@@@std@@@std@@SAIABV?$allocator@U?$_Tree_node@U?$pair@$$CBV?$basic_string@DU?$char_traits@D@std@@V?$allocator@D@2@@std@@V?$shared_ptr@UPartData@@@2@@std@@PAX@std@@@2@@Z 00454ae0 f i KSPMetaManager.obj
 0001:00053af0       ?max_size@?$_Tree@V?$_Tmap_traits@V?$basic_string@DU?$char_traits@D@std@@V?$allocator@D@2@@std@@V?$shared_ptr@UPartData@@@2@U?$less@V?$basic_string@DU?$char_traits@D@std@@V?$allocator@D@2@@std@@@2@V?$allocator@U?$pair@$$CBV?$basic_string@DU?$char_traits@D@std@@V?$allocator@D@2@@std@@V?$shared_ptr@UPartData@@@2@@std@@@2@$0A@@std@@@std@@QBEIXZ 00454af0 f i KSPMetaManager.obj
 0001:00053b20       ?max_size@?$vector@PAVGadget@@V?$allocator@PAVGadget@@@std@@@std@@QBEIXZ 00454b20 f i KSPMetaManager.obj
 0001:00053b70       ?modifySpacecraftState@FuelThrusterGadget@@UAEAAUSpacecraftStateMod@@AAU2@O@Z 00454b70 f i KSPMetaManager.obj
 0001:00053be0       ?modifySpacecraftState@Gadget@@UAEAAUSpacecraftStateMod@@AAU2@O@Z 00454be0 f i KSPMetaManager.obj
 0001:00053c00       ?modifySpacecraftState@IonThrusterGadget@@UAEAAUSpacecraftStateMod@@AAU2@O@Z 00454c00 f i KSPMetaManager.obj
 0001:00053c70       ?modifySpacecraftState@MonopropThrusterGadget@@UAEAAUSpacecraftStateMod@@AAU2@O@Z 00454c70 f i KSPMetaManager.obj
 0001:00053ce0       ?modifySpacecraftState@ReactionWheelGadget@@UAEAAUSpacecraftStateMod@@AAU2@O@Z 00454ce0 f i KSPMetaManager.obj
 0001:00053d60       ?pointer_to@?$pointer_traits@PAU?$pair@$$CBV?$basic_string@DU?$char_traits@D@std@@V?$allocator@D@2@@std@@V?$shared_ptr@UPartData@@@2@@std@@@std@@SAPAU?$pair@$$CBV?$basic_string@DU?$char_traits@D@std@@V?$allocator@D@2@@std@@V?$shared_ptr@UPartData@@@2@@2@AAU32@@Z 00454d60 f i KSPMetaManager.obj
 0001:00053d80       ?push_back@?$vector@PAVGadget@@V?$allocator@PAVGadget@@@std@@@std@@QAEX$$QAPAVGadget@@@Z 00454d80 f i KSPMetaManager.obj
 0001:00053db0       ?size@?$vector@PAVGadget@@V?$allocator@PAVGadget@@@std@@@std@@QBEIXZ 00454db0 f i KSPMetaManager.obj
 0001:00053df0       _SDL_main                  00454df0 f   main.obj
 0001:00053e50       ?doProgram@@YAHHQAPAD@Z    00454e50 f   main.obj
 0001:00053f90       ??1ImageManager@@QAE@XZ    00454f90 f i main.obj
 0001:00053fd0       ??_GImageManager@@QAEPAXI@Z 00454fd0 f i main.obj
 0001:00054010       ?destroyImageManager@ImageManager@@SAXXZ 00455010 f i main.obj
 0001:00054090       ?doProgramOLD@@YAHHQAPAD@Z 00455090 f   mainfunction.obj
 0001:00054180       ?mainOLD@@YAHHQAPAD@Z      00455180 f   mainfunction.obj
 0001:00054210       ??0BaseEngine@@QAE@XZ      00455210 f   BaseEngine.obj
 0001:00054450       ??1BaseEngine@@UAE@XZ      00455450 f   BaseEngine.obj
 0001:000544a0       ?initialise@BaseEngine@@QAEHPBDHH0H@Z 004554a0 f   BaseEngine.obj
 0001:000545d0       ?deinitialise@BaseEngine@@QAEXXZ 004555d0 f   BaseEngine.obj
 0001:00054600       ?mainLoop@BaseEngine@@QAEHXZ 00455600 f   BaseEngine.obj
 0001:00054730       ?handleEvent@BaseEngine@@QAE_NPATSDL_Event@@@Z 00455730 f   BaseEngine.obj
 0001:00055010       ?isKeyPressed@BaseEngine@@QBE_NH@Z 00456010 f   BaseEngine.obj
 0001:00055040       ?virtKeyUp@BaseEngine@@UAEXH@Z 00456040 f   BaseEngine.obj
 0001:00055050       ?virtKeyDown@BaseEngine@@UAEXH@Z 00456050 f   BaseEngine.obj
 0001:00055060       ?virtMouseMoved@BaseEngine@@UAEXHH@Z 00456060 f   BaseEngine.obj
 0001:00055070       ?virtMouseDown@BaseEngine@@UAEXHHH@Z 00456070 f   BaseEngine.obj
 0001:00055080       ?virtMouseUp@BaseEngine@@UAEXHHH@Z 00456080 f   BaseEngine.obj
 0001:00055090       ?virtInitialise@BaseEngine@@UAEHXZ 00456090 f   BaseEngine.obj
 0001:000550e0       ?virtCreateWindows@BaseEngine@@UAEXPBD@Z 004560e0 f   BaseEngine.obj
 0001:00055170       ?virtCreateSurfaces@BaseEngine@@UAEXXZ 00456170 f   BaseEngine.obj
 0001:000551c0       ?virtCleanUp@BaseEngine@@UAEXXZ 004561c0 f   BaseEngine.obj
 0001:000551d0       ?virtSetupBackgroundBuffer@BaseEngine@@UAEXXZ 004561d0 f   BaseEngine.obj
 0001:000551f0       ?virtDrawStringsUnderneath@BaseEngine@@UAEXXZ 004561f0 f   BaseEngine.obj
 0001:00055200       ?virtDrawStringsOnTop@BaseEngine@@UAEXXZ 00456200 f   BaseEngine.obj
 0001:00055210       ?virtCheckForUpdateTime@BaseEngine@@UAE_NXZ 00456210 f   BaseEngine.obj
 0001:00055260       ?virtRenderScreen@BaseEngine@@UAEXXZ 00456260 f   BaseEngine.obj
 0001:000553f0       ?getColour@BaseEngine@@QBEIH@Z 004563f0 f   BaseEngine.obj
 0001:00055630       ?virtInitialiseObjects@BaseEngine@@UAEHXZ 00456630 f   BaseEngine.obj
 0001:00055660       ?drawAllObjects@BaseEngine@@UAEXXZ 00456660 f   BaseEngine.obj
 0001:00055840       ?updateAllObjects@BaseEngine@@UAEXH@Z 00456840 f   BaseEngine.obj
 0001:00055a20       _mydebug                   00456a20 f   BaseEngine.obj
 0001:00056040       ??$?0ABV?$allocator@PAVDisplayableObject@@@std@@$$V@?$_Compressed_pair@V?$allocator@PAVDisplayableObject@@@std@@V?$_Vector_val@U?$_Simple_types@PAVDisplayableObject@@@std@@@2@$00@std@@QAE@U_One_then_variadic_args_t@1@ABV?$allocator@PAVDisplayableObject@@@1@@Z 00457040 f i BaseEngine.obj
 0001:00056070       ??$?0ABV?$allocator@PAVDisplayableObject@@@std@@X@?$_Vector_alloc@U?$_Vec_base_types@PAVDisplayableObject@@V?$allocator@PAVDisplayableObject@@@std@@@std@@@std@@QAE@ABV?$allocator@PAVDisplayableObject@@@1@@Z 00457070 f i BaseEngine.obj
 0001:000560c0       ??$?0PAVDisplayableObject@@@?$allocator@U_Container_proxy@std@@@std@@QAE@ABV?$allocator@PAVDisplayableObject@@@1@@Z 004570c0 f i BaseEngine.obj
 0001:00056380       ??$forward@ABV?$allocator@PAVDisplayableObject@@@std@@@std@@YAABV?$allocator@PAVDisplayableObject@@@0@ABV10@@Z 00457380 f i BaseEngine.obj
 0001:000563f0       ??0?$_Vector_iterator@V?$_Vector_val@U?$_Simple_types@PAVDisplayableObject@@@std@@@std@@@std@@QAE@ABV01@@Z 004573f0 f i BaseEngine.obj
 0001:00056420       ??0?$_Vector_val@U?$_Simple_types@PAVDisplayableObject@@@std@@@std@@QAE@XZ 00457420 f i BaseEngine.obj
 0001:00056470       ??0?$allocator@PAVDisplayableObject@@@std@@QAE@XZ 00457470 f i BaseEngine.obj
 0001:00056490       ??0?$vector@PAVDisplayableObject@@V?$allocator@PAVDisplayableObject@@@std@@@std@@QAE@IABV?$allocator@PAVDisplayableObject@@@1@@Z 00457490 f i BaseEngine.obj
 0001:00056590       ??0DisplayableObjectContainer@@QAE@H@Z 00457590 f i BaseEngine.obj
 0001:000565f0       ??1?$_Vector_alloc@U?$_Vec_base_types@PAVDisplayableObject@@V?$allocator@PAVDisplayableObject@@@std@@@std@@@std@@QAE@XZ 004575f0 f i BaseEngine.obj
 0001:00056640       ??1?$vector@PAVDisplayableObject@@V?$allocator@PAVDisplayableObject@@@std@@@std@@QAE@XZ 00457640 f i BaseEngine.obj
 0001:000566a0       ??1DisplayableObjectContainer@@UAE@XZ 004576a0 f i BaseEngine.obj
 0001:00056710       ??D?$_Vector_const_iterator@V?$_Vector_val@U?$_Simple_types@PAVDisplayableObject@@@std@@@std@@@std@@QBEABQAVDisplayableObject@@XZ 00457710 f i BaseEngine.obj
 0001:00056820       ??D?$_Vector_iterator@V?$_Vector_val@U?$_Simple_types@PAVDisplayableObject@@@std@@@std@@@std@@QBEAAPAVDisplayableObject@@XZ 00457820 f i BaseEngine.obj
 0001:00056840       ??E?$_Vector_const_iterator@V?$_Vector_val@U?$_Simple_types@PAVDisplayableObject@@@std@@@std@@@std@@QAEAAV01@XZ 00457840 f i BaseEngine.obj
 0001:00056950       ??E?$_Vector_iterator@V?$_Vector_val@U?$_Simple_types@PAVDisplayableObject@@@std@@@std@@@std@@QAE?AV01@H@Z 00457950 f i BaseEngine.obj
 0001:00056a00       ??E?$_Vector_iterator@V?$_Vector_val@U?$_Simple_types@PAVDisplayableObject@@@std@@@std@@@std@@QAEAAV01@XZ 00457a00 f i BaseEngine.obj
 0001:00056af0       ??_GBaseEngine@@UAEPAXI@Z  00457af0 f i BaseEngine.obj
 0001:00056af0       ??_EBaseEngine@@UAEPAXI@Z  00457af0 f i BaseEngine.obj
 0001:00056b30       ??_GDisplayableObjectContainer@@UAEPAXI@Z 00457b30 f i BaseEngine.obj
 0001:00056b30       ??_EDisplayableObjectContainer@@UAEPAXI@Z 00457b30 f i BaseEngine.obj
 0001:00056b70       ?_Alloc_proxy@?$_Vector_alloc@U?$_Vec_base_types@PAVDisplayableObject@@V?$allocator@PAVDisplayableObject@@@std@@@std@@@std@@QAEXXZ 00457b70 f i BaseEngine.obj
 0001:00056c10       ?_Buy@?$vector@PAVDisplayableObject@@V?$allocator@PAVDisplayableObject@@@std@@@std@@AAE_NI@Z 00457c10 f i BaseEngine.obj
 0001:00056ce0       ?_Free_proxy@?$_Vector_alloc@U?$_Vec_base_types@PAVDisplayableObject@@V?$allocator@PAVDisplayableObject@@@std@@@std@@@std@@QAEXXZ 00457ce0 f i BaseEngine.obj
 0001:00056d60       ?_Myproxy@?$_Vector_alloc@U?$_Vec_base_types@PAVDisplayableObject@@V?$allocator@PAVDisplayableObject@@@std@@@std@@@std@@QAEAAPAU_Container_proxy@2@XZ 00457d60 f i BaseEngine.obj
 0001:00056d80       ?_Tidy@?$vector@PAVDisplayableObject@@V?$allocator@PAVDisplayableObject@@@std@@@std@@AAEXXZ 00457d80 f i BaseEngine.obj
 0001:00056e30       ?_Unchecked_begin@?$vector@PAVDisplayableObject@@V?$allocator@PAVDisplayableObject@@@std@@@std@@QAEPAPAVDisplayableObject@@XZ 00457e30 f i BaseEngine.obj
 0001:00056e50       ?_Unchecked_end@?$vector@PAVDisplayableObject@@V?$allocator@PAVDisplayableObject@@@std@@@std@@QAEPAPAVDisplayableObject@@XZ 00457e50 f i BaseEngine.obj
 0001:00056e70       ?getHasActed@DisplayableObject@@QBE_NXZ 00457e70 f i BaseEngine.obj
 0001:00056e90       ?isTimeToAct@BaseEngine@@QBE_NXZ 00457e90 f i BaseEngine.obj
 0001:00056ed0       ?mySDLUpdateTexture@DrawingSurface@@QAEXPAUSDL_Texture@@@Z 00457ed0 f i BaseEngine.obj
 0001:00056f10       ?setHasActed@DisplayableObject@@QAEX_N@Z 00457f10 f i BaseEngine.obj
 0001:00056f30       ?setTimeToAct@BaseEngine@@QAEXH@Z 00457f30 f i BaseEngine.obj
 0001:00056f60       ?symbolToKeycode@BaseEngine@@SAHH@Z 00457f60 f i BaseEngine.obj
 0001:00057450       ?virtMainLoopDoBeforeUpdate@BaseEngine@@UAEXXZ 00458450 f i BaseEngine.obj
 0001:00057460       ??0DisplayableObject@@QAE@PAVBaseEngine@@HH_N@Z 00458460 f   DisplayableObject.obj
 0001:00057520       ??0DisplayableObject@@QAE@HHPAVBaseEngine@@HH_N@Z 00458520 f   DisplayableObject.obj
 0001:000575e0       ??1DisplayableObject@@UAE@XZ 004585e0 f   DisplayableObject.obj
 0001:00057600       ?virtDraw@DisplayableObject@@UAEXXZ 00458600 f   DisplayableObject.obj
 0001:000576a0       ?virtDoUpdate@DisplayableObject@@UAEXH@Z 004586a0 f   DisplayableObject.obj
 0001:000576b0       ?redrawDisplay@DisplayableObject@@QAEXXZ 004586b0 f   DisplayableObject.obj
 0001:000576d0       ?redrawRectangle@DisplayableObject@@QAEXXZ 004586d0 f   DisplayableObject.obj
 0001:00057710       ?virtIsObjectInRedrawArea@DisplayableObject@@QAE_NXZ 00458710 f   DisplayableObject.obj
 0001:000577b0       ?fixPosition@DisplayableObject@@QAEXXZ 004587b0 f   DisplayableObject.obj
 0001:00057980       ??_GDisplayableObject@@UAEPAXI@Z 00458980 f i DisplayableObject.obj
 0001:00057980       ??_EDisplayableObject@@UAEPAXI@Z 00458980 f i DisplayableObject.obj
 0001:000579c0       ?convertVirtualPixelToClickedXPosition@BaseEngine@@QAEHH@Z 004589c0 f i DisplayableObject.obj
 0001:000579f0       ?convertVirtualPixelToClickedYPosition@BaseEngine@@QAEHH@Z 004589f0 f i DisplayableObject.obj
 0001:00057a20       ?convertVirtualToRealXPosition@DrawingSurface@@QAEHH@Z 00458a20 f i DisplayableObject.obj
 0001:00057a60       ?convertVirtualToRealYPosition@DrawingSurface@@QAEHH@Z 00458a60 f i DisplayableObject.obj
 0001:00057aa0       ?redrawRectangle@BaseEngine@@QAEXHHHH@Z 00458aa0 f i DisplayableObject.obj
 0001:00057c10       ?setForegroundPixel@BaseEngine@@QAEXHHI@Z 00458c10 f i DisplayableObject.obj
 0001:00057c40       ??0FontManager@@QAE@XZ     00458c40 f   FontManager.obj
 0001:00057cb0       ??1FontManager@@QAE@XZ     00458cb0 f   FontManager.obj
 0001:00057d30       ?getFont@FontManager@@QAEPAVFont@@PBDH@Z 00458d30 f   FontManager.obj
 0001:00057ed0       ?loadFonts@FontManager@@QAEXXZ 00458ed0 f   FontManager.obj
 0001:00058000       ??$growArrayOfObjects@PAVFont@@@@YAPAPAVFont@@PAPAV0@AAHH@Z 00459000 f i FontManager.obj
 0001:000580c0       ??0Font@@QAE@PBDH@Z        004590c0 f i FontManager.obj
 0001:00058140       ??1Font@@QAE@XZ            00459140 f i FontManager.obj
 0001:000581c0       ??_GFont@@QAEPAXI@Z        004591c0 f i FontManager.obj
 0001:00058200       ?getName@Font@@QAEPBDXZ    00459200 f i FontManager.obj
 0001:00058220       ?getSize@Font@@QAEHXZ      00459220 f i FontManager.obj
 0001:00058240       ?virtSetupBackgroundBuffer@ImageMappingDemo@@UAEXXZ 00459240 f   ImageMappingDemo.obj
 0001:00058340       ?virtInitialiseObjects@ImageMappingDemo@@UAEHXZ 00459340 f   ImageMappingDemo.obj
 0001:000586b0       ?virtKeyDown@ImageMappingDemo@@UAEXH@Z 004596b0 f   ImageMappingDemo.obj
 0001:000586e0       ?virtMainLoopDoBeforeUpdate@ImageMappingDemo@@UAEXXZ 004596e0 f   ImageMappingDemo.obj
 0001:00058770       ?mapCoordinates@ImageMappingDemo@@UAE_NAAN0ABVSimpleImage@@@Z 00459770 f   ImageMappingDemo.obj
 0001:00058be0       ??0MappableImageObject@@QAE@PAVCoordinateMapping@@HHPAVBaseEngine@@V?$basic_string@DU?$char_traits@D@std@@V?$allocator@D@2@@std@@_N3@Z 00459be0 f i ImageMappingDemo.obj
 0001:00058ca0       ??1MappableImageObject@@UAE@XZ 00459ca0 f i ImageMappingDemo.obj
 0001:00058cc0       ??_EMappableImageObject@@UAEPAXI@Z 00459cc0 f i ImageMappingDemo.obj
 0001:00058cc0       ??_GMappableImageObject@@UAEPAXI@Z 00459cc0 f i ImageMappingDemo.obj
 0001:00058d00       ?getPixelColour@MappableImageObject@@QAEHHH@Z 00459d00 f i ImageMappingDemo.obj
 0001:00058d30       ?getPixelColour@SimpleImage@@QBEHHH@Z 00459d30 f i ImageMappingDemo.obj
 0001:00058d60       ?getRawPixelColour@RawImageData@@QBEHHH@Z 00459d60 f i ImageMappingDemo.obj
 0001:00058db0       ?setRotation@CoordinateMappingRotate@@QAEXN@Z 00459db0 f i ImageMappingDemo.obj
 0001:00058dd0       ?setTransparencyColour@MappableImageObject@@QAEXH@Z 00459dd0 f i ImageMappingDemo.obj
 0001:00058e00       ?setXShift@CoordinateMappingShiftXY@@QAEXN@Z 00459e00 f i ImageMappingDemo.obj
 0001:00058e20       ?setYShift@CoordinateMappingShiftXY@@QAEXN@Z 00459e20 f i ImageMappingDemo.obj
 0001:00058e40       ?virtDraw@MappableImageObject@@UAEXXZ 00459e40 f i ImageMappingDemo.obj
 0001:00058ed0       ??0PartCatalogue@@QAE@PAVBaseEngine@@HHH@Z 00459ed0 f   PartCatalogue.obj
 0001:00059ce0       ??1PartCatalogue@@UAE@XZ   0045ace0 f   PartCatalogue.obj
 0001:00059f40       ?virtDrawTileAt@PartCatalogue@@UBEXPAVBaseEngine@@PAVDrawingSurface@@HHHH@Z 0045af40 f   PartCatalogue.obj
 0001:0005a330       ?virtDoUpdate@PartCatalogue@@UAEXH@Z 0045b330 f   PartCatalogue.obj
 0001:0005a490       ?virtMouseDown@PartCatalogue@@UAEXHHH@Z 0045b490 f   PartCatalogue.obj
 0001:0005a730       ?virtMouseUp@PartCatalogue@@UAEXHHH@Z 0045b730 f   PartCatalogue.obj
 0001:0005a990       ?virtMouseMoved@PartCatalogue@@UAEXHH@Z 0045b990 f   PartCatalogue.obj
 0001:0005aa50       ?offsetShip@PartCatalogue@@QAEXNN@Z 0045ba50 f   PartCatalogue.obj
 0001:0005ac60       ?resetShipOffset@PartCatalogue@@QAEXXZ 0045bc60 f   PartCatalogue.obj
 0001:0005ad10       ?drawPartInfo@PartCatalogue@@QAEXPAVBaseEngine@@PAVDrawingSurface@@@Z 0045bd10 f   PartCatalogue.obj
 0001:0005b770       ?makeShip@PartCatalogue@@QAEPAVSpacecraft@@PAVKSP2D@@ABVVec2D@@1PAV4@@Z 0045c770 f   PartCatalogue.obj
 0001:0005bbc0       ?draw@PartCatalogue@@QAEXH@Z 0045cbc0 f   PartCatalogue.obj
 0001:0005c910       ??$?0$$V@?$_Compressed_pair@V?$allocator@PAVSimpleImage@@@std@@V?$_Vector_val@U?$_Simple_types@PAVSimpleImage@@@std@@@2@$00@std@@QAE@U_Zero_then_variadic_args_t@1@@Z 0045d910 f i PartCatalogue.obj
 0001:0005c940       ??$?0$$V@?$_Compressed_pair@V?$allocator@U?$_Tree_node@U?$pair@$$CBV?$basic_string@DU?$char_traits@D@std@@V?$allocator@D@2@@std@@V?$shared_ptr@UPartData@@@2@@std@@PAX@std@@@std@@V?$_Tree_val@U?$_Tree_simple_types@U?$pair@$$CBV?$basic_string@DU?$char_traits@D@std@@V?$allocator@D@2@@std@@V?$shared_ptr@UPartData@@@2@@std@@@std@@@2@$00@std@@QAE@U_Zero_then_variadic_args_t@1@@Z 0045d940 f i PartCatalogue.obj
 0001:0005c970       ??$?0$$V@?$_Compressed_pair@V?$allocator@V?$basic_string@DU?$char_traits@D@std@@V?$allocator@D@2@@std@@@std@@V?$_Vector_val@U?$_Simple_types@V?$basic_string@DU?$char_traits@D@std@@V?$allocator@D@2@@std@@@std@@@2@$00@std@@QAE@U_Zero_then_variadic_args_t@1@@Z 0045d970 f i PartCatalogue.obj
 0001:0005c9a0       ??$?0ABU?$less@V?$basic_string@DU?$char_traits@D@std@@V?$allocator@D@2@@std@@@std@@U_Zero_then_variadic_args_t@1@@?$_Compressed_pair@U?$less@V?$basic_string@DU?$char_traits@D@std@@V?$allocator@D@2@@std@@@std@@V?$_Compressed_pair@V?$allocator@U?$_Tree_node@U?$pair@$$CBV?$basic_string@DU?$char_traits@D@std@@V?$allocator@D@2@@std@@V?$shared_ptr@UPartData@@@2@@std@@PAX@std@@@std@@V?$_Tree_val@U?$_Tree_simple_types@U?$pair@$$CBV?$basic_string@DU?$char_traits@D@std@@V?$allocator@D@2@@std@@V?$shared_ptr@UPartData@@@2@@std@@@std@@@2@$00@2@$00@std@@QAE@U_One_then_variadic_args_t@1@ABU?$less@V?$basic_string@DU?$char_traits@D@std@@V?$allocator@D@2@@std@@@1@$$QAU_Zero_then_variadic_args_t@1@@Z 0045d9a0 f i PartCatalogue.obj
 0001:0005c9f0       ??$?0PAVSimpleImage@@@?$allocator@U_Container_proxy@std@@@std@@QAE@ABV?$allocator@PAVSimpleImage@@@1@@Z 0045d9f0 f i PartCatalogue.obj
 0001:0005ca10       ??$?0U?$_Tree_node@U?$pair@$$CBV?$basic_string@DU?$char_traits@D@std@@V?$allocator@D@2@@std@@V?$shared_ptr@UPartData@@@2@@std@@PAX@std@@@?$allocator@U_Container_proxy@std@@@std@@QAE@ABV?$allocator@U?$_Tree_node@U?$pair@$$CBV?$basic_string@DU?$char_traits@D@std@@V?$allocator@D@2@@std@@V?$shared_ptr@UPartData@@@2@@std@@PAX@std@@@1@@Z 0045da10 f i PartCatalogue.obj
 0001:0005ca30       ??$?0U?$integral_constant@_N$00@std@@@_Unused_parameter@std@@QAE@$$QAU?$integral_constant@_N$00@1@@Z 0045da30 f i PartCatalogue.obj
 0001:0005ca50       ??$?0V?$basic_string@DU?$char_traits@D@std@@V?$allocator@D@2@@std@@@?$allocator@U_Container_proxy@std@@@std@@QAE@ABV?$allocator@V?$basic_string@DU?$char_traits@D@std@@V?$allocator@D@2@@std@@@1@@Z 0045da50 f i PartCatalogue.obj
 0001:0005ca70       ??$?8DU?$char_traits@D@std@@V?$allocator@D@1@@std@@YA_NABV?$basic_string@DU?$char_traits@D@std@@V?$allocator@D@2@@0@0@Z 0045da70 f i PartCatalogue.obj
 0001:0005ca90       ??$?9DU?$char_traits@D@std@@V?$allocator@D@1@@std@@YA_NABV?$basic_string@DU?$char_traits@D@std@@V?$allocator@D@2@@0@0@Z 0045da90 f i PartCatalogue.obj
 0001:0005cad0       ??$?HDU?$char_traits@D@std@@V?$allocator@D@1@@std@@YA?AV?$basic_string@DU?$char_traits@D@std@@V?$allocator@D@2@@0@$$QAV10@ABV10@@Z 0045dad0 f i PartCatalogue.obj
 0001:0005cb20       ??$_Copy_memmove@PAPAVSimpleImage@@PAPAV1@@std@@YAPAPAVSimpleImage@@PAPAV1@00@Z 0045db20 f i PartCatalogue.obj
 0001:0005cb70       ??$_Destroy_range1@V?$allocator@PAVSimpleImage@@@std@@@std@@YAXPAPAVSimpleImage@@0AAV?$allocator@PAVSimpleImage@@@0@U?$integral_constant@_N$00@0@@Z 0045db70 f i PartCatalogue.obj
 0001:0005cb80       ??$_Destroy_range1@V?$allocator@V?$basic_string@DU?$char_traits@D@std@@V?$allocator@D@2@@std@@@std@@@std@@YAXPAV?$basic_string@DU?$char_traits@D@std@@V?$allocator@D@2@@0@0AAV?$allocator@V?$basic_string@DU?$char_traits@D@std@@V?$allocator@D@2@@std@@@0@U?$integral_constant@_N$0A@@0@@Z 0045db80 f i PartCatalogue.obj
 0001:0005cbc0       ??$_Destroy_range@V?$allocator@PAVSimpleImage@@@std@@@std@@YAXPAPAVSimpleImage@@0AAV?$allocator@PAVSimpleImage@@@0@@Z 0045dbc0 f i PartCatalogue.obj
 0001:0005cbf0       ??$_Destroy_range@V?$allocator@V?$basic_string@DU?$char_traits@D@std@@V?$allocator@D@2@@std@@@std@@@std@@YAXPAV?$basic_string@DU?$char_traits@D@std@@V?$allocator@D@2@@0@0AAV?$allocator@V?$basic_string@DU?$char_traits@D@std@@V?$allocator@D@2@@std@@@0@@Z 0045dbf0 f i PartCatalogue.obj
 0001:0005cc20       ??$_Emplace_back@V?$basic_string@DU?$char_traits@D@std@@V?$allocator@D@2@@std@@@?$_Uninitialized_backout_al@PAV?$basic_string@DU?$char_traits@D@std@@V?$allocator@D@2@@std@@V?$allocator@V?$basic_string@DU?$char_traits@D@std@@V?$allocator@D@2@@std@@@2@@std@@QAEX$$QAV?$basic_string@DU?$char_traits@D@std@@V?$allocator@D@2@@1@@Z 0045dc20 f i PartCatalogue.obj
 0001:0005cc80       ??$_Emplace_back_with_unused_capacity@PAVRocketPart@@@?$vector@PAVRocketPart@@V?$allocator@PAVRocketPart@@@std@@@std@@AAE@$$QAPAVRocketPart@@@Z 0045dc80 f i PartCatalogue.obj
 0001:0005cd30       ??$_Emplace_back_with_unused_capacity@PAVSimpleImage@@@?$vector@PAVSimpleImage@@V?$allocator@PAVSimpleImage@@@std@@@std@@AAE@$$QAPAVSimpleImage@@@Z 0045dd30 f i PartCatalogue.obj
 0001:0005cde0       ??$_Emplace_back_with_unused_capacity@V?$basic_string@DU?$char_traits@D@std@@V?$allocator@D@2@@std@@@?$vector@V?$basic_string@DU?$char_traits@D@std@@V?$allocator@D@2@@std@@V?$allocator@V?$basic_string@DU?$char_traits@D@std@@V?$allocator@D@2@@std@@@2@@std@@AAE@$$QAV?$basic_string@DU?$char_traits@D@std@@V?$allocator@D@2@@1@@Z 0045dde0 f i PartCatalogue.obj
 0001:0005ce90       ??$_Emplace_reallocate@PAVRocketPart@@@?$vector@PAVRocketPart@@V?$allocator@PAVRocketPart@@@std@@@std@@QAEPAPAVRocketPart@@QAPAV2@$$QAPAV2@@Z 0045de90 f i PartCatalogue.obj
 0001:0005d0e0       ??$_Emplace_reallocate@PAVSimpleImage@@@?$vector@PAVSimpleImage@@V?$allocator@PAVSimpleImage@@@std@@@std@@QAEPAPAVSimpleImage@@QAPAV2@$$QAPAV2@@Z 0045e0e0 f i PartCatalogue.obj
 0001:0005d330       ??$_Emplace_reallocate@V?$basic_string@DU?$char_traits@D@std@@V?$allocator@D@2@@std@@@?$vector@V?$basic_string@DU?$char_traits@D@std@@V?$allocator@D@2@@std@@V?$allocator@V?$basic_string@DU?$char_traits@D@std@@V?$allocator@D@2@@std@@@2@@std@@QAEPAV?$basic_string@DU?$char_traits@D@std@@V?$allocator@D@2@@1@QAV21@$$QAV21@@Z 0045e330 f i PartCatalogue.obj
 0001:0005d590       ??$_Get_size_of_n@$0BM@@std@@YAII@Z 0045e590 f i PartCatalogue.obj
 0001:0005d5d0       ??$_Get_unwrapped@PAVSimpleImage@@@std@@YAPAPAVSimpleImage@@QAPAV1@@Z 0045e5d0 f i PartCatalogue.obj
 0001:0005d5e0       ??$_Get_unwrapped@V?$basic_string@DU?$char_traits@D@std@@V?$allocator@D@2@@std@@@std@@YAPAV?$basic_string@DU?$char_traits@D@std@@V?$allocator@D@2@@0@QAV10@@Z 0045e5e0 f i PartCatalogue.obj
 0001:0005d5f0       ??$_Get_unwrapped_n@PAVSimpleImage@@H$0A@@std@@YAPAPAVSimpleImage@@QAPAV1@H@Z 0045e5f0 f i PartCatalogue.obj
 0001:0005d600       ??$_Get_unwrapped_n@V?$basic_string@DU?$char_traits@D@std@@V?$allocator@D@2@@std@@H$0A@@std@@YAPAV?$basic_string@DU?$char_traits@D@std@@V?$allocator@D@2@@0@QAV10@H@Z 0045e600 f i PartCatalogue.obj
 0001:0005d610       ??$_Idl_distance1@PAPAVSimpleImage@@PAPAV1@@std@@YAHABQAPAVSimpleImage@@0Urandom_access_iterator_tag@0@@Z 0045e610 f i PartCatalogue.obj
 0001:0005d630       ??$_Idl_distance1@PAV?$basic_string@DU?$char_traits@D@std@@V?$allocator@D@2@@std@@PAV12@@std@@YAHABQAV?$basic_string@DU?$char_traits@D@std@@V?$allocator@D@2@@0@0Urandom_access_iterator_tag@0@@Z 0045e630 f i PartCatalogue.obj
 0001:0005d650       ??$_Idl_distance@PAPAVSimpleImage@@PAPAV1@@std@@YA@ABQAPAVSimpleImage@@0@Z 0045e650 f i PartCatalogue.obj
 0001:0005d680       ??$_Idl_distance@PAV?$basic_string@DU?$char_traits@D@std@@V?$allocator@D@2@@std@@PAV12@@std@@YA@ABQAV?$basic_string@DU?$char_traits@D@std@@V?$allocator@D@2@@0@0@Z 0045e680 f i PartCatalogue.obj
 0001:0005d6b0       ??$_Ptr_move_cat@PAVSimpleImage@@PAV1@@std@@YA?AU_Really_trivial_ptr_iterator_tag@0@ABQAPAVSimpleImage@@0@Z 0045e6b0 f i PartCatalogue.obj
 0001:0005d6c0       ??$_Ptr_move_cat@V?$basic_string@DU?$char_traits@D@std@@V?$allocator@D@2@@std@@V12@@std@@YA?AU_General_ptr_iterator_tag@0@ABQAV?$basic_string@DU?$char_traits@D@std@@V?$allocator@D@2@@0@0@Z 0045e6c0 f i PartCatalogue.obj
 0001:0005d6e0       ??$_Seek_wrapped@PAVSimpleImage@@@std@@YAXAAPAPAVSimpleImage@@QAPAV1@@Z 0045e6e0 f i PartCatalogue.obj
 0001:0005d6f0       ??$_Seek_wrapped@V?$basic_string@DU?$char_traits@D@std@@V?$allocator@D@2@@std@@@std@@YAXAAPAV?$basic_string@DU?$char_traits@D@std@@V?$allocator@D@2@@0@QAV10@@Z 0045e6f0 f i PartCatalogue.obj
 0001:0005d700       ??$_Unfancy@PAVSimpleImage@@@std@@YAPAPAVSimpleImage@@PAPAV1@@Z 0045e700 f i PartCatalogue.obj
 0001:0005d710       ??$_Unfancy@V?$basic_string@DU?$char_traits@D@std@@V?$allocator@D@2@@std@@@std@@YAPAV?$basic_string@DU?$char_traits@D@std@@V?$allocator@D@2@@0@PAV10@@Z 0045e710 f i PartCatalogue.obj
 0001:0005d720       ??$_Uninitialized_move@PAPAVSimpleImage@@PAPAV1@V?$allocator@PAVSimpleImage@@@std@@@std@@YAPAPAVSimpleImage@@QAPAV1@0PAPAV1@AAV?$allocator@PAVSimpleImage@@@0@@Z 0045e720 f i PartCatalogue.obj
 0001:0005d7e0       ??$_Uninitialized_move@PAV?$basic_string@DU?$char_traits@D@std@@V?$allocator@D@2@@std@@PAV12@V?$allocator@V?$basic_string@DU?$char_traits@D@std@@V?$allocator@D@2@@std@@@2@@std@@YAPAV?$basic_string@DU?$char_traits@D@std@@V?$allocator@D@2@@0@QAV10@0PAV10@AAV?$allocator@V?$basic_string@DU?$char_traits@D@std@@V?$allocator@D@2@@std@@@0@@Z 0045e7e0 f i PartCatalogue.obj
 0001:0005d8a0       ??$_Uninitialized_move_al_unchecked@PAV?$basic_string@DU?$char_traits@D@std@@V?$allocator@D@2@@std@@PAV12@V?$allocator@V?$basic_string@DU?$char_traits@D@std@@V?$allocator@D@2@@std@@@2@@std@@YAPAV?$basic_string@DU?$char_traits@D@std@@V?$allocator@D@2@@0@PAV10@QAV10@1AAV?$allocator@V?$basic_string@DU?$char_traits@D@std@@V?$allocator@D@2@@std@@@0@U_General_ptr_iterator_tag@0@U_Unused_parameter@0@@Z 0045e8a0 f i PartCatalogue.obj
 0001:0005d960       ??$_Uninitialized_move_al_unchecked@PAVSimpleImage@@PAV1@V?$allocator@PAVSimpleImage@@@std@@@std@@YAPAPAVSimpleImage@@QAPAV1@00AAV?$allocator@PAVSimpleImage@@@0@U_Really_trivial_ptr_iterator_tag@0@U?$integral_constant@_N$00@0@@Z 0045e960 f i PartCatalogue.obj
 0001:0005d980       ??$addressof@V?$_Vector_val@U?$_Simple_types@PAVSimpleImage@@@std@@@std@@@std@@YAPAV?$_Vector_val@U?$_Simple_types@PAVSimpleImage@@@std@@@0@AAV10@@Z 0045e980 f i PartCatalogue.obj
 0001:0005d990       ??$addressof@V?$_Vector_val@U?$_Simple_types@V?$basic_string@DU?$char_traits@D@std@@V?$allocator@D@2@@std@@@std@@@std@@@std@@YAPAV?$_Vector_val@U?$_Simple_types@V?$basic_string@DU?$char_traits@D@std@@V?$allocator@D@2@@std@@@std@@@0@AAV10@@Z 0045e990 f i PartCatalogue.obj
 0001:0005d9a0       ??$construct@PAVRocketPart@@PAV1@@?$_Default_allocator_traits@V?$allocator@PAVRocketPart@@@std@@@std@@SAXAAV?$allocator@PAVRocketPart@@@1@QAPAVRocketPart@@$$QAPAV3@@Z 0045e9a0 f i PartCatalogue.obj
 0001:0005d9e0       ??$construct@PAVSimpleImage@@PAV1@@?$_Default_allocator_traits@V?$allocator@PAVSimpleImage@@@std@@@std@@SAXAAV?$allocator@PAVSimpleImage@@@1@QAPAVSimpleImage@@$$QAPAV3@@Z 0045e9e0 f i PartCatalogue.obj
 0001:0005da20       ??$construct@V?$basic_string@DU?$char_traits@D@std@@V?$allocator@D@2@@std@@V12@@?$_Default_allocator_traits@V?$allocator@V?$basic_string@DU?$char_traits@D@std@@V?$allocator@D@2@@std@@@std@@@std@@SAXAAV?$allocator@V?$basic_string@DU?$char_traits@D@std@@V?$allocator@D@2@@std@@@1@QAV?$basic_string@DU?$char_traits@D@std@@V?$allocator@D@2@@1@$$QAV31@@Z 0045ea20 f i PartCatalogue.obj
 0001:0005da60       ??$destroy@V?$basic_string@DU?$char_traits@D@std@@V?$allocator@D@2@@std@@@?$_Default_allocator_traits@V?$allocator@V?$basic_string@DU?$char_traits@D@std@@V?$allocator@D@2@@std@@@std@@@std@@SAXAAV?$allocator@V?$basic_string@DU?$char_traits@D@std@@V?$allocator@D@2@@std@@@1@QAV?$basic_string@DU?$char_traits@D@std@@V?$allocator@D@2@@1@@Z 0045ea60 f i PartCatalogue.obj
 0001:0005da80       ??$emplace_back@PAVRocketPart@@@?$vector@PAVRocketPart@@V?$allocator@PAVRocketPart@@@std@@@std@@QAE@$$QAPAVRocketPart@@@Z 0045ea80 f i PartCatalogue.obj
 0001:0005daf0       ??$emplace_back@PAVSimpleImage@@@?$vector@PAVSimpleImage@@V?$allocator@PAVSimpleImage@@@std@@@std@@QAE@$$QAPAVSimpleImage@@@Z 0045eaf0 f i PartCatalogue.obj
 0001:0005db60       ??$emplace_back@V?$basic_string@DU?$char_traits@D@std@@V?$allocator@D@2@@std@@@?$vector@V?$basic_string@DU?$char_traits@D@std@@V?$allocator@D@2@@std@@V?$allocator@V?$basic_string@DU?$char_traits@D@std@@V?$allocator@D@2@@std@@@2@@std@@QAE@$$QAV?$basic_string@DU?$char_traits@D@std@@V?$allocator@D@2@@1@@Z 0045eb60 f i PartCatalogue.obj
 0001:0005dbd0       ??$forward@PAVRocketPart@@@std@@YA$$QAPAVRocketPart@@AAPAV1@@Z 0045ebd0 f i PartCatalogue.obj
 0001:0005dbe0       ??$forward@PAVSimpleImage@@@std@@YA$$QAPAVSimpleImage@@AAPAV1@@Z 0045ebe0 f i PartCatalogue.obj
 0001:0005dbf0       ??$min@M@std@@YAABMABM0@Z  0045ebf0 f i PartCatalogue.obj
 0001:0005dc90       ??$move@AAPAUPartData@@@std@@YA$$QAPAUPartData@@AAPAU1@@Z 0045ec90 f i PartCatalogue.obj
 0001:0005dca0       ??$move@AAPAVRocketPart@@@std@@YA$$QAPAVRocketPart@@AAPAV1@@Z 0045eca0 f i PartCatalogue.obj
 0001:0005dcb0       ??$move@AAPAVSimpleImage@@@std@@YA$$QAPAVSimpleImage@@AAPAV1@@Z 0045ecb0 f i PartCatalogue.obj
 0001:0005dcc0       ??$swap@PAUPartData@@X@std@@YAXAAPAUPartData@@0@Z 0045ecc0 f i PartCatalogue.obj
 0001:0005dd10       ??0?$_Tree@V?$_Tmap_traits@V?$basic_string@DU?$char_traits@D@std@@V?$allocator@D@2@@std@@V?$shared_ptr@UPartData@@@2@U?$less@V?$basic_string@DU?$char_traits@D@std@@V?$allocator@D@2@@std@@@2@V?$allocator@U?$pair@$$CBV?$basic_string@DU?$char_traits@D@std@@V?$allocator@D@2@@std@@V?$shared_ptr@UPartData@@@2@@std@@@2@$0A@@std@@@std@@QAE@ABU?$less@V?$basic_string@DU?$char_traits@D@std@@V?$allocator@D@2@@std@@@1@@Z 0045ed10 f i PartCatalogue.obj
 0001:0005dd40       ??0?$_Tree_comp_alloc@V?$_Tmap_traits@V?$basic_string@DU?$char_traits@D@std@@V?$allocator@D@2@@std@@V?$shared_ptr@UPartData@@@2@U?$less@V?$basic_string@DU?$char_traits@D@std@@V?$allocator@D@2@@std@@@2@V?$allocator@U?$pair@$$CBV?$basic_string@DU?$char_traits@D@std@@V?$allocator@D@2@@std@@V?$shared_ptr@UPartData@@@2@@std@@@2@$0A@@std@@@std@@QAE@ABU?$less@V?$basic_string@DU?$char_traits@D@std@@V?$allocator@D@2@@std@@@1@@Z 0045ed40 f i PartCatalogue.obj
 0001:0005dd80       ??0?$_Tree_val@U?$_Tree_simple_types@U?$pair@$$CBV?$basic_string@DU?$char_traits@D@std@@V?$allocator@D@2@@std@@V?$shared_ptr@UPartData@@@2@@std@@@std@@@std@@QAE@XZ 0045ed80 f i PartCatalogue.obj
 0001:0005ddc0       ??0?$_Uninitialized_backout_al@PAV?$basic_string@DU?$char_traits@D@std@@V?$allocator@D@2@@std@@V?$allocator@V?$basic_string@DU?$char_traits@D@std@@V?$allocator@D@2@@std@@@2@@std@@QAE@PAV?$basic_string@DU?$char_traits@D@std@@V?$allocator@D@2@@1@AAV?$allocator@V?$basic_string@DU?$char_traits@D@std@@V?$allocator@D@2@@std@@@1@@Z 0045edc0 f i PartCatalogue.obj
 0001:0005de00       ??0?$_Vector_alloc@U?$_Vec_base_types@PAVSimpleImage@@V?$allocator@PAVSimpleImage@@@std@@@std@@@std@@QAE@XZ 0045ee00 f i PartCatalogue.obj
 0001:0005de30       ??0?$_Vector_alloc@U?$_Vec_base_types@V?$basic_string@DU?$char_traits@D@std@@V?$allocator@D@2@@std@@V?$allocator@V?$basic_string@DU?$char_traits@D@std@@V?$allocator@D@2@@std@@@2@@std@@@std@@QAE@XZ 0045ee30 f i PartCatalogue.obj
 0001:0005de60       ??0?$_Vector_val@U?$_Simple_types@PAVSimpleImage@@@std@@@std@@QAE@XZ 0045ee60 f i PartCatalogue.obj
 0001:0005deb0       ??0?$_Vector_val@U?$_Simple_types@V?$basic_string@DU?$char_traits@D@std@@V?$allocator@D@2@@std@@@std@@@std@@QAE@XZ 0045eeb0 f i PartCatalogue.obj
 0001:0005df00       ??0?$allocator@PAVSimpleImage@@@std@@QAE@XZ 0045ef00 f i PartCatalogue.obj
 0001:0005df20       ??0?$allocator@U?$_Tree_node@U?$pair@$$CBV?$basic_string@DU?$char_traits@D@std@@V?$allocator@D@2@@std@@V?$shared_ptr@UPartData@@@2@@std@@PAX@std@@@std@@QAE@XZ 0045ef20 f i PartCatalogue.obj
 0001:0005df40       ??0?$allocator@V?$basic_string@DU?$char_traits@D@std@@V?$allocator@D@2@@std@@@std@@QAE@XZ 0045ef40 f i PartCatalogue.obj
 0001:0005df60       ??0?$map@V?$basic_string@DU?$char_traits@D@std@@V?$allocator@D@2@@std@@V?$shared_ptr@UPartData@@@2@U?$less@V?$basic_string@DU?$char_traits@D@std@@V?$allocator@D@2@@std@@@2@V?$allocator@U?$pair@$$CBV?$basic_string@DU?$char_traits@D@std@@V?$allocator@D@2@@std@@V?$shared_ptr@UPartData@@@2@@std@@@2@@std@@QAE@XZ 0045ef60 f i PartCatalogue.obj
 0001:0005df90       ??0?$vector@PAVSimpleImage@@V?$allocator@PAVSimpleImage@@@std@@@std@@QAE@XZ 0045ef90 f i PartCatalogue.obj
 0001:0005dfe0       ??0?$vector@V?$basic_string@DU?$char_traits@D@std@@V?$allocator@D@2@@std@@V?$allocator@V?$basic_string@DU?$char_traits@D@std@@V?$allocator@D@2@@std@@@2@@std@@QAE@XZ 0045efe0 f i PartCatalogue.obj
 0001:0005e030       ??0KSPMetaManager@@QAE@XZ  0045f030 f i PartCatalogue.obj
 0001:0005e050       ??0TileManager@@QAE@HH@Z   0045f050 f i PartCatalogue.obj
 0001:0005e0d0       ??1?$_Uninitialized_backout_al@PAV?$basic_string@DU?$char_traits@D@std@@V?$allocator@D@2@@std@@V?$allocator@V?$basic_string@DU?$char_traits@D@std@@V?$allocator@D@2@@std@@@2@@std@@QAE@XZ 0045f0d0 f i PartCatalogue.obj
 0001:0005e140       ??1?$_Vector_alloc@U?$_Vec_base_types@PAVSimpleImage@@V?$allocator@PAVSimpleImage@@@std@@@std@@@std@@QAE@XZ 0045f140 f i PartCatalogue.obj
 0001:0005e190       ??1?$_Vector_alloc@U?$_Vec_base_types@V?$basic_string@DU?$char_traits@D@std@@V?$allocator@D@2@@std@@V?$allocator@V?$basic_string@DU?$char_traits@D@std@@V?$allocator@D@2@@std@@@2@@std@@@std@@QAE@XZ 0045f190 f i PartCatalogue.obj
 0001:0005e1e0       ??1?$vector@PAVSimpleImage@@V?$allocator@PAVSimpleImage@@@std@@@std@@QAE@XZ 0045f1e0 f i PartCatalogue.obj
 0001:0005e240       ??1?$vector@V?$basic_string@DU?$char_traits@D@std@@V?$allocator@D@2@@std@@V?$allocator@V?$basic_string@DU?$char_traits@D@std@@V?$allocator@D@2@@std@@@2@@std@@QAE@XZ 0045f240 f i PartCatalogue.obj
 0001:0005e2a0       ??1TileManager@@UAE@XZ     0045f2a0 f i PartCatalogue.obj
 0001:0005e2f0       ??4?$shared_ptr@UPartData@@@std@@QAEAAV01@$$QAV01@@Z 0045f2f0 f i PartCatalogue.obj
 0001:0005e340       ??A?$vector@PAVSimpleImage@@V?$allocator@PAVSimpleImage@@@std@@@std@@QAEAAPAVSimpleImage@@I@Z 0045f340 f i PartCatalogue.obj
 0001:0005e3e0       ??A?$vector@PAVSimpleImage@@V?$allocator@PAVSimpleImage@@@std@@@std@@QBEABQAVSimpleImage@@I@Z 0045f3e0 f i PartCatalogue.obj
 0001:0005e480       ??A?$vector@V?$basic_string@DU?$char_traits@D@std@@V?$allocator@D@2@@std@@V?$allocator@V?$basic_string@DU?$char_traits@D@std@@V?$allocator@D@2@@std@@@2@@std@@QAEAAV?$basic_string@DU?$char_traits@D@std@@V?$allocator@D@2@@1@I@Z 0045f480 f i PartCatalogue.obj
 0001:0005e520       ??A?$vector@V?$basic_string@DU?$char_traits@D@std@@V?$allocator@D@2@@std@@V?$allocator@V?$basic_string@DU?$char_traits@D@std@@V?$allocator@D@2@@std@@@2@@std@@QBEABV?$basic_string@DU?$char_traits@D@std@@V?$allocator@D@2@@1@I@Z 0045f520 f i PartCatalogue.obj
 0001:0005e5b8       ??_EPartCatalogue@@WCA@AEPAXI@Z 0045f5b8 f i PartCatalogue.obj
 0001:0005e5d0       ??_G?$basic_string@DU?$char_traits@D@std@@V?$allocator@D@2@@std@@QAEPAXI@Z 0045f5d0 f i PartCatalogue.obj
 0001:0005e610       ??_EPartCatalogue@@UAEPAXI@Z 0045f610 f i PartCatalogue.obj
 0001:0005e610       ??_GPartCatalogue@@UAEPAXI@Z 0045f610 f i PartCatalogue.obj
 0001:0005e650       ??_GTileManager@@UAEPAXI@Z 0045f650 f i PartCatalogue.obj
 0001:0005e650       ??_ETileManager@@UAEPAXI@Z 0045f650 f i PartCatalogue.obj
 0001:0005e690       ?_Alloc_proxy@?$_Tree_comp_alloc@V?$_Tmap_traits@V?$basic_string@DU?$char_traits@D@std@@V?$allocator@D@2@@std@@V?$shared_ptr@UPartData@@@2@U?$less@V?$basic_string@DU?$char_traits@D@std@@V?$allocator@D@2@@std@@@2@V?$allocator@U?$pair@$$CBV?$basic_string@DU?$char_traits@D@std@@V?$allocator@D@2@@std@@V?$shared_ptr@UPartData@@@2@@std@@@2@$0A@@std@@@std@@QAEXXZ 0045f690 f i PartCatalogue.obj
 0001:0005e730       ?_Alloc_proxy@?$_Vector_alloc@U?$_Vec_base_types@PAVSimpleImage@@V?$allocator@PAVSimpleImage@@@std@@@std@@@std@@QAEXXZ 0045f730 f i PartCatalogue.obj
 0001:0005e7d0       ?_Alloc_proxy@?$_Vector_alloc@U?$_Vec_base_types@V?$basic_string@DU?$char_traits@D@std@@V?$allocator@D@2@@std@@V?$allocator@V?$basic_string@DU?$char_traits@D@std@@V?$allocator@D@2@@std@@@2@@std@@@std@@QAEXXZ 0045f7d0 f i PartCatalogue.obj
 0001:0005e870       ?_Buyheadnode@?$_Tree_comp_alloc@V?$_Tmap_traits@V?$basic_string@DU?$char_traits@D@std@@V?$allocator@D@2@@std@@V?$shared_ptr@UPartData@@@2@U?$less@V?$basic_string@DU?$char_traits@D@std@@V?$allocator@D@2@@std@@@2@V?$allocator@U?$pair@$$CBV?$basic_string@DU?$char_traits@D@std@@V?$allocator@D@2@@std@@V?$shared_ptr@UPartData@@@2@@std@@@2@$0A@@std@@@std@@QAEPAU?$_Tree_node@U?$pair@$$CBV?$basic_string@DU?$char_traits@D@std@@V?$allocator@D@2@@std@@V?$shared_ptr@UPartData@@@2@@std@@PAX@2@XZ 0045f870 f i PartCatalogue.obj
 0001:0005e9b0       ?_Calculate_growth@?$vector@PAVSimpleImage@@V?$allocator@PAVSimpleImage@@@std@@@std@@ABEII@Z 0045f9b0 f i PartCatalogue.obj
 0001:0005ea20       ?_Calculate_growth@?$vector@V?$basic_string@DU?$char_traits@D@std@@V?$allocator@D@2@@std@@V?$allocator@V?$basic_string@DU?$char_traits@D@std@@V?$allocator@D@2@@std@@@2@@std@@ABEII@Z 0045fa20 f i PartCatalogue.obj
 0001:0005ea90       ?_Change_array@?$vector@PAVSimpleImage@@V?$allocator@PAVSimpleImage@@@std@@@std@@AAEXQAPAVSimpleImage@@II@Z 0045fa90 f i PartCatalogue.obj
 0001:0005eb50       ?_Change_array@?$vector@V?$basic_string@DU?$char_traits@D@std@@V?$allocator@D@2@@std@@V?$allocator@V?$basic_string@DU?$char_traits@D@std@@V?$allocator@D@2@@std@@@2@@std@@AAEXQAV?$basic_string@DU?$char_traits@D@std@@V?$allocator@D@2@@2@II@Z 0045fb50 f i PartCatalogue.obj
 0001:0005ec10       ?_Construct@?$_Tree_comp_alloc@V?$_Tmap_traits@V?$basic_string@DU?$char_traits@D@std@@V?$allocator@D@2@@std@@V?$shared_ptr@UPartData@@@2@U?$less@V?$basic_string@DU?$char_traits@D@std@@V?$allocator@D@2@@std@@@2@V?$allocator@U?$pair@$$CBV?$basic_string@DU?$char_traits@D@std@@V?$allocator@D@2@@std@@V?$shared_ptr@UPartData@@@2@@std@@@2@$0A@@std@@@std@@QAEXXZ 0045fc10 f i PartCatalogue.obj
 0001:0005ecd0       ?_Destroy@?$vector@PAVSimpleImage@@V?$allocator@PAVSimpleImage@@@std@@@std@@AAEXPAPAVSimpleImage@@0@Z 0045fcd0 f i PartCatalogue.obj
 0001:0005ed00       ?_Destroy@?$vector@V?$basic_string@DU?$char_traits@D@std@@V?$allocator@D@2@@std@@V?$allocator@V?$basic_string@DU?$char_traits@D@std@@V?$allocator@D@2@@std@@@2@@std@@AAEXPAV?$basic_string@DU?$char_traits@D@std@@V?$allocator@D@2@@2@0@Z 0045fd00 f i PartCatalogue.obj
 0001:0005ed30       ?_Equal@?$basic_string@DU?$char_traits@D@std@@V?$allocator@D@2@@std@@QBE_NABV12@@Z 0045fd30 f i PartCatalogue.obj
 0001:0005edd0       ?_Free_proxy@?$_Vector_alloc@U?$_Vec_base_types@PAVSimpleImage@@V?$allocator@PAVSimpleImage@@@std@@@std@@@std@@QAEXXZ 0045fdd0 f i PartCatalogue.obj
 0001:0005ee50       ?_Free_proxy@?$_Vector_alloc@U?$_Vec_base_types@V?$basic_string@DU?$char_traits@D@std@@V?$allocator@D@2@@std@@V?$allocator@V?$basic_string@DU?$char_traits@D@std@@V?$allocator@D@2@@std@@@2@@std@@@std@@QAEXXZ 0045fe50 f i PartCatalogue.obj
 0001:0005eed0       ?_Freeheadnode@?$_Tree_comp_alloc@V?$_Tmap_traits@V?$basic_string@DU?$char_traits@D@std@@V?$allocator@D@2@@std@@V?$shared_ptr@UPartData@@@2@U?$less@V?$basic_string@DU?$char_traits@D@std@@V?$allocator@D@2@@std@@@2@V?$allocator@U?$pair@$$CBV?$basic_string@DU?$char_traits@D@std@@V?$allocator@D@2@@std@@V?$shared_ptr@UPartData@@@2@@std@@@2@$0A@@std@@@std@@QAEXPAU?$_Tree_node@U?$pair@$$CBV?$basic_string@DU?$char_traits@D@std@@V?$allocator@D@2@@std@@V?$shared_ptr@UPartData@@@2@@std@@PAX@2@@Z 0045fed0 f i PartCatalogue.obj
 0001:0005ef00       ?_Get_data@?$_Vector_alloc@U?$_Vec_base_types@PAVSimpleImage@@V?$allocator@PAVSimpleImage@@@std@@@std@@@std@@QAEAAV?$_Vector_val@U?$_Simple_types@PAVSimpleImage@@@std@@@2@XZ 0045ff00 f i PartCatalogue.obj
 0001:0005ef20       ?_Get_data@?$_Vector_alloc@U?$_Vec_base_types@PAVSimpleImage@@V?$allocator@PAVSimpleImage@@@std@@@std@@@std@@QBEABV?$_Vector_val@U?$_Simple_types@PAVSimpleImage@@@std@@@2@XZ 0045ff20 f i PartCatalogue.obj
 0001:0005ef40       ?_Get_data@?$_Vector_alloc@U?$_Vec_base_types@V?$basic_string@DU?$char_traits@D@std@@V?$allocator@D@2@@std@@V?$allocator@V?$basic_string@DU?$char_traits@D@std@@V?$allocator@D@2@@std@@@2@@std@@@std@@QAEAAV?$_Vector_val@U?$_Simple_types@V?$basic_string@DU?$char_traits@D@std@@V?$allocator@D@2@@std@@@std@@@2@XZ 0045ff40 f i PartCatalogue.obj
 0001:0005ef60       ?_Get_data@?$_Vector_alloc@U?$_Vec_base_types@V?$basic_string@DU?$char_traits@D@std@@V?$allocator@D@2@@std@@V?$allocator@V?$basic_string@DU?$char_traits@D@std@@V?$allocator@D@2@@std@@@2@@std@@@std@@QBEABV?$_Vector_val@U?$_Simple_types@V?$basic_string@DU?$char_traits@D@std@@V?$allocator@D@2@@std@@@std@@@2@XZ 0045ff60 f i PartCatalogue.obj
 0001:0005ef80       ?_Get_first@?$_Compressed_pair@V?$allocator@PAVSimpleImage@@@std@@V?$_Vector_val@U?$_Simple_types@PAVSimpleImage@@@std@@@2@$00@std@@QAEAAV?$allocator@PAVSimpleImage@@@2@XZ 0045ff80 f i PartCatalogue.obj
 0001:0005efa0       ?_Get_first@?$_Compressed_pair@V?$allocator@PAVSimpleImage@@@std@@V?$_Vector_val@U?$_Simple_types@PAVSimpleImage@@@std@@@2@$00@std@@QBEABV?$allocator@PAVSimpleImage@@@2@XZ 0045ffa0 f i PartCatalogue.obj
 0001:0005efc0       ?_Get_first@?$_Compressed_pair@V?$allocator@V?$basic_string@DU?$char_traits@D@std@@V?$allocator@D@2@@std@@@std@@V?$_Vector_val@U?$_Simple_types@V?$basic_string@DU?$char_traits@D@std@@V?$allocator@D@2@@std@@@std@@@2@$00@std@@QAEAAV?$allocator@V?$basic_string@DU?$char_traits@D@std@@V?$allocator@D@2@@std@@@2@XZ 0045ffc0 f i PartCatalogue.obj
 0001:0005efe0       ?_Get_first@?$_Compressed_pair@V?$allocator@V?$basic_string@DU?$char_traits@D@std@@V?$allocator@D@2@@std@@@std@@V?$_Vector_val@U?$_Simple_types@V?$basic_string@DU?$char_traits@D@std@@V?$allocator@D@2@@std@@@std@@@2@$00@std@@QBEABV?$allocator@V?$basic_string@DU?$char_traits@D@std@@V?$allocator@D@2@@std@@@2@XZ 0045ffe0 f i PartCatalogue.obj
 0001:0005f000       ?_Get_second@?$_Compressed_pair@V?$allocator@PAVSimpleImage@@@std@@V?$_Vector_val@U?$_Simple_types@PAVSimpleImage@@@std@@@2@$00@std@@QAEAAV?$_Vector_val@U?$_Simple_types@PAVSimpleImage@@@std@@@2@XZ 00460000 f i PartCatalogue.obj
 0001:0005f020       ?_Get_second@?$_Compressed_pair@V?$allocator@PAVSimpleImage@@@std@@V?$_Vector_val@U?$_Simple_types@PAVSimpleImage@@@std@@@2@$00@std@@QBEABV?$_Vector_val@U?$_Simple_types@PAVSimpleImage@@@std@@@2@XZ 00460020 f i PartCatalogue.obj
 0001:0005f040       ?_Get_second@?$_Compressed_pair@V?$allocator@V?$basic_string@DU?$char_traits@D@std@@V?$allocator@D@2@@std@@@std@@V?$_Vector_val@U?$_Simple_types@V?$basic_string@DU?$char_traits@D@std@@V?$allocator@D@2@@std@@@std@@@2@$00@std@@QAEAAV?$_Vector_val@U?$_Simple_types@V?$basic_string@DU?$char_traits@D@std@@V?$allocator@D@2@@std@@@std@@@2@XZ 00460040 f i PartCatalogue.obj
 0001:0005f060       ?_Get_second@?$_Compressed_pair@V?$allocator@V?$basic_string@DU?$char_traits@D@std@@V?$allocator@D@2@@std@@@std@@V?$_Vector_val@U?$_Simple_types@V?$basic_string@DU?$char_traits@D@std@@V?$allocator@D@2@@std@@@std@@@2@$00@std@@QBEABV?$_Vector_val@U?$_Simple_types@V?$basic_string@DU?$char_traits@D@std@@V?$allocator@D@2@@std@@@std@@@2@XZ 00460060 f i PartCatalogue.obj
 0001:0005f080       ?_Getal@?$_Vector_alloc@U?$_Vec_base_types@PAVSimpleImage@@V?$allocator@PAVSimpleImage@@@std@@@std@@@std@@QAEAAV?$allocator@PAVSimpleImage@@@2@XZ 00460080 f i PartCatalogue.obj
 0001:0005f0a0       ?_Getal@?$_Vector_alloc@U?$_Vec_base_types@PAVSimpleImage@@V?$allocator@PAVSimpleImage@@@std@@@std@@@std@@QBEABV?$allocator@PAVSimpleImage@@@2@XZ 004600a0 f i PartCatalogue.obj
 0001:0005f0c0       ?_Getal@?$_Vector_alloc@U?$_Vec_base_types@V?$basic_string@DU?$char_traits@D@std@@V?$allocator@D@2@@std@@V?$allocator@V?$basic_string@DU?$char_traits@D@std@@V?$allocator@D@2@@std@@@2@@std@@@std@@QAEAAV?$allocator@V?$basic_string@DU?$char_traits@D@std@@V?$allocator@D@2@@std@@@2@XZ 004600c0 f i PartCatalogue.obj
 0001:0005f0e0       ?_Getal@?$_Vector_alloc@U?$_Vec_base_types@V?$basic_string@DU?$char_traits@D@std@@V?$allocator@D@2@@std@@V?$allocator@V?$basic_string@DU?$char_traits@D@std@@V?$allocator@D@2@@std@@@2@@std@@@std@@QBEABV?$allocator@V?$basic_string@DU?$char_traits@D@std@@V?$allocator@D@2@@std@@@2@XZ 004600e0 f i PartCatalogue.obj
 0001:0005f100       ?_Getpfirst@?$_Vector_alloc@U?$_Vec_base_types@PAVSimpleImage@@V?$allocator@PAVSimpleImage@@@std@@@std@@@std@@QBEPAPAU_Iterator_base12@2@XZ 00460100 f i PartCatalogue.obj
 0001:0005f120       ?_Getpfirst@?$_Vector_alloc@U?$_Vec_base_types@V?$basic_string@DU?$char_traits@D@std@@V?$allocator@D@2@@std@@V?$allocator@V?$basic_string@DU?$char_traits@D@std@@V?$allocator@D@2@@std@@@2@@std@@@std@@QBEPAPAU_Iterator_base12@2@XZ 00460120 f i PartCatalogue.obj
 0001:0005f140       ?_Has_unused_capacity@?$vector@PAVSimpleImage@@V?$allocator@PAVSimpleImage@@@std@@@std@@ABE_NXZ 00460140 f i PartCatalogue.obj
 0001:0005f190       ?_Has_unused_capacity@?$vector@V?$basic_string@DU?$char_traits@D@std@@V?$allocator@D@2@@std@@V?$allocator@V?$basic_string@DU?$char_traits@D@std@@V?$allocator@D@2@@std@@@2@@std@@ABE_NXZ 00460190 f i PartCatalogue.obj
 0001:0005f1e0       ?_Myend@?$_Vector_alloc@U?$_Vec_base_types@PAVSimpleImage@@V?$allocator@PAVSimpleImage@@@std@@@std@@@std@@QAEAAPAPAVSimpleImage@@XZ 004601e0 f i PartCatalogue.obj
 0001:0005f200       ?_Myend@?$_Vector_alloc@U?$_Vec_base_types@PAVSimpleImage@@V?$allocator@PAVSimpleImage@@@std@@@std@@@std@@QBEABQAPAVSimpleImage@@XZ 00460200 f i PartCatalogue.obj
 0001:0005f220       ?_Myend@?$_Vector_alloc@U?$_Vec_base_types@V?$basic_string@DU?$char_traits@D@std@@V?$allocator@D@2@@std@@V?$allocator@V?$basic_string@DU?$char_traits@D@std@@V?$allocator@D@2@@std@@@2@@std@@@std@@QAEAAPAV?$basic_string@DU?$char_traits@D@std@@V?$allocator@D@2@@2@XZ 00460220 f i PartCatalogue.obj
 0001:0005f240       ?_Myend@?$_Vector_alloc@U?$_Vec_base_types@V?$basic_string@DU?$char_traits@D@std@@V?$allocator@D@2@@std@@V?$allocator@V?$basic_string@DU?$char_traits@D@std@@V?$allocator@D@2@@std@@@2@@std@@@std@@QBEABQAV?$basic_string@DU?$char_traits@D@std@@V?$allocator@D@2@@2@XZ 00460240 f i PartCatalogue.obj
 0001:0005f260       ?_Myfirst@?$_Vector_alloc@U?$_Vec_base_types@PAVSimpleImage@@V?$allocator@PAVSimpleImage@@@std@@@std@@@std@@QAEAAPAPAVSimpleImage@@XZ 00460260 f i PartCatalogue.obj
 0001:0005f280       ?_Myfirst@?$_Vector_alloc@U?$_Vec_base_types@PAVSimpleImage@@V?$allocator@PAVSimpleImage@@@std@@@std@@@std@@QBEABQAPAVSimpleImage@@XZ 00460280 f i PartCatalogue.obj
 0001:0005f2a0       ?_Myfirst@?$_Vector_alloc@U?$_Vec_base_types@V?$basic_string@DU?$char_traits@D@std@@V?$allocator@D@2@@std@@V?$allocator@V?$basic_string@DU?$char_traits@D@std@@V?$allocator@D@2@@std@@@2@@std@@@std@@QAEAAPAV?$basic_string@DU?$char_traits@D@std@@V?$allocator@D@2@@2@XZ 004602a0 f i PartCatalogue.obj
 0001:0005f2c0       ?_Myfirst@?$_Vector_alloc@U?$_Vec_base_types@V?$basic_string@DU?$char_traits@D@std@@V?$allocator@D@2@@std@@V?$allocator@V?$basic_string@DU?$char_traits@D@std@@V?$allocator@D@2@@std@@@2@@std@@@std@@QBEABQAV?$basic_string@DU?$char_traits@D@std@@V?$allocator@D@2@@2@XZ 004602c0 f i PartCatalogue.obj
 0001:0005f2e0       ?_Mylast@?$_Vector_alloc@U?$_Vec_base_types@PAVSimpleImage@@V?$allocator@PAVSimpleImage@@@std@@@std@@@std@@QAEAAPAPAVSimpleImage@@XZ 004602e0 f i PartCatalogue.obj
 0001:0005f300       ?_Mylast@?$_Vector_alloc@U?$_Vec_base_types@PAVSimpleImage@@V?$allocator@PAVSimpleImage@@@std@@@std@@@std@@QBEABQAPAVSimpleImage@@XZ 00460300 f i PartCatalogue.obj
