 CourseworkBase2020

 Timestamp is 5ec28ad0 (Mon May 18 14:17:04 2020)

 Preferred load address is 00400000

 Start         Length     Name                   Class
 0001:00000000 00000e00H .text$di                CODE
 0001:00000e00 0004f050H .text$mn                CODE
 0001:0004fe50 00003c10H .text$x                 CODE
 0001:00053a60 0000020fH .text$yd                CODE
 0002:00000000 000002e0H .idata$5                DATA
 0002:000002e0 00000004H .00cfg                  DATA
 0002:000002e4 00000004H .CRT$XCA                DATA
 0002:000002e8 00000004H .CRT$XCAA               DATA
 0002:000002ec 000000e4H .CRT$XCU                DATA
 0002:000003d0 00000004H .CRT$XCZ                DATA
 0002:000003d4 00000004H .CRT$XIA                DATA
 0002:000003d8 00000004H .CRT$XIAA               DATA
 0002:000003dc 00000004H .CRT$XIAC               DATA
 0002:000003e0 00000004H .CRT$XIC                DATA
 0002:000003e4 00000004H .CRT$XIZ                DATA
 0002:000003e8 00000004H .CRT$XLA                DATA
 0002:000003ec 00000004H .CRT$XLZ                DATA
 0002:000003f0 00000004H .CRT$XPA                DATA
 0002:000003f4 00000004H .CRT$XPZ                DATA
 0002:000003f8 00000004H .CRT$XTA                DATA
 0002:000003fc 00000004H .CRT$XTZ                DATA
 0002:00000400 00000000H .gfids$y                DATA
 0002:00000400 00008798H .rdata                  DATA
 0002:00008b98 00000018H .rdata$T                DATA
 0002:00008bb0 00001100H .rdata$r                DATA
 0002:00009cb0 000004c8H .rdata$sxdata           DATA
 0002:0000a178 000003b8H .rdata$zzzdbg           DATA
 0002:0000a530 00000004H .rtc$IAA                DATA
 0002:0000a534 00000004H .rtc$IZZ                DATA
 0002:0000a538 00000004H .rtc$TAA                DATA
 0002:0000a53c 00000004H .rtc$TZZ                DATA
 0002:0000a540 00000004H .tls                    DATA
 0002:0000a544 00000004H .tls$                   DATA
 0002:0000a548 00000008H .tls$ZZZ                DATA
 0002:0000a550 00004194H .xdata$x                DATA
 0002:0000e6e4 00000000H .edata                  DATA
 0002:0000e6e4 0000008cH .idata$2                DATA
 0002:0000e770 00000014H .idata$3                DATA
 0002:0000e784 000002e0H .idata$4                DATA
 0002:0000ea64 00000f9aH .idata$6                DATA
 0003:00000000 000008f0H .data                   DATA
 0003:000008f0 00000940H .data$r                 DATA
 0003:00001230 00000b1cH .bss                    DATA
 0004:00000000 00000060H .rsrc$01                DATA
 0004:00000060 00000180H .rsrc$02                DATA

  Address         Publics by Value              Rva+Base       Lib:Object

 0000:00000000       ___guard_longjmp_count     00000000     <absolute>
 0000:00000000       ___guard_iat_table         00000000     <absolute>
 0000:00000000       ___guard_iat_count         00000000     <absolute>
 0000:00000000       ___volatile_metadata       00000000     <absolute>
 0000:00000000       ___guard_fids_count        00000000     <absolute>
 0000:00000000       ___enclave_config          00000000     <absolute>
 0000:00000000       ___hybrid_code_map_count   00000000     <absolute>
 0000:00000000       ___dynamic_value_reloc_table 00000000     <absolute>
 0000:00000000       ___guard_longjmp_table     00000000     <absolute>
 0000:00000000       ___hybrid_auxiliary_iat    00000000     <absolute>
 0000:00000000       ___guard_fids_table        00000000     <absolute>
 0000:00000000       ___hybrid_code_map         00000000     <absolute>
 0000:0000002c       __tls_array                0000002c     <absolute>
 0000:00000100       ___guard_flags             00000100     <absolute>
 0000:00000132       ___safe_se_handler_count   00000132     <absolute>
 0000:00000000       ___ImageBase               00400000     <linker-defined>
 0001:00000e00       ??0BuilderUI@@QAE@PAVKSP2D@@@Z 00401e00 f   BuilderUI.obj
 0001:000010a0       ??1BuilderUI@@QAE@XZ       004020a0 f   BuilderUI.obj
 0001:000011a0       ?draw@BuilderUI@@QAEXH@Z   004021a0 f   BuilderUI.obj
 0001:00001230       ?addObjectsToEngine@BuilderUI@@QAEXXZ 00402230 f   BuilderUI.obj
 0001:000012d0       ?update@BuilderUI@@QAEXH@Z 004022d0 f   BuilderUI.obj
 0001:000012e0       ?setVisible@BuilderUI@@QAEX_N@Z 004022e0 f   BuilderUI.obj
 0001:00001340       ?makeShip@BuilderUI@@QAEPAVSpacecraft@@PAVKSP2D@@ABVVec2D@@1OPAV4@@Z 00402340 f   BuilderUI.obj
 0001:00001380       ??$?0$$V@?$_Compressed_pair@V?$allocator@D@std@@V?$_String_val@U?$_Simple_types@D@std@@@2@$00@std@@QAE@U_Zero_then_variadic_args_t@1@@Z 00402380 f i BuilderUI.obj
 0001:000013a0       ??$?0$$V@?$_Compressed_pair@V?$allocator@PAVSimpleImage@@@std@@V?$_Vector_val@U?$_Simple_types@PAVSimpleImage@@@std@@@2@$00@std@@QAE@U_Zero_then_variadic_args_t@1@@Z 004023a0 f i BuilderUI.obj
 0001:000013c0       ??$?0$$V@?$_Compressed_pair@V?$allocator@U?$_Tree_node@U?$pair@$$CBV?$basic_string@DU?$char_traits@D@std@@V?$allocator@D@2@@std@@V?$shared_ptr@UPartData@@@2@@std@@PAX@std@@@std@@V?$_Tree_val@U?$_Tree_simple_types@U?$pair@$$CBV?$basic_string@DU?$char_traits@D@std@@V?$allocator@D@2@@std@@V?$shared_ptr@UPartData@@@2@@std@@@std@@@2@$00@std@@QAE@U_Zero_then_variadic_args_t@1@@Z 004023c0 f i BuilderUI.obj
 0001:000013e0       ??$?0$$V@?$_Compressed_pair@V?$allocator@U?$_Tree_node@U?$pair@$$CBV?$basic_string@DU?$char_traits@D@std@@V?$allocator@D@2@@std@@V?$shared_ptr@VRawImageData@@@2@@std@@PAX@std@@@std@@V?$_Tree_val@U?$_Tree_simple_types@U?$pair@$$CBV?$basic_string@DU?$char_traits@D@std@@V?$allocator@D@2@@std@@V?$shared_ptr@VRawImageData@@@2@@std@@@std@@@2@$00@std@@QAE@U_Zero_then_variadic_args_t@1@@Z 004023e0 f i BuilderUI.obj
 0001:00001400       ??$?0$$V@?$_Compressed_pair@V?$allocator@U?$_Tree_node@U?$pair@$$CBV?$basic_string@DU?$char_traits@D@std@@V?$allocator@D@2@@std@@V?$weak_ptr@USpriteData@@@2@@std@@PAX@std@@@std@@V?$_Tree_val@U?$_Tree_simple_types@U?$pair@$$CBV?$basic_string@DU?$char_traits@D@std@@V?$allocator@D@2@@std@@V?$weak_ptr@USpriteData@@@2@@std@@@std@@@2@$00@std@@QAE@U_Zero_then_variadic_args_t@1@@Z 00402400 f i BuilderUI.obj
 0001:00001420       ??$?0$$V@?$_Compressed_pair@V?$allocator@U?$_Tree_node@U?$pair@$$CBV?$basic_string@DU?$char_traits@D@std@@V?$allocator@D@2@@std@@V?$weak_ptr@VRawImageData@@@2@@std@@PAX@std@@@std@@V?$_Tree_val@U?$_Tree_simple_types@U?$pair@$$CBV?$basic_string@DU?$char_traits@D@std@@V?$allocator@D@2@@std@@V?$weak_ptr@VRawImageData@@@2@@std@@@std@@@2@$00@std@@QAE@U_Zero_then_variadic_args_t@1@@Z 00402420 f i BuilderUI.obj
 0001:00001440       ??$?0$$V@?$_Compressed_pair@V?$allocator@V?$basic_string@DU?$char_traits@D@std@@V?$allocator@D@2@@std@@@std@@V?$_Vector_val@U?$_Simple_types@V?$basic_string@DU?$char_traits@D@std@@V?$allocator@D@2@@std@@@std@@@2@$00@std@@QAE@U_Zero_then_variadic_args_t@1@@Z 00402440 f i BuilderUI.obj
 0001:00001460       ??$?0AAV?$_Tree_iterator@V?$_Tree_val@U?$_Tree_simple_types@U?$pair@$$CBV?$basic_string@DU?$char_traits@D@std@@V?$allocator@D@2@@std@@V?$shared_ptr@VRawImageData@@@2@@std@@@std@@@std@@@std@@_N$0A@@?$pair@V?$_Tree_iterator@V?$_Tree_val@U?$_Tree_simple_types@U?$pair@$$CBV?$basic_string@DU?$char_traits@D@std@@V?$allocator@D@2@@std@@V?$shared_ptr@VRawImageData@@@2@@std@@@std@@@std@@@std@@_N@std@@QAE@AAV?$_Tree_iterator@V?$_Tree_val@U?$_Tree_simple_types@U?$pair@$$CBV?$basic_string@DU?$char_traits@D@std@@V?$allocator@D@2@@std@@V?$shared_ptr@VRawImageData@@@2@@std@@@std@@@std@@@1@$$QA_N@Z 00402460 f i BuilderUI.obj
 0001:000014a0       ??$?0AAV?$_Tree_iterator@V?$_Tree_val@U?$_Tree_simple_types@U?$pair@$$CBV?$basic_string@DU?$char_traits@D@std@@V?$allocator@D@2@@std@@V?$weak_ptr@USpriteData@@@2@@std@@@std@@@std@@@std@@_N$0A@@?$pair@V?$_Tree_iterator@V?$_Tree_val@U?$_Tree_simple_types@U?$pair@$$CBV?$basic_string@DU?$char_traits@D@std@@V?$allocator@D@2@@std@@V?$weak_ptr@USpriteData@@@2@@std@@@std@@@std@@@std@@_N@std@@QAE@AAV?$_Tree_iterator@V?$_Tree_val@U?$_Tree_simple_types@U?$pair@$$CBV?$basic_string@DU?$char_traits@D@std@@V?$allocator@D@2@@std@@V?$weak_ptr@USpriteData@@@2@@std@@@std@@@std@@@1@$$QA_N@Z 004024a0 f i BuilderUI.obj
 0001:000014e0       ??$?0AAV?$_Tree_iterator@V?$_Tree_val@U?$_Tree_simple_types@U?$pair@$$CBV?$basic_string@DU?$char_traits@D@std@@V?$allocator@D@2@@std@@V?$weak_ptr@VRawImageData@@@2@@std@@@std@@@std@@@std@@_N$0A@@?$pair@V?$_Tree_iterator@V?$_Tree_val@U?$_Tree_simple_types@U?$pair@$$CBV?$basic_string@DU?$char_traits@D@std@@V?$allocator@D@2@@std@@V?$weak_ptr@VRawImageData@@@2@@std@@@std@@@std@@@std@@_N@std@@QAE@AAV?$_Tree_iterator@V?$_Tree_val@U?$_Tree_simple_types@U?$pair@$$CBV?$basic_string@DU?$char_traits@D@std@@V?$allocator@D@2@@std@@V?$weak_ptr@VRawImageData@@@2@@std@@@std@@@std@@@1@$$QA_N@Z 004024e0 f i BuilderUI.obj
 0001:00001520       ??$?0AAV?$basic_string@DU?$char_traits@D@std@@V?$allocator@D@2@@std@@AAV?$shared_ptr@VRawImageData@@@1@$0A@@?$pair@V?$basic_string@DU?$char_traits@D@std@@V?$allocator@D@2@@std@@V?$shared_ptr@VRawImageData@@@2@@std@@QAE@AAV?$basic_string@DU?$char_traits@D@std@@V?$allocator@D@2@@1@AAV?$shared_ptr@VRawImageData@@@1@@Z 00402520 f i BuilderUI.obj
 0001:00001560       ??$?0AAV?$basic_string@DU?$char_traits@D@std@@V?$allocator@D@2@@std@@AAV?$weak_ptr@USpriteData@@@1@$0A@@?$pair@V?$basic_string@DU?$char_traits@D@std@@V?$allocator@D@2@@std@@V?$weak_ptr@USpriteData@@@2@@std@@QAE@AAV?$basic_string@DU?$char_traits@D@std@@V?$allocator@D@2@@1@AAV?$weak_ptr@USpriteData@@@1@@Z 00402560 f i BuilderUI.obj
 0001:000015a0       ??$?0AAV?$basic_string@DU?$char_traits@D@std@@V?$allocator@D@2@@std@@AAV?$weak_ptr@VRawImageData@@@1@$0A@@?$pair@V?$basic_string@DU?$char_traits@D@std@@V?$allocator@D@2@@std@@V?$weak_ptr@VRawImageData@@@2@@std@@QAE@AAV?$basic_string@DU?$char_traits@D@std@@V?$allocator@D@2@@1@AAV?$weak_ptr@VRawImageData@@@1@@Z 004025a0 f i BuilderUI.obj
 0001:000015e0       ??$?0ABU?$less@V?$basic_string@DU?$char_traits@D@std@@V?$allocator@D@2@@std@@@std@@U_Zero_then_variadic_args_t@1@@?$_Compressed_pair@U?$less@V?$basic_string@DU?$char_traits@D@std@@V?$allocator@D@2@@std@@@std@@V?$_Compressed_pair@V?$allocator@U?$_Tree_node@U?$pair@$$CBV?$basic_string@DU?$char_traits@D@std@@V?$allocator@D@2@@std@@V?$shared_ptr@UPartData@@@2@@std@@PAX@std@@@std@@V?$_Tree_val@U?$_Tree_simple_types@U?$pair@$$CBV?$basic_string@DU?$char_traits@D@std@@V?$allocator@D@2@@std@@V?$shared_ptr@UPartData@@@2@@std@@@std@@@2@$00@2@$00@std@@QAE@U_One_then_variadic_args_t@1@ABU?$less@V?$basic_string@DU?$char_traits@D@std@@V?$allocator@D@2@@std@@@1@$$QAU_Zero_then_variadic_args_t@1@@Z 004025e0 f i BuilderUI.obj
 0001:00001620       ??$?0ABU?$less@V?$basic_string@DU?$char_traits@D@std@@V?$allocator@D@2@@std@@@std@@U_Zero_then_variadic_args_t@1@@?$_Compressed_pair@U?$less@V?$basic_string@DU?$char_traits@D@std@@V?$allocator@D@2@@std@@@std@@V?$_Compressed_pair@V?$allocator@U?$_Tree_node@U?$pair@$$CBV?$basic_string@DU?$char_traits@D@std@@V?$allocator@D@2@@std@@V?$shared_ptr@VRawImageData@@@2@@std@@PAX@std@@@std@@V?$_Tree_val@U?$_Tree_simple_types@U?$pair@$$CBV?$basic_string@DU?$char_traits@D@std@@V?$allocator@D@2@@std@@V?$shared_ptr@VRawImageData@@@2@@std@@@std@@@2@$00@2@$00@std@@QAE@U_One_then_variadic_args_t@1@ABU?$less@V?$basic_string@DU?$char_traits@D@std@@V?$allocator@D@2@@std@@@1@$$QAU_Zero_then_variadic_args_t@1@@Z 00402620 f i BuilderUI.obj
 0001:00001660       ??$?0ABU?$less@V?$basic_string@DU?$char_traits@D@std@@V?$allocator@D@2@@std@@@std@@U_Zero_then_variadic_args_t@1@@?$_Compressed_pair@U?$less@V?$basic_string@DU?$char_traits@D@std@@V?$allocator@D@2@@std@@@std@@V?$_Compressed_pair@V?$allocator@U?$_Tree_node@U?$pair@$$CBV?$basic_string@DU?$char_traits@D@std@@V?$allocator@D@2@@std@@V?$weak_ptr@USpriteData@@@2@@std@@PAX@std@@@std@@V?$_Tree_val@U?$_Tree_simple_types@U?$pair@$$CBV?$basic_string@DU?$char_traits@D@std@@V?$allocator@D@2@@std@@V?$weak_ptr@USpriteData@@@2@@std@@@std@@@2@$00@2@$00@std@@QAE@U_One_then_variadic_args_t@1@ABU?$less@V?$basic_string@DU?$char_traits@D@std@@V?$allocator@D@2@@std@@@1@$$QAU_Zero_then_variadic_args_t@1@@Z 00402660 f i BuilderUI.obj
 0001:000016a0       ??$?0ABU?$less@V?$basic_string@DU?$char_traits@D@std@@V?$allocator@D@2@@std@@@std@@U_Zero_then_variadic_args_t@1@@?$_Compressed_pair@U?$less@V?$basic_string@DU?$char_traits@D@std@@V?$allocator@D@2@@std@@@std@@V?$_Compressed_pair@V?$allocator@U?$_Tree_node@U?$pair@$$CBV?$basic_string@DU?$char_traits@D@std@@V?$allocator@D@2@@std@@V?$weak_ptr@VRawImageData@@@2@@std@@PAX@std@@@std@@V?$_Tree_val@U?$_Tree_simple_types@U?$pair@$$CBV?$basic_string@DU?$char_traits@D@std@@V?$allocator@D@2@@std@@V?$weak_ptr@VRawImageData@@@2@@std@@@std@@@2@$00@2@$00@std@@QAE@U_One_then_variadic_args_t@1@ABU?$less@V?$basic_string@DU?$char_traits@D@std@@V?$allocator@D@2@@std@@@1@$$QAU_Zero_then_variadic_args_t@1@@Z 004026a0 f i BuilderUI.obj
 0001:000017a0       ??$?0ABV?$allocator@D@std@@$$V@?$_Compressed_pair@V?$allocator@D@std@@V?$_String_val@U?$_Simple_types@D@std@@@2@$00@std@@QAE@U_One_then_variadic_args_t@1@ABV?$allocator@D@1@@Z 004027a0 f i BuilderUI.obj
 0001:000017d0       ??$?0ABV?$allocator@D@std@@X@?$_String_alloc@U?$_String_base_types@DV?$allocator@D@std@@@std@@@std@@QAE@ABV?$allocator@D@1@@Z 004027d0 f i BuilderUI.obj
 0001:00001840       ??$?0D@?$allocator@U_Container_proxy@std@@@std@@QAE@ABV?$allocator@D@1@@Z 00402840 f i BuilderUI.obj
 0001:00001850       ??$?0PADX@?$basic_string@DU?$char_traits@D@std@@V?$allocator@D@2@@std@@QAE@PAD0ABV?$allocator@D@1@@Z 00402850 f i BuilderUI.obj
 0001:000018f0       ??$?0PAVRocketPart@@@?$allocator@U_Container_proxy@std@@@std@@QAE@ABV?$allocator@PAVRocketPart@@@1@@Z 004028f0 f i BuilderUI.obj
 0001:00001900       ??$?0PAVSimpleImage@@@?$allocator@U_Container_proxy@std@@@std@@QAE@ABV?$allocator@PAVSimpleImage@@@1@@Z 00402900 f i BuilderUI.obj
 0001:00001910       ??$?0U?$_Tree_node@U?$pair@$$CBV?$basic_string@DU?$char_traits@D@std@@V?$allocator@D@2@@std@@V?$shared_ptr@UPartData@@@2@@std@@PAX@std@@@?$allocator@U_Container_proxy@std@@@std@@QAE@ABV?$allocator@U?$_Tree_node@U?$pair@$$CBV?$basic_string@DU?$char_traits@D@std@@V?$allocator@D@2@@std@@V?$shared_ptr@UPartData@@@2@@std@@PAX@std@@@1@@Z 00402910 f i BuilderUI.obj
 0001:00001920       ??$?0U?$_Tree_node@U?$pair@$$CBV?$basic_string@DU?$char_traits@D@std@@V?$allocator@D@2@@std@@V?$shared_ptr@VRawImageData@@@2@@std@@PAX@std@@@?$allocator@U_Container_proxy@std@@@std@@QAE@ABV?$allocator@U?$_Tree_node@U?$pair@$$CBV?$basic_string@DU?$char_traits@D@std@@V?$allocator@D@2@@std@@V?$shared_ptr@VRawImageData@@@2@@std@@PAX@std@@@1@@Z 00402920 f i BuilderUI.obj
 0001:00001930       ??$?0U?$_Tree_node@U?$pair@$$CBV?$basic_string@DU?$char_traits@D@std@@V?$allocator@D@2@@std@@V?$weak_ptr@USpriteData@@@2@@std@@PAX@std@@@?$allocator@U_Container_proxy@std@@@std@@QAE@ABV?$allocator@U?$_Tree_node@U?$pair@$$CBV?$basic_string@DU?$char_traits@D@std@@V?$allocator@D@2@@std@@V?$weak_ptr@USpriteData@@@2@@std@@PAX@std@@@1@@Z 00402930 f i BuilderUI.obj
 0001:00001940       ??$?0U?$_Tree_node@U?$pair@$$CBV?$basic_string@DU?$char_traits@D@std@@V?$allocator@D@2@@std@@V?$weak_ptr@VRawImageData@@@2@@std@@PAX@std@@@?$allocator@U_Container_proxy@std@@@std@@QAE@ABV?$allocator@U?$_Tree_node@U?$pair@$$CBV?$basic_string@DU?$char_traits@D@std@@V?$allocator@D@2@@std@@V?$weak_ptr@VRawImageData@@@2@@std@@PAX@std@@@1@@Z 00402940 f i BuilderUI.obj
 0001:00001950       ??$?0U?$integral_constant@_N$00@std@@@_Unused_parameter@std@@QAE@$$QAU?$integral_constant@_N$00@1@@Z 00402950 f i BuilderUI.obj
 0001:00001960       ??$?0USpriteData@@$0A@@?$shared_ptr@USpriteData@@@std@@QAE@PAUSpriteData@@@Z 00402960 f i BuilderUI.obj
 0001:00001990       ??$?0USpriteData@@$0A@@?$weak_ptr@USpriteData@@@std@@QAE@ABV?$shared_ptr@USpriteData@@@1@@Z 00402990 f i BuilderUI.obj
 0001:00001bf0       ??$?0V?$_Tree_iterator@V?$_Tree_val@U?$_Tree_simple_types@U?$pair@$$CBV?$basic_string@DU?$char_traits@D@std@@V?$allocator@D@2@@std@@V?$shared_ptr@VRawImageData@@@2@@std@@@std@@@std@@@std@@_N$0A@@?$pair@V?$_Tree_iterator@V?$_Tree_val@U?$_Tree_simple_types@U?$pair@$$CBV?$basic_string@DU?$char_traits@D@std@@V?$allocator@D@2@@std@@V?$shared_ptr@VRawImageData@@@2@@std@@@std@@@std@@@std@@_N@std@@QAE@$$QAV?$_Tree_iterator@V?$_Tree_val@U?$_Tree_simple_types@U?$pair@$$CBV?$basic_string@DU?$char_traits@D@std@@V?$allocator@D@2@@std@@V?$shared_ptr@VRawImageData@@@2@@std@@@std@@@std@@@1@$$QA_N@Z 00402bf0 f i BuilderUI.obj
 0001:00001c30       ??$?0V?$_Tree_iterator@V?$_Tree_val@U?$_Tree_simple_types@U?$pair@$$CBV?$basic_string@DU?$char_traits@D@std@@V?$allocator@D@2@@std@@V?$weak_ptr@USpriteData@@@2@@std@@@std@@@std@@@std@@_N$0A@@?$pair@V?$_Tree_iterator@V?$_Tree_val@U?$_Tree_simple_types@U?$pair@$$CBV?$basic_string@DU?$char_traits@D@std@@V?$allocator@D@2@@std@@V?$weak_ptr@USpriteData@@@2@@std@@@std@@@std@@@std@@_N@std@@QAE@$$QAV?$_Tree_iterator@V?$_Tree_val@U?$_Tree_simple_types@U?$pair@$$CBV?$basic_string@DU?$char_traits@D@std@@V?$allocator@D@2@@std@@V?$weak_ptr@USpriteData@@@2@@std@@@std@@@std@@@1@$$QA_N@Z 00402c30 f i BuilderUI.obj
 0001:00001c70       ??$?0V?$_Tree_iterator@V?$_Tree_val@U?$_Tree_simple_types@U?$pair@$$CBV?$basic_string@DU?$char_traits@D@std@@V?$allocator@D@2@@std@@V?$weak_ptr@VRawImageData@@@2@@std@@@std@@@std@@@std@@_N$0A@@?$pair@V?$_Tree_iterator@V?$_Tree_val@U?$_Tree_simple_types@U?$pair@$$CBV?$basic_string@DU?$char_traits@D@std@@V?$allocator@D@2@@std@@V?$weak_ptr@VRawImageData@@@2@@std@@@std@@@std@@@std@@_N@std@@QAE@$$QAV?$_Tree_iterator@V?$_Tree_val@U?$_Tree_simple_types@U?$pair@$$CBV?$basic_string@DU?$char_traits@D@std@@V?$allocator@D@2@@std@@V?$weak_ptr@VRawImageData@@@2@@std@@@std@@@std@@@1@$$QA_N@Z 00402c70 f i BuilderUI.obj
 0001:00001cb0       ??$?0V?$allocator@D@std@@$$V@?$_Compressed_pair@V?$allocator@D@std@@V?$_String_val@U?$_Simple_types@D@std@@@2@$00@std@@QAE@U_One_then_variadic_args_t@1@$$QAV?$allocator@D@1@@Z 00402cb0 f i BuilderUI.obj
 0001:00001ce0       ??$?0V?$allocator@D@std@@X@?$_String_alloc@U?$_String_base_types@DV?$allocator@D@std@@@std@@@std@@QAE@$$QAV?$allocator@D@1@@Z 00402ce0 f i BuilderUI.obj
 0001:00001d50       ??$?0V?$basic_string@DU?$char_traits@D@std@@V?$allocator@D@2@@std@@@?$allocator@U_Container_proxy@std@@@std@@QAE@ABV?$allocator@V?$basic_string@DU?$char_traits@D@std@@V?$allocator@D@2@@std@@@1@@Z 00402d50 f i BuilderUI.obj
 0001:00001d60       ??$?0V?$basic_string@DU?$char_traits@D@std@@V?$allocator@D@2@@std@@V?$shared_ptr@VRawImageData@@@1@$0A@@?$pair@$$CBV?$basic_string@DU?$char_traits@D@std@@V?$allocator@D@2@@std@@V?$shared_ptr@VRawImageData@@@2@@std@@QAE@$$QAU?$pair@V?$basic_string@DU?$char_traits@D@std@@V?$allocator@D@2@@std@@V?$shared_ptr@VRawImageData@@@2@@1@@Z 00402d60 f i BuilderUI.obj
 0001:00001da0       ??$?0V?$basic_string@DU?$char_traits@D@std@@V?$allocator@D@2@@std@@V?$weak_ptr@USpriteData@@@1@$0A@@?$pair@$$CBV?$basic_string@DU?$char_traits@D@std@@V?$allocator@D@2@@std@@V?$weak_ptr@USpriteData@@@2@@std@@QAE@$$QAU?$pair@V?$basic_string@DU?$char_traits@D@std@@V?$allocator@D@2@@std@@V?$weak_ptr@USpriteData@@@2@@1@@Z 00402da0 f i BuilderUI.obj
 0001:00001de0       ??$?0V?$basic_string@DU?$char_traits@D@std@@V?$allocator@D@2@@std@@V?$weak_ptr@VRawImageData@@@1@$0A@@?$pair@$$CBV?$basic_string@DU?$char_traits@D@std@@V?$allocator@D@2@@std@@V?$weak_ptr@VRawImageData@@@2@@std@@QAE@$$QAU?$pair@V?$basic_string@DU?$char_traits@D@std@@V?$allocator@D@2@@std@@V?$weak_ptr@VRawImageData@@@2@@1@@Z 00402de0 f i BuilderUI.obj
 0001:00001e20       ??$?0VRawImageData@@$0A@@?$shared_ptr@VRawImageData@@@std@@QAE@PAVRawImageData@@@Z 00402e20 f i BuilderUI.obj
 0001:00001e50       ??$?0VRawImageData@@$0A@@?$weak_ptr@VRawImageData@@@std@@QAE@ABV?$shared_ptr@VRawImageData@@@1@@Z 00402e50 f i BuilderUI.obj
 0001:00001ea0       ??$?0_N@?$GenericValue@U?$UTF8@D@rapidjson@@V?$MemoryPoolAllocator@VCrtAllocator@rapidjson@@@2@@rapidjson@@QAE@_NPAX@Z 00402ea0 f i BuilderUI.obj
 0001:00001ef0       ??$?6DU?$char_traits@D@std@@V?$allocator@D@1@@std@@YAAAV?$basic_ostream@DU?$char_traits@D@std@@@0@AAV10@ABV?$basic_string@DU?$char_traits@D@std@@V?$allocator@D@2@@0@@Z 00402ef0 f i BuilderUI.obj
 0001:00001f20       ??$?6U?$char_traits@D@std@@@std@@YAAAV?$basic_ostream@DU?$char_traits@D@std@@@0@AAV10@PBD@Z 00402f20 f i BuilderUI.obj
 0001:00002250       ??$?8DU?$char_traits@D@std@@V?$allocator@D@1@@std@@YA_NABV?$basic_string@DU?$char_traits@D@std@@V?$allocator@D@2@@0@0@Z 00403250 f i BuilderUI.obj
 0001:00002270       ??$?9DU?$char_traits@D@std@@V?$allocator@D@1@@std@@YA_NABV?$basic_string@DU?$char_traits@D@std@@V?$allocator@D@2@@0@0@Z 00403270 f i BuilderUI.obj
 0001:000022b0       ??$?9VRawImageData@@@std@@YA_NABV?$shared_ptr@VRawImageData@@@0@$$T@Z 004032b0 f i BuilderUI.obj
 0001:000022e0       ??$?A$$CBD@?$GenericValue@U?$UTF8@D@rapidjson@@V?$MemoryPoolAllocator@VCrtAllocator@rapidjson@@@2@@rapidjson@@QAEAAV01@PBD@Z 004032e0 f i BuilderUI.obj
 0001:00002370       ??$?AV?$MemoryPoolAllocator@VCrtAllocator@rapidjson@@@rapidjson@@@?$GenericValue@U?$UTF8@D@rapidjson@@V?$MemoryPoolAllocator@VCrtAllocator@rapidjson@@@2@@rapidjson@@QAEAAV01@ABV01@@Z 00403370 f i BuilderUI.obj
 0001:00002400       ??$?CUPartData@@$0A@@?$shared_ptr@UPartData@@@std@@QBEPAUPartData@@XZ 00403400 f i BuilderUI.obj
 0001:00002420       ??$?CUSpriteData@@$0A@@?$shared_ptr@USpriteData@@@std@@QBEPAUSpriteData@@XZ 00403420 f i BuilderUI.obj
 0001:00002440       ??$?CVRawImageData@@$0A@@?$shared_ptr@VRawImageData@@@std@@QBEPAVRawImageData@@XZ 00403440 f i BuilderUI.obj
 0001:00002460       ??$?HDU?$char_traits@D@std@@V?$allocator@D@1@@std@@YA?AV?$basic_string@DU?$char_traits@D@std@@V?$allocator@D@2@@0@$$QAV10@0@Z 00403460 f i BuilderUI.obj
 0001:00002510       ??$?HDU?$char_traits@D@std@@V?$allocator@D@1@@std@@YA?AV?$basic_string@DU?$char_traits@D@std@@V?$allocator@D@2@@0@$$QAV10@ABV10@@Z 00403510 f i BuilderUI.obj
 0001:00002550       ??$?MDU?$char_traits@D@std@@V?$allocator@D@1@@std@@YA_NABV?$basic_string@DU?$char_traits@D@std@@V?$allocator@D@2@@0@0@Z 00403550 f i BuilderUI.obj
 0001:00002580       ??$Consume@V?$NumberStream@VFileReadStream@rapidjson@@$0A@$0A@@?$GenericReader@U?$UTF8@D@rapidjson@@U12@VCrtAllocator@2@@rapidjson@@@?$GenericReader@U?$UTF8@D@rapidjson@@U12@VCrtAllocator@2@@rapidjson@@CA_NAAV?$NumberStream@VFileReadStream@rapidjson@@$0A@$0A@@01@D@Z 00403580 f i BuilderUI.obj
 0001:000025b0       ??$Consume@VFileReadStream@rapidjson@@@?$GenericReader@U?$UTF8@D@rapidjson@@U12@VCrtAllocator@2@@rapidjson@@CA_NAAVFileReadStream@1@D@Z 004035b0 f i BuilderUI.obj
 0001:000025e0       ??$Encode@V?$StackStream@D@?$GenericReader@U?$UTF8@D@rapidjson@@U12@VCrtAllocator@2@@rapidjson@@@?$UTF8@D@rapidjson@@SAXAAV?$StackStream@D@?$GenericReader@U?$UTF8@D@rapidjson@@U12@VCrtAllocator@2@@1@I@Z 004035e0 f i BuilderUI.obj
 0001:00002710       ??$Encode@VFileReadStream@rapidjson@@@?$UTF8@D@rapidjson@@SAXAAVFileReadStream@1@I@Z 00403710 f i BuilderUI.obj
 0001:00002840       ??$Expand@D@?$Stack@VCrtAllocator@rapidjson@@@internal@rapidjson@@AAEXI@Z 00403840 f i BuilderUI.obj
 0001:000028e0       ??$Expand@I@?$Stack@VCrtAllocator@rapidjson@@@internal@rapidjson@@AAEXI@Z 004038e0 f i BuilderUI.obj
 0001:00002990       ??$Expand@V?$GenericValue@U?$UTF8@D@rapidjson@@V?$MemoryPoolAllocator@VCrtAllocator@rapidjson@@@2@@rapidjson@@@?$Stack@VCrtAllocator@rapidjson@@@internal@rapidjson@@AAEXI@Z 00403990 f i BuilderUI.obj
 0001:00002a40       ??$FindMember@V?$MemoryPoolAllocator@VCrtAllocator@rapidjson@@@rapidjson@@@?$GenericValue@U?$UTF8@D@rapidjson@@V?$MemoryPoolAllocator@VCrtAllocator@rapidjson@@@2@@rapidjson@@QAE?AV?$GenericMemberIterator@$0A@U?$UTF8@D@rapidjson@@V?$MemoryPoolAllocator@VCrtAllocator@rapidjson@@@2@@1@ABV01@@Z 00403a40 f i BuilderUI.obj
 0001:00002b10       ??$HandleError@VFileReadStream@rapidjson@@@?$GenericReader@U?$UTF8@D@rapidjson@@U12@VCrtAllocator@2@@rapidjson@@AAEXW4IterativeParsingState@01@AAVFileReadStream@1@@Z 00403b10 f i BuilderUI.obj
 0001:00002e30       ??$IterativeParse@$0A@VFileReadStream@rapidjson@@V?$GenericDocument@U?$UTF8@D@rapidjson@@V?$MemoryPoolAllocator@VCrtAllocator@rapidjson@@@2@VCrtAllocator@2@@2@@?$GenericReader@U?$UTF8@D@rapidjson@@U12@VCrtAllocator@2@@rapidjson@@AAE?AUParseResult@1@AAVFileReadStream@1@AAV?$GenericDocument@U?$UTF8@D@rapidjson@@V?$MemoryPoolAllocator@VCrtAllocator@rapidjson@@@2@VCrtAllocator@2@@1@@Z 00403e30 f i BuilderUI.obj
 0001:00002fe0       ??$Min3@H@internal@rapidjson@@YAHHHH@Z 00403fe0 f i BuilderUI.obj
 0001:00003010       ??$Parse@$0A@VFileReadStream@rapidjson@@V?$GenericDocument@U?$UTF8@D@rapidjson@@V?$MemoryPoolAllocator@VCrtAllocator@rapidjson@@@2@VCrtAllocator@2@@2@@?$GenericReader@U?$UTF8@D@rapidjson@@U12@VCrtAllocator@2@@rapidjson@@QAE?AUParseResult@1@AAVFileReadStream@1@AAV?$GenericDocument@U?$UTF8@D@rapidjson@@V?$MemoryPoolAllocator@VCrtAllocator@rapidjson@@@2@VCrtAllocator@2@@1@@Z 00404010 f i BuilderUI.obj
 0001:000032b0       ??$ParseArray@$0A@VFileReadStream@rapidjson@@V?$GenericDocument@U?$UTF8@D@rapidjson@@V?$MemoryPoolAllocator@VCrtAllocator@rapidjson@@@2@VCrtAllocator@2@@2@@?$GenericReader@U?$UTF8@D@rapidjson@@U12@VCrtAllocator@2@@rapidjson@@AAEXAAVFileReadStream@1@AAV?$GenericDocument@U?$UTF8@D@rapidjson@@V?$MemoryPoolAllocator@VCrtAllocator@rapidjson@@@2@VCrtAllocator@2@@1@@Z 004042b0 f i BuilderUI.obj
 0001:00003610       ??$ParseFalse@$0A@VFileReadStream@rapidjson@@V?$GenericDocument@U?$UTF8@D@rapidjson@@V?$MemoryPoolAllocator@VCrtAllocator@rapidjson@@@2@VCrtAllocator@2@@2@@?$GenericReader@U?$UTF8@D@rapidjson@@U12@VCrtAllocator@2@@rapidjson@@AAEXAAVFileReadStream@1@AAV?$GenericDocument@U?$UTF8@D@rapidjson@@V?$MemoryPoolAllocator@VCrtAllocator@rapidjson@@@2@VCrtAllocator@2@@1@@Z 00404610 f i BuilderUI.obj
 0001:00003770       ??$ParseHex4@VFileReadStream@rapidjson@@@?$GenericReader@U?$UTF8@D@rapidjson@@U12@VCrtAllocator@2@@rapidjson@@AAEIAAVFileReadStream@1@I@Z 00404770 f i BuilderUI.obj
 0001:00003880       ??$ParseNull@$0A@VFileReadStream@rapidjson@@V?$GenericDocument@U?$UTF8@D@rapidjson@@V?$MemoryPoolAllocator@VCrtAllocator@rapidjson@@@2@VCrtAllocator@2@@2@@?$GenericReader@U?$UTF8@D@rapidjson@@U12@VCrtAllocator@2@@rapidjson@@AAEXAAVFileReadStream@1@AAV?$GenericDocument@U?$UTF8@D@rapidjson@@V?$MemoryPoolAllocator@VCrtAllocator@rapidjson@@@2@VCrtAllocator@2@@1@@Z 00404880 f i BuilderUI.obj
 0001:000039c0       ??$ParseNumber@$0A@VFileReadStream@rapidjson@@V?$GenericDocument@U?$UTF8@D@rapidjson@@V?$MemoryPoolAllocator@VCrtAllocator@rapidjson@@@2@VCrtAllocator@2@@2@@?$GenericReader@U?$UTF8@D@rapidjson@@U12@VCrtAllocator@2@@rapidjson@@AAEXAAVFileReadStream@1@AAV?$GenericDocument@U?$UTF8@D@rapidjson@@V?$MemoryPoolAllocator@VCrtAllocator@rapidjson@@@2@VCrtAllocator@2@@1@@Z 004049c0 f i BuilderUI.obj
 0001:00004740       ??$ParseObject@$0A@VFileReadStream@rapidjson@@V?$GenericDocument@U?$UTF8@D@rapidjson@@V?$MemoryPoolAllocator@VCrtAllocator@rapidjson@@@2@VCrtAllocator@2@@2@@?$GenericReader@U?$UTF8@D@rapidjson@@U12@VCrtAllocator@2@@rapidjson@@AAEXAAVFileReadStream@1@AAV?$GenericDocument@U?$UTF8@D@rapidjson@@V?$MemoryPoolAllocator@VCrtAllocator@rapidjson@@@2@VCrtAllocator@2@@1@@Z 00405740 f i BuilderUI.obj
 0001:00004bf0       ??$ParseStream@$0A@U?$UTF8@D@rapidjson@@VFileReadStream@2@@?$GenericDocument@U?$UTF8@D@rapidjson@@V?$MemoryPoolAllocator@VCrtAllocator@rapidjson@@@2@VCrtAllocator@2@@rapidjson@@QAEAAV01@AAVFileReadStream@1@@Z 00405bf0 f i BuilderUI.obj
 0001:00004d10       ??$ParseStream@VFileReadStream@rapidjson@@@?$GenericDocument@U?$UTF8@D@rapidjson@@V?$MemoryPoolAllocator@VCrtAllocator@rapidjson@@@2@VCrtAllocator@2@@rapidjson@@QAEAAV01@AAVFileReadStream@1@@Z 00405d10 f i BuilderUI.obj
 0001:00004d30       ??$ParseString@$0A@VFileReadStream@rapidjson@@V?$GenericDocument@U?$UTF8@D@rapidjson@@V?$MemoryPoolAllocator@VCrtAllocator@rapidjson@@@2@VCrtAllocator@2@@2@@?$GenericReader@U?$UTF8@D@rapidjson@@U12@VCrtAllocator@2@@rapidjson@@AAEXAAVFileReadStream@1@AAV?$GenericDocument@U?$UTF8@D@rapidjson@@V?$MemoryPoolAllocator@VCrtAllocator@rapidjson@@@2@VCrtAllocator@2@@1@_N@Z 00405d30 f i BuilderUI.obj
 0001:00004f20       ??$ParseStringToStream@$0A@U?$UTF8@D@rapidjson@@U12@VFileReadStream@2@V32@@?$GenericReader@U?$UTF8@D@rapidjson@@U12@VCrtAllocator@2@@rapidjson@@AAEXAAVFileReadStream@1@0@Z 00405f20 f i BuilderUI.obj
 0001:00005390       ??$ParseStringToStream@$0A@U?$UTF8@D@rapidjson@@U12@VFileReadStream@2@V?$StackStream@D@?$GenericReader@U?$UTF8@D@rapidjson@@U12@VCrtAllocator@2@@2@@?$GenericReader@U?$UTF8@D@rapidjson@@U12@VCrtAllocator@2@@rapidjson@@AAEXAAVFileReadStream@1@AAV?$StackStream@D@01@@Z 00406390 f i BuilderUI.obj
 0001:00005800       ??$ParseTrue@$0A@VFileReadStream@rapidjson@@V?$GenericDocument@U?$UTF8@D@rapidjson@@V?$MemoryPoolAllocator@VCrtAllocator@rapidjson@@@2@VCrtAllocator@2@@2@@?$GenericReader@U?$UTF8@D@rapidjson@@U12@VCrtAllocator@2@@rapidjson@@AAEXAAVFileReadStream@1@AAV?$GenericDocument@U?$UTF8@D@rapidjson@@V?$MemoryPoolAllocator@VCrtAllocator@rapidjson@@@2@VCrtAllocator@2@@1@@Z 00406800 f i BuilderUI.obj
 0001:00005950       ??$ParseValue@$0A@VFileReadStream@rapidjson@@V?$GenericDocument@U?$UTF8@D@rapidjson@@V?$MemoryPoolAllocator@VCrtAllocator@rapidjson@@@2@VCrtAllocator@2@@2@@?$GenericReader@U?$UTF8@D@rapidjson@@U12@VCrtAllocator@2@@rapidjson@@AAEXAAVFileReadStream@1@AAV?$GenericDocument@U?$UTF8@D@rapidjson@@V?$MemoryPoolAllocator@VCrtAllocator@rapidjson@@@2@VCrtAllocator@2@@1@@Z 00406950 f i BuilderUI.obj
 0001:00005a90       ??$Pop@D@?$Stack@VCrtAllocator@rapidjson@@@internal@rapidjson@@QAEPADI@Z 00406a90 f i BuilderUI.obj
 0001:00005ae0       ??$Pop@I@?$Stack@VCrtAllocator@rapidjson@@@internal@rapidjson@@QAEPAII@Z 00406ae0 f i BuilderUI.obj
 0001:00005b40       ??$Pop@V?$GenericMember@U?$UTF8@D@rapidjson@@V?$MemoryPoolAllocator@VCrtAllocator@rapidjson@@@2@@rapidjson@@@?$Stack@VCrtAllocator@rapidjson@@@internal@rapidjson@@QAEPAV?$GenericMember@U?$UTF8@D@rapidjson@@V?$MemoryPoolAllocator@VCrtAllocator@rapidjson@@@2@@2@I@Z 00406b40 f i BuilderUI.obj
 0001:00005ba0       ??$Pop@V?$GenericValue@U?$UTF8@D@rapidjson@@V?$MemoryPoolAllocator@VCrtAllocator@rapidjson@@@2@@rapidjson@@@?$Stack@VCrtAllocator@rapidjson@@@internal@rapidjson@@QAEPAV?$GenericValue@U?$UTF8@D@rapidjson@@V?$MemoryPoolAllocator@VCrtAllocator@rapidjson@@@2@@2@I@Z 00406ba0 f i BuilderUI.obj
 0001:00005c00       ??$Push@D@?$Stack@VCrtAllocator@rapidjson@@@internal@rapidjson@@QAEPADI@Z 00406c00 f i BuilderUI.obj
 0001:00005c30       ??$Push@I@?$Stack@VCrtAllocator@rapidjson@@@internal@rapidjson@@QAEPAII@Z 00406c30 f i BuilderUI.obj
 0001:00005c60       ??$Push@V?$GenericValue@U?$UTF8@D@rapidjson@@V?$MemoryPoolAllocator@VCrtAllocator@rapidjson@@@2@@rapidjson@@@?$Stack@VCrtAllocator@rapidjson@@@internal@rapidjson@@QAEPAV?$GenericValue@U?$UTF8@D@rapidjson@@V?$MemoryPoolAllocator@VCrtAllocator@rapidjson@@@2@@2@I@Z 00406c60 f i BuilderUI.obj
 0001:00005c90       ??$PushUnsafe@D@?$Stack@VCrtAllocator@rapidjson@@@internal@rapidjson@@QAEPADI@Z 00406c90 f i BuilderUI.obj
 0001:00005d10       ??$PushUnsafe@I@?$Stack@VCrtAllocator@rapidjson@@@internal@rapidjson@@QAEPAII@Z 00406d10 f i BuilderUI.obj
 0001:00005d90       ??$PushUnsafe@V?$GenericValue@U?$UTF8@D@rapidjson@@V?$MemoryPoolAllocator@VCrtAllocator@rapidjson@@@2@@rapidjson@@@?$Stack@VCrtAllocator@rapidjson@@@internal@rapidjson@@QAEPAV?$GenericValue@U?$UTF8@D@rapidjson@@V?$MemoryPoolAllocator@VCrtAllocator@rapidjson@@@2@@2@I@Z 00406d90 f i BuilderUI.obj
 0001:00005e10       ??$Reserve@D@?$Stack@VCrtAllocator@rapidjson@@@internal@rapidjson@@QAEXI@Z 00406e10 f i BuilderUI.obj
 0001:00005e40       ??$Reserve@I@?$Stack@VCrtAllocator@rapidjson@@@internal@rapidjson@@QAEXI@Z 00406e40 f i BuilderUI.obj
 0001:00005e70       ??$Reserve@V?$GenericValue@U?$UTF8@D@rapidjson@@V?$MemoryPoolAllocator@VCrtAllocator@rapidjson@@@2@@rapidjson@@@?$Stack@VCrtAllocator@rapidjson@@@internal@rapidjson@@QAEXI@Z 00406e70 f i BuilderUI.obj
 0001:00005ea0       ??$ScanCopyUnescapedString@VFileReadStream@rapidjson@@V12@@?$GenericReader@U?$UTF8@D@rapidjson@@U12@VCrtAllocator@2@@rapidjson@@CAXAAVFileReadStream@1@0@Z 00406ea0 f i BuilderUI.obj
 0001:00005eb0       ??$ScanCopyUnescapedString@VFileReadStream@rapidjson@@V?$StackStream@D@?$GenericReader@U?$UTF8@D@rapidjson@@U12@VCrtAllocator@2@@2@@?$GenericReader@U?$UTF8@D@rapidjson@@U12@VCrtAllocator@2@@rapidjson@@CAXAAVFileReadStream@1@AAV?$StackStream@D@01@@Z 00406eb0 f i BuilderUI.obj
 0001:00005ec0       ??$SkipWhitespace@VFileReadStream@rapidjson@@@rapidjson@@YAXAAVFileReadStream@0@@Z 00406ec0 f i BuilderUI.obj
 0001:00005f20       ??$SkipWhitespaceAndComments@$0A@VFileReadStream@rapidjson@@@?$GenericReader@U?$UTF8@D@rapidjson@@U12@VCrtAllocator@2@@rapidjson@@AAEXAAVFileReadStream@1@@Z 00406f20 f i BuilderUI.obj
 0001:000060d0       ??$StrLen@D@internal@rapidjson@@YAIPBD@Z 004070d0 f i BuilderUI.obj
 0001:000060f0       ??$StringEqual@V?$MemoryPoolAllocator@VCrtAllocator@rapidjson@@@rapidjson@@@?$GenericValue@U?$UTF8@D@rapidjson@@V?$MemoryPoolAllocator@VCrtAllocator@rapidjson@@@2@@rapidjson@@ABE_NABV01@@Z 004070f0 f i BuilderUI.obj
 0001:000061c0       ??$StringRef@D@rapidjson@@YA?AU?$GenericStringRef@D@0@PBD@Z 004071c0 f i BuilderUI.obj
 0001:000061e0       ??$StringRef@D@rapidjson@@YA?AU?$GenericStringRef@D@0@PBDI@Z 004071e0 f i BuilderUI.obj
 0001:00006200       ??$Top@I@?$Stack@VCrtAllocator@rapidjson@@@internal@rapidjson@@QAEPAIXZ 00407200 f i BuilderUI.obj
 0001:00006240       ??$Top@V?$GenericValue@U?$UTF8@D@rapidjson@@V?$MemoryPoolAllocator@VCrtAllocator@rapidjson@@@2@@rapidjson@@@?$Stack@VCrtAllocator@rapidjson@@@internal@rapidjson@@QAEPAV?$GenericValue@U?$UTF8@D@rapidjson@@V?$MemoryPoolAllocator@VCrtAllocator@rapidjson@@@2@@2@XZ 00407240 f i BuilderUI.obj
 0001:00006280       ??$Transcode@U?$GenericStringStream@U?$UTF8@D@rapidjson@@@rapidjson@@V?$StackStream@D@?$GenericReader@U?$UTF8@D@rapidjson@@U12@VCrtAllocator@2@@2@@?$Transcoder@U?$UTF8@D@rapidjson@@U12@@rapidjson@@SA_NAAU?$GenericStringStream@U?$UTF8@D@rapidjson@@@1@AAV?$StackStream@D@?$GenericReader@U?$UTF8@D@rapidjson@@U12@VCrtAllocator@2@@1@@Z 00407280 f i BuilderUI.obj
 0001:000062a0       ??$Transcode@VFileReadStream@rapidjson@@V12@@?$Transcoder@U?$UTF8@D@rapidjson@@U12@@rapidjson@@SA_NAAVFileReadStream@1@0@Z 004072a0 f i BuilderUI.obj
 0001:000062c0       ??$Transcode@VFileReadStream@rapidjson@@V?$StackStream@D@?$GenericReader@U?$UTF8@D@rapidjson@@U12@VCrtAllocator@2@@2@@?$Transcoder@U?$UTF8@D@rapidjson@@U12@@rapidjson@@SA_NAAVFileReadStream@1@AAV?$StackStream@D@?$GenericReader@U?$UTF8@D@rapidjson@@U12@VCrtAllocator@2@@1@@Z 004072c0 f i BuilderUI.obj
 0001:000062e0       ??$Transit@$0A@VFileReadStream@rapidjson@@V?$GenericDocument@U?$UTF8@D@rapidjson@@V?$MemoryPoolAllocator@VCrtAllocator@rapidjson@@@2@VCrtAllocator@2@@2@@?$GenericReader@U?$UTF8@D@rapidjson@@U12@VCrtAllocator@2@@rapidjson@@AAE?AW4IterativeParsingState@01@W4201@W4Token@01@0AAVFileReadStream@1@AAV?$GenericDocument@U?$UTF8@D@rapidjson@@V?$MemoryPoolAllocator@VCrtAllocator@rapidjson@@@2@VCrtAllocator@2@@1@@Z 004072e0 f i BuilderUI.obj
 0001:00006750       ??$Validate@VFileReadStream@rapidjson@@V12@@?$Transcoder@U?$UTF8@D@rapidjson@@U12@@rapidjson@@SA_NAAVFileReadStream@1@0@Z 00407750 f i BuilderUI.obj
 0001:00006770       ??$Validate@VFileReadStream@rapidjson@@V12@@?$UTF8@D@rapidjson@@SA_NAAVFileReadStream@1@0@Z 00407770 f i BuilderUI.obj
 0001:00006cb0       ??$Validate@VFileReadStream@rapidjson@@V?$StackStream@D@?$GenericReader@U?$UTF8@D@rapidjson@@U12@VCrtAllocator@2@@2@@?$Transcoder@U?$UTF8@D@rapidjson@@U12@@rapidjson@@SA_NAAVFileReadStream@1@AAV?$StackStream@D@?$GenericReader@U?$UTF8@D@rapidjson@@U12@VCrtAllocator@2@@1@@Z 00407cb0 f i BuilderUI.obj
 0001:00006cd0       ??$Validate@VFileReadStream@rapidjson@@V?$StackStream@D@?$GenericReader@U?$UTF8@D@rapidjson@@U12@VCrtAllocator@2@@2@@?$UTF8@D@rapidjson@@SA_NAAVFileReadStream@1@AAV?$StackStream@D@?$GenericReader@U?$UTF8@D@rapidjson@@U12@VCrtAllocator@2@@1@@Z 00407cd0 f i BuilderUI.obj
 0001:00007210       ??$_Adl_verify_range1@PADPAD@std@@YAXABQAD0U?$integral_constant@_N$00@0@@Z 00408210 f i BuilderUI.obj
 0001:00007230       ??$_Adl_verify_range1@V?$_Vector_iterator@V?$_Vector_val@U?$_Simple_types@PAVDisplayableObject@@@std@@@std@@@std@@V12@@std@@YAXABV?$_Vector_iterator@V?$_Vector_val@U?$_Simple_types@PAVDisplayableObject@@@std@@@std@@@0@0U?$integral_constant@_N$00@0@@Z 00408230 f i BuilderUI.obj
 0001:00007250       ??$_Adl_verify_range@PADPAD@std@@YAXABQAD0@Z 00408250 f i BuilderUI.obj
 0001:00007280       ??$_Adl_verify_range@V?$_Vector_iterator@V?$_Vector_val@U?$_Simple_types@PAVDisplayableObject@@@std@@@std@@@std@@V12@@std@@YAXABV?$_Vector_iterator@V?$_Vector_val@U?$_Simple_types@PAVDisplayableObject@@@std@@@std@@@0@0@Z 00408280 f i BuilderUI.obj
 0001:000072b0       ??$_Allocate@$07U_Default_allocate_traits@std@@$0A@@std@@YAPAXI@Z 004082b0 f i BuilderUI.obj
 0001:000072f0       ??$_Allocate_manually_vector_aligned@U_Default_allocate_traits@std@@@std@@YAPAXI@Z 004082f0 f i BuilderUI.obj
 0001:000073b0       ??$_Buy_if_not_node@AAU?$pair@$$CBV?$basic_string@DU?$char_traits@D@std@@V?$allocator@D@2@@std@@V?$shared_ptr@VRawImageData@@@2@@std@@@?$_Tree@V?$_Tmap_traits@V?$basic_string@DU?$char_traits@D@std@@V?$allocator@D@2@@std@@V?$shared_ptr@VRawImageData@@@2@U?$less@V?$basic_string@DU?$char_traits@D@std@@V?$allocator@D@2@@std@@@2@V?$allocator@U?$pair@$$CBV?$basic_string@DU?$char_traits@D@std@@V?$allocator@D@2@@std@@V?$shared_ptr@VRawImageData@@@2@@std@@@2@$0A@@std@@@std@@IAEPAU?$_Tree_node@U?$pair@$$CBV?$basic_string@DU?$char_traits@D@std@@V?$allocator@D@2@@std@@V?$shared_ptr@VRawImageData@@@2@@std@@PAX@1@PAU21@AAU?$pair@$$CBV?$basic_string@DU?$char_traits@D@std@@V?$allocator@D@2@@std@@V?$shared_ptr@VRawImageData@@@2@@1@@Z 004083b0 f i BuilderUI.obj
 0001:000073c0       ??$_Buy_if_not_node@AAU?$pair@$$CBV?$basic_string@DU?$char_traits@D@std@@V?$allocator@D@2@@std@@V?$weak_ptr@USpriteData@@@2@@std@@@?$_Tree@V?$_Tmap_traits@V?$basic_string@DU?$char_traits@D@std@@V?$allocator@D@2@@std@@V?$weak_ptr@USpriteData@@@2@U?$less@V?$basic_string@DU?$char_traits@D@std@@V?$allocator@D@2@@std@@@2@V?$allocator@U?$pair@$$CBV?$basic_string@DU?$char_traits@D@std@@V?$allocator@D@2@@std@@V?$weak_ptr@USpriteData@@@2@@std@@@2@$0A@@std@@@std@@IAEPAU?$_Tree_node@U?$pair@$$CBV?$basic_string@DU?$char_traits@D@std@@V?$allocator@D@2@@std@@V?$weak_ptr@USpriteData@@@2@@std@@PAX@1@PAU21@AAU?$pair@$$CBV?$basic_string@DU?$char_traits@D@std@@V?$allocator@D@2@@std@@V?$weak_ptr@USpriteData@@@2@@1@@Z 004083c0 f i BuilderUI.obj
 0001:000073d0       ??$_Buy_if_not_node@AAU?$pair@$$CBV?$basic_string@DU?$char_traits@D@std@@V?$allocator@D@2@@std@@V?$weak_ptr@VRawImageData@@@2@@std@@@?$_Tree@V?$_Tmap_traits@V?$basic_string@DU?$char_traits@D@std@@V?$allocator@D@2@@std@@V?$weak_ptr@VRawImageData@@@2@U?$less@V?$basic_string@DU?$char_traits@D@std@@V?$allocator@D@2@@std@@@2@V?$allocator@U?$pair@$$CBV?$basic_string@DU?$char_traits@D@std@@V?$allocator@D@2@@std@@V?$weak_ptr@VRawImageData@@@2@@std@@@2@$0A@@std@@@std@@IAEPAU?$_Tree_node@U?$pair@$$CBV?$basic_string@DU?$char_traits@D@std@@V?$allocator@D@2@@std@@V?$weak_ptr@VRawImageData@@@2@@std@@PAX@1@PAU21@AAU?$pair@$$CBV?$basic_string@DU?$char_traits@D@std@@V?$allocator@D@2@@std@@V?$weak_ptr@VRawImageData@@@2@@1@@Z 004083d0 f i BuilderUI.obj
 0001:000073e0       ??$_Buynode@U?$pair@V?$basic_string@DU?$char_traits@D@std@@V?$allocator@D@2@@std@@V?$shared_ptr@VRawImageData@@@2@@std@@@?$_Tree_comp_alloc@V?$_Tmap_traits@V?$basic_string@DU?$char_traits@D@std@@V?$allocator@D@2@@std@@V?$shared_ptr@VRawImageData@@@2@U?$less@V?$basic_string@DU?$char_traits@D@std@@V?$allocator@D@2@@std@@@2@V?$allocator@U?$pair@$$CBV?$basic_string@DU?$char_traits@D@std@@V?$allocator@D@2@@std@@V?$shared_ptr@VRawImageData@@@2@@std@@@2@$0A@@std@@@std@@QAEPAU?$_Tree_node@U?$pair@$$CBV?$basic_string@DU?$char_traits@D@std@@V?$allocator@D@2@@std@@V?$shared_ptr@VRawImageData@@@2@@std@@PAX@1@$$QAU?$pair@V?$basic_string@DU?$char_traits@D@std@@V?$allocator@D@2@@std@@V?$shared_ptr@VRawImageData@@@2@@1@@Z 004083e0 f i BuilderUI.obj
 0001:000074b0       ??$_Buynode@U?$pair@V?$basic_string@DU?$char_traits@D@std@@V?$allocator@D@2@@std@@V?$weak_ptr@USpriteData@@@2@@std@@@?$_Tree_comp_alloc@V?$_Tmap_traits@V?$basic_string@DU?$char_traits@D@std@@V?$allocator@D@2@@std@@V?$weak_ptr@USpriteData@@@2@U?$less@V?$basic_string@DU?$char_traits@D@std@@V?$allocator@D@2@@std@@@2@V?$allocator@U?$pair@$$CBV?$basic_string@DU?$char_traits@D@std@@V?$allocator@D@2@@std@@V?$weak_ptr@USpriteData@@@2@@std@@@2@$0A@@std@@@std@@QAEPAU?$_Tree_node@U?$pair@$$CBV?$basic_string@DU?$char_traits@D@std@@V?$allocator@D@2@@std@@V?$weak_ptr@USpriteData@@@2@@std@@PAX@1@$$QAU?$pair@V?$basic_string@DU?$char_traits@D@std@@V?$allocator@D@2@@std@@V?$weak_ptr@USpriteData@@@2@@1@@Z 004084b0 f i BuilderUI.obj
 0001:00007580       ??$_Buynode@U?$pair@V?$basic_string@DU?$char_traits@D@std@@V?$allocator@D@2@@std@@V?$weak_ptr@VRawImageData@@@2@@std@@@?$_Tree_comp_alloc@V?$_Tmap_traits@V?$basic_string@DU?$char_traits@D@std@@V?$allocator@D@2@@std@@V?$weak_ptr@VRawImageData@@@2@U?$less@V?$basic_string@DU?$char_traits@D@std@@V?$allocator@D@2@@std@@@2@V?$allocator@U?$pair@$$CBV?$basic_string@DU?$char_traits@D@std@@V?$allocator@D@2@@std@@V?$weak_ptr@VRawImageData@@@2@@std@@@2@$0A@@std@@@std@@QAEPAU?$_Tree_node@U?$pair@$$CBV?$basic_string@DU?$char_traits@D@std@@V?$allocator@D@2@@std@@V?$weak_ptr@VRawImageData@@@2@@std@@PAX@1@$$QAU?$pair@V?$basic_string@DU?$char_traits@D@std@@V?$allocator@D@2@@std@@V?$weak_ptr@VRawImageData@@@2@@1@@Z 00408580 f i BuilderUI.obj
 0001:00007710       ??$_Const_cast@QAVDisplayableObject@@@std@@YA@PBQAVDisplayableObject@@@Z 00408710 f i BuilderUI.obj
 0001:00007720       ??$_Construct_from_weak@USpriteData@@@?$_Ptr_base@USpriteData@@@std@@IAE_NABV?$weak_ptr@USpriteData@@@1@@Z 00408720 f i BuilderUI.obj
 0001:00007770       ??$_Construct_from_weak@VRawImageData@@@?$_Ptr_base@VRawImageData@@@std@@IAE_NABV?$weak_ptr@VRawImageData@@@1@@Z 00408770 f i BuilderUI.obj
 0001:000077c0       ??$_Convert_size@I@std@@YAII@Z 004087c0 f i BuilderUI.obj
 0001:000077d0       ??$_Copy_construct_from@USpriteData@@@?$_Ptr_base@USpriteData@@@std@@IAEXABV?$shared_ptr@USpriteData@@@1@@Z 004087d0 f i BuilderUI.obj
 0001:00007810       ??$_Copy_construct_from@VRawImageData@@@?$_Ptr_base@VRawImageData@@@std@@IAEXABV?$shared_ptr@VRawImageData@@@1@@Z 00408810 f i BuilderUI.obj
 0001:00007850       ??$_Copy_memmove@PAPAVDisplayableObject@@PAPAV1@@std@@YAPAPAVDisplayableObject@@PAPAV1@00@Z 00408850 f i BuilderUI.obj
 0001:00007890       ??$_Copy_memmove@PAPAVSimpleImage@@PAPAV1@@std@@YAPAPAVSimpleImage@@PAPAV1@00@Z 00408890 f i BuilderUI.obj
 0001:000078d0       ??$_Deallocate@$03$0A@@std@@YAXPAXI@Z 004088d0 f i BuilderUI.obj
 0001:00007900       ??$_Deallocate@$07$0A@@std@@YAXPAXI@Z 00408900 f i BuilderUI.obj
 0001:00007930       ??$_Deallocate_plain@V?$allocator@U_Container_proxy@std@@@std@@$0A@@std@@YAXAAV?$allocator@U_Container_proxy@std@@@0@QAU_Container_proxy@0@@Z 00408930 f i BuilderUI.obj
 0001:00007950       ??$_Debug_lt_pred@AAU?$less@V?$basic_string@DU?$char_traits@D@std@@V?$allocator@D@2@@std@@@std@@ABV?$basic_string@DU?$char_traits@D@std@@V?$allocator@D@2@@2@ABV32@@std@@YA_NAAU?$less@V?$basic_string@DU?$char_traits@D@std@@V?$allocator@D@2@@std@@@0@ABV?$basic_string@DU?$char_traits@D@std@@V?$allocator@D@2@@0@1@Z 00408950 f i BuilderUI.obj
 0001:000079e0       ??$_Debug_lt_pred@ABU?$less@V?$basic_string@DU?$char_traits@D@std@@V?$allocator@D@2@@std@@@std@@ABV?$basic_string@DU?$char_traits@D@std@@V?$allocator@D@2@@2@ABV32@@std@@YA_NABU?$less@V?$basic_string@DU?$char_traits@D@std@@V?$allocator@D@2@@std@@@0@ABV?$basic_string@DU?$char_traits@D@std@@V?$allocator@D@2@@0@1@Z 004089e0 f i BuilderUI.obj
 0001:00007a70       ??$_Destroy_range1@V?$allocator@PAVDisplayableObject@@@std@@@std@@YAXPAPAVDisplayableObject@@0AAV?$allocator@PAVDisplayableObject@@@0@U?$integral_constant@_N$00@0@@Z 00408a70 f i BuilderUI.obj
 0001:00007a80       ??$_Destroy_range1@V?$allocator@PAVRocketPart@@@std@@@std@@YAXPAPAVRocketPart@@0AAV?$allocator@PAVRocketPart@@@0@U?$integral_constant@_N$00@0@@Z 00408a80 f i BuilderUI.obj
 0001:00007a90       ??$_Destroy_range1@V?$allocator@PAVSimpleImage@@@std@@@std@@YAXPAPAVSimpleImage@@0AAV?$allocator@PAVSimpleImage@@@0@U?$integral_constant@_N$00@0@@Z 00408a90 f i BuilderUI.obj
 0001:00007aa0       ??$_Destroy_range1@V?$allocator@V?$basic_string@DU?$char_traits@D@std@@V?$allocator@D@2@@std@@@std@@@std@@YAXPAV?$basic_string@DU?$char_traits@D@std@@V?$allocator@D@2@@0@0AAV?$allocator@V?$basic_string@DU?$char_traits@D@std@@V?$allocator@D@2@@std@@@0@U?$integral_constant@_N$0A@@0@@Z 00408aa0 f i BuilderUI.obj
 0001:00007ae0       ??$_Destroy_range@V?$allocator@PAVDisplayableObject@@@std@@@std@@YAXPAPAVDisplayableObject@@0AAV?$allocator@PAVDisplayableObject@@@0@@Z 00408ae0 f i BuilderUI.obj
 0001:00007b10       ??$_Destroy_range@V?$allocator@PAVRocketPart@@@std@@@std@@YAXPAPAVRocketPart@@0AAV?$allocator@PAVRocketPart@@@0@@Z 00408b10 f i BuilderUI.obj
 0001:00007b40       ??$_Destroy_range@V?$allocator@PAVSimpleImage@@@std@@@std@@YAXPAPAVSimpleImage@@0AAV?$allocator@PAVSimpleImage@@@0@@Z 00408b40 f i BuilderUI.obj
 0001:00007b70       ??$_Destroy_range@V?$allocator@V?$basic_string@DU?$char_traits@D@std@@V?$allocator@D@2@@std@@@std@@@std@@YAXPAV?$basic_string@DU?$char_traits@D@std@@V?$allocator@D@2@@0@0AAV?$allocator@V?$basic_string@DU?$char_traits@D@std@@V?$allocator@D@2@@std@@@0@@Z 00408b70 f i BuilderUI.obj
 0001:00007ba0       ??$_Emplace_back@V?$basic_string@DU?$char_traits@D@std@@V?$allocator@D@2@@std@@@?$_Uninitialized_backout_al@PAV?$basic_string@DU?$char_traits@D@std@@V?$allocator@D@2@@std@@V?$allocator@V?$basic_string@DU?$char_traits@D@std@@V?$allocator@D@2@@std@@@2@@std@@QAEX$$QAV?$basic_string@DU?$char_traits@D@std@@V?$allocator@D@2@@1@@Z 00408ba0 f i BuilderUI.obj
 0001:00007bf0       ??$_Emplace_back_with_unused_capacity@ABQAVDisplayableObject@@@?$vector@PAVDisplayableObject@@V?$allocator@PAVDisplayableObject@@@std@@@std@@AAE@ABQAVDisplayableObject@@@Z 00408bf0 f i BuilderUI.obj
 0001:00007c80       ??$_Emplace_back_with_unused_capacity@PAVSimpleImage@@@?$vector@PAVSimpleImage@@V?$allocator@PAVSimpleImage@@@std@@@std@@AAE@$$QAPAVSimpleImage@@@Z 00408c80 f i BuilderUI.obj
 0001:00007d10       ??$_Emplace_back_with_unused_capacity@V?$basic_string@DU?$char_traits@D@std@@V?$allocator@D@2@@std@@@?$vector@V?$basic_string@DU?$char_traits@D@std@@V?$allocator@D@2@@std@@V?$allocator@V?$basic_string@DU?$char_traits@D@std@@V?$allocator@D@2@@std@@@2@@std@@AAE@$$QAV?$basic_string@DU?$char_traits@D@std@@V?$allocator@D@2@@1@@Z 00408d10 f i BuilderUI.obj
 0001:00007da0       ??$_Emplace_reallocate@ABQAVDisplayableObject@@@?$vector@PAVDisplayableObject@@V?$allocator@PAVDisplayableObject@@@std@@@std@@QAEPAPAVDisplayableObject@@QAPAV2@ABQAV2@@Z 00408da0 f i BuilderUI.obj
 0001:00007f80       ??$_Emplace_reallocate@PAVSimpleImage@@@?$vector@PAVSimpleImage@@V?$allocator@PAVSimpleImage@@@std@@@std@@QAEPAPAVSimpleImage@@QAPAV2@$$QAPAV2@@Z 00408f80 f i BuilderUI.obj
 0001:00008160       ??$_Emplace_reallocate@V?$basic_string@DU?$char_traits@D@std@@V?$allocator@D@2@@std@@@?$vector@V?$basic_string@DU?$char_traits@D@std@@V?$allocator@D@2@@std@@V?$allocator@V?$basic_string@DU?$char_traits@D@std@@V?$allocator@D@2@@std@@@2@@std@@QAEPAV?$basic_string@DU?$char_traits@D@std@@V?$allocator@D@2@@1@QAV21@$$QAV21@@Z 00409160 f i BuilderUI.obj
 0001:00008340       ??$_Enable_shared_from_this1@USpriteData@@U1@@std@@YAXABV?$shared_ptr@USpriteData@@@0@PAUSpriteData@@U?$integral_constant@_N$0A@@0@@Z 00409340 f i BuilderUI.obj
 0001:00008350       ??$_Enable_shared_from_this1@VRawImageData@@V1@@std@@YAXABV?$shared_ptr@VRawImageData@@@0@PAVRawImageData@@U?$integral_constant@_N$0A@@0@@Z 00409350 f i BuilderUI.obj
 0001:00008360       ??$_Enable_shared_from_this@USpriteData@@U1@@std@@YAXABV?$shared_ptr@USpriteData@@@0@PAUSpriteData@@@Z 00409360 f i BuilderUI.obj
 0001:00008390       ??$_Enable_shared_from_this@VRawImageData@@V1@@std@@YAXABV?$shared_ptr@VRawImageData@@@0@PAVRawImageData@@@Z 00409390 f i BuilderUI.obj
 0001:000083c0       ??$_Find_unchecked1@PAPAVDisplayableObject@@PAV1@@std@@YAPAPAVDisplayableObject@@PAPAV1@QAPAV1@ABQAV1@U?$integral_constant@_N$0A@@0@@Z 004093c0 f i BuilderUI.obj
 0001:000083f0       ??$_Find_unchecked@PAPAVDisplayableObject@@PAV1@@std@@YAPAPAVDisplayableObject@@QAPAV1@0ABQAV1@@Z 004093f0 f i BuilderUI.obj
 0001:00008420       ??$_Freenode0@V?$allocator@U?$_Tree_node@U?$pair@$$CBV?$basic_string@DU?$char_traits@D@std@@V?$allocator@D@2@@std@@V?$shared_ptr@UPartData@@@2@@std@@PAX@std@@@std@@@?$_Tree_node@U?$pair@$$CBV?$basic_string@DU?$char_traits@D@std@@V?$allocator@D@2@@std@@V?$shared_ptr@UPartData@@@2@@std@@PAX@std@@SAXAAV?$allocator@U?$_Tree_node@U?$pair@$$CBV?$basic_string@DU?$char_traits@D@std@@V?$allocator@D@2@@std@@V?$shared_ptr@UPartData@@@2@@std@@PAX@std@@@1@PAU01@@Z 00409420 f i BuilderUI.obj
 0001:000084c0       ??$_Freenode0@V?$allocator@U?$_Tree_node@U?$pair@$$CBV?$basic_string@DU?$char_traits@D@std@@V?$allocator@D@2@@std@@V?$shared_ptr@VRawImageData@@@2@@std@@PAX@std@@@std@@@?$_Tree_node@U?$pair@$$CBV?$basic_string@DU?$char_traits@D@std@@V?$allocator@D@2@@std@@V?$shared_ptr@VRawImageData@@@2@@std@@PAX@std@@SAXAAV?$allocator@U?$_Tree_node@U?$pair@$$CBV?$basic_string@DU?$char_traits@D@std@@V?$allocator@D@2@@std@@V?$shared_ptr@VRawImageData@@@2@@std@@PAX@std@@@1@PAU01@@Z 004094c0 f i BuilderUI.obj
 0001:00008560       ??$_Freenode0@V?$allocator@U?$_Tree_node@U?$pair@$$CBV?$basic_string@DU?$char_traits@D@std@@V?$allocator@D@2@@std@@V?$weak_ptr@USpriteData@@@2@@std@@PAX@std@@@std@@@?$_Tree_node@U?$pair@$$CBV?$basic_string@DU?$char_traits@D@std@@V?$allocator@D@2@@std@@V?$weak_ptr@USpriteData@@@2@@std@@PAX@std@@SAXAAV?$allocator@U?$_Tree_node@U?$pair@$$CBV?$basic_string@DU?$char_traits@D@std@@V?$allocator@D@2@@std@@V?$weak_ptr@USpriteData@@@2@@std@@PAX@std@@@1@PAU01@@Z 00409560 f i BuilderUI.obj
 0001:00008600       ??$_Freenode0@V?$allocator@U?$_Tree_node@U?$pair@$$CBV?$basic_string@DU?$char_traits@D@std@@V?$allocator@D@2@@std@@V?$weak_ptr@VRawImageData@@@2@@std@@PAX@std@@@std@@@?$_Tree_node@U?$pair@$$CBV?$basic_string@DU?$char_traits@D@std@@V?$allocator@D@2@@std@@V?$weak_ptr@VRawImageData@@@2@@std@@PAX@std@@SAXAAV?$allocator@U?$_Tree_node@U?$pair@$$CBV?$basic_string@DU?$char_traits@D@std@@V?$allocator@D@2@@std@@V?$weak_ptr@VRawImageData@@@2@@std@@PAX@std@@@1@PAU01@@Z 00409600 f i BuilderUI.obj
 0001:000086a0       ??$_Get_size_of_n@$00@std@@YAII@Z 004096a0 f i BuilderUI.obj
 0001:000086b0       ??$_Get_size_of_n@$03@std@@YAII@Z 004096b0 f i BuilderUI.obj
 0001:000086e0       ??$_Get_size_of_n@$07@std@@YAII@Z 004096e0 f i BuilderUI.obj
 0001:00008710       ??$_Get_size_of_n@$0BM@@std@@YAII@Z 00409710 f i BuilderUI.obj
 0001:00008740       ??$_Get_size_of_n@$0DE@@std@@YAII@Z 00409740 f i BuilderUI.obj
 0001:00008770       ??$_Get_unwrapped@D@std@@YAPADQAD@Z 00409770 f i BuilderUI.obj
 0001:00008780       ??$_Get_unwrapped@PAVDisplayableObject@@@std@@YAPAPAVDisplayableObject@@QAPAV1@@Z 00409780 f i BuilderUI.obj
 0001:00008790       ??$_Get_unwrapped@PAVSimpleImage@@@std@@YAPAPAVSimpleImage@@QAPAV1@@Z 00409790 f i BuilderUI.obj
 0001:000087a0       ??$_Get_unwrapped@V?$_Vector_iterator@V?$_Vector_val@U?$_Simple_types@PAVDisplayableObject@@@std@@@std@@@std@@$0A@@std@@YA@ABV?$_Vector_iterator@V?$_Vector_val@U?$_Simple_types@PAVDisplayableObject@@@std@@@std@@@0@@Z 004097a0 f i BuilderUI.obj
 0001:000087b0       ??$_Get_unwrapped@V?$basic_string@DU?$char_traits@D@std@@V?$allocator@D@2@@std@@@std@@YAPAV?$basic_string@DU?$char_traits@D@std@@V?$allocator@D@2@@0@QAV10@@Z 004097b0 f i BuilderUI.obj
 0001:000087c0       ??$_Get_unwrapped_n@PAVDisplayableObject@@H$0A@@std@@YAPAPAVDisplayableObject@@QAPAV1@H@Z 004097c0 f i BuilderUI.obj
 0001:000087d0       ??$_Get_unwrapped_n@PAVSimpleImage@@H$0A@@std@@YAPAPAVSimpleImage@@QAPAV1@H@Z 004097d0 f i BuilderUI.obj
 0001:000087e0       ??$_Get_unwrapped_n@V?$basic_string@DU?$char_traits@D@std@@V?$allocator@D@2@@std@@H$0A@@std@@YAPAV?$basic_string@DU?$char_traits@D@std@@V?$allocator@D@2@@0@QAV10@H@Z 004097e0 f i BuilderUI.obj
 0001:000087f0       ??$_Idl_distance1@PAPAVDisplayableObject@@PAPAV1@@std@@YAHABQAPAVDisplayableObject@@0Urandom_access_iterator_tag@0@@Z 004097f0 f i BuilderUI.obj
 0001:00008810       ??$_Idl_distance1@PAPAVSimpleImage@@PAPAV1@@std@@YAHABQAPAVSimpleImage@@0Urandom_access_iterator_tag@0@@Z 00409810 f i BuilderUI.obj
 0001:00008830       ??$_Idl_distance1@PAV?$basic_string@DU?$char_traits@D@std@@V?$allocator@D@2@@std@@PAV12@@std@@YAHABQAV?$basic_string@DU?$char_traits@D@std@@V?$allocator@D@2@@0@0Urandom_access_iterator_tag@0@@Z 00409830 f i BuilderUI.obj
 0001:00008850       ??$_Idl_distance@PAPAVDisplayableObject@@PAPAV1@@std@@YA@ABQAPAVDisplayableObject@@0@Z 00409850 f i BuilderUI.obj
 0001:00008870       ??$_Idl_distance@PAPAVSimpleImage@@PAPAV1@@std@@YA@ABQAPAVSimpleImage@@0@Z 00409870 f i BuilderUI.obj
 0001:00008890       ??$_Idl_distance@PAV?$basic_string@DU?$char_traits@D@std@@V?$allocator@D@2@@std@@PAV12@@std@@YA@ABQAV?$basic_string@DU?$char_traits@D@std@@V?$allocator@D@2@@0@0@Z 00409890 f i BuilderUI.obj
 0001:000088b0       ??$_Insert_at@AAU?$pair@$$CBV?$basic_string@DU?$char_traits@D@std@@V?$allocator@D@2@@std@@V?$shared_ptr@VRawImageData@@@2@@std@@PAU?$_Tree_node@U?$pair@$$CBV?$basic_string@DU?$char_traits@D@std@@V?$allocator@D@2@@std@@V?$shared_ptr@VRawImageData@@@2@@std@@PAX@2@@?$_Tree@V?$_Tmap_traits@V?$basic_string@DU?$char_traits@D@std@@V?$allocator@D@2@@std@@V?$shared_ptr@VRawImageData@@@2@U?$less@V?$basic_string@DU?$char_traits@D@std@@V?$allocator@D@2@@std@@@2@V?$allocator@U?$pair@$$CBV?$basic_string@DU?$char_traits@D@std@@V?$allocator@D@2@@std@@V?$shared_ptr@VRawImageData@@@2@@std@@@2@$0A@@std@@@std@@IAE?AV?$_Tree_iterator@V?$_Tree_val@U?$_Tree_simple_types@U?$pair@$$CBV?$basic_string@DU?$char_traits@D@std@@V?$allocator@D@2@@std@@V?$shared_ptr@VRawImageData@@@2@@std@@@std@@@std@@@1@_NPAU?$_Tree_node@U?$pair@$$CBV?$basic_string@DU?$char_traits@D@std@@V?$allocator@D@2@@std@@V?$shared_ptr@VRawImageData@@@2@@std@@PAX@1@AAU?$pair@$$CBV?$basic_string@DU?$char_traits@D@std@@V?$allocator@D@2@@std@@V?$shared_ptr@VRawImageData@@@2@@1@1@Z 004098b0 f i BuilderUI.obj
 0001:00008b50       ??$_Insert_at@AAU?$pair@$$CBV?$basic_string@DU?$char_traits@D@std@@V?$allocator@D@2@@std@@V?$weak_ptr@USpriteData@@@2@@std@@PAU?$_Tree_node@U?$pair@$$CBV?$basic_string@DU?$char_traits@D@std@@V?$allocator@D@2@@std@@V?$weak_ptr@USpriteData@@@2@@std@@PAX@2@@?$_Tree@V?$_Tmap_traits@V?$basic_string@DU?$char_traits@D@std@@V?$allocator@D@2@@std@@V?$weak_ptr@USpriteData@@@2@U?$less@V?$basic_string@DU?$char_traits@D@std@@V?$allocator@D@2@@std@@@2@V?$allocator@U?$pair@$$CBV?$basic_string@DU?$char_traits@D@std@@V?$allocator@D@2@@std@@V?$weak_ptr@USpriteData@@@2@@std@@@2@$0A@@std@@@std@@IAE?AV?$_Tree_iterator@V?$_Tree_val@U?$_Tree_simple_types@U?$pair@$$CBV?$basic_string@DU?$char_traits@D@std@@V?$allocator@D@2@@std@@V?$weak_ptr@USpriteData@@@2@@std@@@std@@@std@@@1@_NPAU?$_Tree_node@U?$pair@$$CBV?$basic_string@DU?$char_traits@D@std@@V?$allocator@D@2@@std@@V?$weak_ptr@USpriteData@@@2@@std@@PAX@1@AAU?$pair@$$CBV?$basic_string@DU?$char_traits@D@std@@V?$allocator@D@2@@std@@V?$weak_ptr@USpriteData@@@2@@1@1@Z 00409b50 f i BuilderUI.obj
 0001:00008df0       ??$_Insert_at@AAU?$pair@$$CBV?$basic_string@DU?$char_traits@D@std@@V?$allocator@D@2@@std@@V?$weak_ptr@VRawImageData@@@2@@std@@PAU?$_Tree_node@U?$pair@$$CBV?$basic_string@DU?$char_traits@D@std@@V?$allocator@D@2@@std@@V?$weak_ptr@VRawImageData@@@2@@std@@PAX@2@@?$_Tree@V?$_Tmap_traits@V?$basic_string@DU?$char_traits@D@std@@V?$allocator@D@2@@std@@V?$weak_ptr@VRawImageData@@@2@U?$less@V?$basic_string@DU?$char_traits@D@std@@V?$allocator@D@2@@std@@@2@V?$allocator@U?$pair@$$CBV?$basic_string@DU?$char_traits@D@std@@V?$allocator@D@2@@std@@V?$weak_ptr@VRawImageData@@@2@@std@@@2@$0A@@std@@@std@@IAE?AV?$_Tree_iterator@V?$_Tree_val@U?$_Tree_simple_types@U?$pair@$$CBV?$basic_string@DU?$char_traits@D@std@@V?$allocator@D@2@@std@@V?$weak_ptr@VRawImageData@@@2@@std@@@std@@@std@@@1@_NPAU?$_Tree_node@U?$pair@$$CBV?$basic_string@DU?$char_traits@D@std@@V?$allocator@D@2@@std@@V?$weak_ptr@VRawImageData@@@2@@std@@PAX@1@AAU?$pair@$$CBV?$basic_string@DU?$char_traits@D@std@@V?$allocator@D@2@@std@@V?$weak_ptr@VRawImageData@@@2@@1@1@Z 00409df0 f i BuilderUI.obj
 0001:00009090       ??$_Insert_nohint@AAU?$pair@$$CBV?$basic_string@DU?$char_traits@D@std@@V?$allocator@D@2@@std@@V?$shared_ptr@VRawImageData@@@2@@std@@PAU?$_Tree_node@U?$pair@$$CBV?$basic_string@DU?$char_traits@D@std@@V?$allocator@D@2@@std@@V?$shared_ptr@VRawImageData@@@2@@std@@PAX@2@@?$_Tree@V?$_Tmap_traits@V?$basic_string@DU?$char_traits@D@std@@V?$allocator@D@2@@std@@V?$shared_ptr@VRawImageData@@@2@U?$less@V?$basic_string@DU?$char_traits@D@std@@V?$allocator@D@2@@std@@@2@V?$allocator@U?$pair@$$CBV?$basic_string@DU?$char_traits@D@std@@V?$allocator@D@2@@std@@V?$shared_ptr@VRawImageData@@@2@@std@@@2@$0A@@std@@@std@@IAE?AU?$pair@V?$_Tree_iterator@V?$_Tree_val@U?$_Tree_simple_types@U?$pair@$$CBV?$basic_string@DU?$char_traits@D@std@@V?$allocator@D@2@@std@@V?$shared_ptr@VRawImageData@@@2@@std@@@std@@@std@@@std@@_N@1@_NAAU?$pair@$$CBV?$basic_string@DU?$char_traits@D@std@@V?$allocator@D@2@@std@@V?$shared_ptr@VRawImageData@@@2@@1@PAU?$_Tree_node@U?$pair@$$CBV?$basic_string@DU?$char_traits@D@std@@V?$allocator@D@2@@std@@V?$shared_ptr@VRawImageData@@@2@@std@@PAX@1@@Z 0040a090 f i BuilderUI.obj
 0001:00009450       ??$_Insert_nohint@AAU?$pair@$$CBV?$basic_string@DU?$char_traits@D@std@@V?$allocator@D@2@@std@@V?$weak_ptr@USpriteData@@@2@@std@@PAU?$_Tree_node@U?$pair@$$CBV?$basic_string@DU?$char_traits@D@std@@V?$allocator@D@2@@std@@V?$weak_ptr@USpriteData@@@2@@std@@PAX@2@@?$_Tree@V?$_Tmap_traits@V?$basic_string@DU?$char_traits@D@std@@V?$allocator@D@2@@std@@V?$weak_ptr@USpriteData@@@2@U?$less@V?$basic_string@DU?$char_traits@D@std@@V?$allocator@D@2@@std@@@2@V?$allocator@U?$pair@$$CBV?$basic_string@DU?$char_traits@D@std@@V?$allocator@D@2@@std@@V?$weak_ptr@USpriteData@@@2@@std@@@2@$0A@@std@@@std@@IAE?AU?$pair@V?$_Tree_iterator@V?$_Tree_val@U?$_Tree_simple_types@U?$pair@$$CBV?$basic_string@DU?$char_traits@D@std@@V?$allocator@D@2@@std@@V?$weak_ptr@USpriteData@@@2@@std@@@std@@@std@@@std@@_N@1@_NAAU?$pair@$$CBV?$basic_string@DU?$char_traits@D@std@@V?$allocator@D@2@@std@@V?$weak_ptr@USpriteData@@@2@@1@PAU?$_Tree_node@U?$pair@$$CBV?$basic_string@DU?$char_traits@D@std@@V?$allocator@D@2@@std@@V?$weak_ptr@USpriteData@@@2@@std@@PAX@1@@Z 0040a450 f i BuilderUI.obj
 0001:00009810       ??$_Insert_nohint@AAU?$pair@$$CBV?$basic_string@DU?$char_traits@D@std@@V?$allocator@D@2@@std@@V?$weak_ptr@VRawImageData@@@2@@std@@PAU?$_Tree_node@U?$pair@$$CBV?$basic_string@DU?$char_traits@D@std@@V?$allocator@D@2@@std@@V?$weak_ptr@VRawImageData@@@2@@std@@PAX@2@@?$_Tree@V?$_Tmap_traits@V?$basic_string@DU?$char_traits@D@std@@V?$allocator@D@2@@std@@V?$weak_ptr@VRawImageData@@@2@U?$less@V?$basic_string@DU?$char_traits@D@std@@V?$allocator@D@2@@std@@@2@V?$allocator@U?$pair@$$CBV?$basic_string@DU?$char_traits@D@std@@V?$allocator@D@2@@std@@V?$weak_ptr@VRawImageData@@@2@@std@@@2@$0A@@std@@@std@@IAE?AU?$pair@V?$_Tree_iterator@V?$_Tree_val@U?$_Tree_simple_types@U?$pair@$$CBV?$basic_string@DU?$char_traits@D@std@@V?$allocator@D@2@@std@@V?$weak_ptr@VRawImageData@@@2@@std@@@std@@@std@@@std@@_N@1@_NAAU?$pair@$$CBV?$basic_string@DU?$char_traits@D@std@@V?$allocator@D@2@@std@@V?$weak_ptr@VRawImageData@@@2@@1@PAU?$_Tree_node@U?$pair@$$CBV?$basic_string@DU?$char_traits@D@std@@V?$allocator@D@2@@std@@V?$weak_ptr@VRawImageData@@@2@@std@@PAX@1@@Z 0040a810 f i BuilderUI.obj
 0001:00009bd0       ??$_Insert_string@DU?$char_traits@D@std@@I@std@@YAAAV?$basic_ostream@DU?$char_traits@D@std@@@0@AAV10@QBDI@Z 0040abd0 f i BuilderUI.obj
 0001:00009eb0       ??$_Integral_to_string@DH@std@@YA?AV?$basic_string@DU?$char_traits@D@std@@V?$allocator@D@2@@0@H@Z 0040aeb0 f i BuilderUI.obj
 0001:00009f60       ??$_Integral_to_string@DI@std@@YA?AV?$basic_string@DU?$char_traits@D@std@@V?$allocator@D@2@@0@I@Z 0040af60 f i BuilderUI.obj
 0001:0000a010       ??$_Kfn@$$CBV?$basic_string@DU?$char_traits@D@std@@V?$allocator@D@2@@std@@V?$shared_ptr@VRawImageData@@@2@@?$_Tmap_traits@V?$basic_string@DU?$char_traits@D@std@@V?$allocator@D@2@@std@@V?$shared_ptr@VRawImageData@@@2@U?$less@V?$basic_string@DU?$char_traits@D@std@@V?$allocator@D@2@@std@@@2@V?$allocator@U?$pair@$$CBV?$basic_string@DU?$char_traits@D@std@@V?$allocator@D@2@@std@@V?$shared_ptr@VRawImageData@@@2@@std@@@2@$0A@@std@@SAABV?$basic_string@DU?$char_traits@D@std@@V?$allocator@D@2@@1@ABU?$pair@$$CBV?$basic_string@DU?$char_traits@D@std@@V?$allocator@D@2@@std@@V?$shared_ptr@VRawImageData@@@2@@1@@Z 0040b010 f i BuilderUI.obj
 0001:0000a020       ??$_Kfn@$$CBV?$basic_string@DU?$char_traits@D@std@@V?$allocator@D@2@@std@@V?$weak_ptr@USpriteData@@@2@@?$_Tmap_traits@V?$basic_string@DU?$char_traits@D@std@@V?$allocator@D@2@@std@@V?$weak_ptr@USpriteData@@@2@U?$less@V?$basic_string@DU?$char_traits@D@std@@V?$allocator@D@2@@std@@@2@V?$allocator@U?$pair@$$CBV?$basic_string@DU?$char_traits@D@std@@V?$allocator@D@2@@std@@V?$weak_ptr@USpriteData@@@2@@std@@@2@$0A@@std@@SAABV?$basic_string@DU?$char_traits@D@std@@V?$allocator@D@2@@1@ABU?$pair@$$CBV?$basic_string@DU?$char_traits@D@std@@V?$allocator@D@2@@std@@V?$weak_ptr@USpriteData@@@2@@1@@Z 0040b020 f i BuilderUI.obj
 0001:0000a030       ??$_Kfn@$$CBV?$basic_string@DU?$char_traits@D@std@@V?$allocator@D@2@@std@@V?$weak_ptr@VRawImageData@@@2@@?$_Tmap_traits@V?$basic_string@DU?$char_traits@D@std@@V?$allocator@D@2@@std@@V?$weak_ptr@VRawImageData@@@2@U?$less@V?$basic_string@DU?$char_traits@D@std@@V?$allocator@D@2@@std@@@2@V?$allocator@U?$pair@$$CBV?$basic_string@DU?$char_traits@D@std@@V?$allocator@D@2@@std@@V?$weak_ptr@VRawImageData@@@2@@std@@@2@$0A@@std@@SAABV?$basic_string@DU?$char_traits@D@std@@V?$allocator@D@2@@1@ABU?$pair@$$CBV?$basic_string@DU?$char_traits@D@std@@V?$allocator@D@2@@std@@V?$weak_ptr@VRawImageData@@@2@@1@@Z 0040b030 f i BuilderUI.obj
 0001:0000a040       ??$_Lbound@V?$basic_string@DU?$char_traits@D@std@@V?$allocator@D@2@@std@@@?$_Tree@V?$_Tmap_traits@V?$basic_string@DU?$char_traits@D@std@@V?$allocator@D@2@@std@@V?$weak_ptr@USpriteData@@@2@U?$less@V?$basic_string@DU?$char_traits@D@std@@V?$allocator@D@2@@std@@@2@V?$allocator@U?$pair@$$CBV?$basic_string@DU?$char_traits@D@std@@V?$allocator@D@2@@std@@V?$weak_ptr@USpriteData@@@2@@std@@@2@$0A@@std@@@std@@IBEPAU?$_Tree_node@U?$pair@$$CBV?$basic_string@DU?$char_traits@D@std@@V?$allocator@D@2@@std@@V?$weak_ptr@USpriteData@@@2@@std@@PAX@1@ABV?$basic_string@DU?$char_traits@D@std@@V?$allocator@D@2@@1@@Z 0040b040 f i BuilderUI.obj
 0001:0000a0b0       ??$_Lbound@V?$basic_string@DU?$char_traits@D@std@@V?$allocator@D@2@@std@@@?$_Tree@V?$_Tmap_traits@V?$basic_string@DU?$char_traits@D@std@@V?$allocator@D@2@@std@@V?$weak_ptr@VRawImageData@@@2@U?$less@V?$basic_string@DU?$char_traits@D@std@@V?$allocator@D@2@@std@@@2@V?$allocator@U?$pair@$$CBV?$basic_string@DU?$char_traits@D@std@@V?$allocator@D@2@@std@@V?$weak_ptr@VRawImageData@@@2@@std@@@2@$0A@@std@@@std@@IBEPAU?$_Tree_node@U?$pair@$$CBV?$basic_string@DU?$char_traits@D@std@@V?$allocator@D@2@@std@@V?$weak_ptr@VRawImageData@@@2@@std@@PAX@1@ABV?$basic_string@DU?$char_traits@D@std@@V?$allocator@D@2@@1@@Z 0040b0b0 f i BuilderUI.obj
 0001:0000a120       ??$_Max_value@I@std@@YAABIABI0@Z 0040b120 f i BuilderUI.obj
 0001:0000a150       ??$_Min_value@I@std@@YAABIABI0@Z 0040b150 f i BuilderUI.obj
 0001:0000a180       ??$_Move_construct_from@UPartData@@@?$_Ptr_base@UPartData@@@std@@IAEX$$QAV01@@Z 0040b180 f i BuilderUI.obj
 0001:0000a1c0       ??$_Move_construct_from@USpriteData@@@?$_Ptr_base@USpriteData@@@std@@IAEX$$QAV01@@Z 0040b1c0 f i BuilderUI.obj
 0001:0000a200       ??$_Move_construct_from@VRawImageData@@@?$_Ptr_base@VRawImageData@@@std@@IAEX$$QAV01@@Z 0040b200 f i BuilderUI.obj
 0001:0000a240       ??$_Move_unchecked1@PAPAVDisplayableObject@@PAPAV1@@std@@YAPAPAVDisplayableObject@@PAPAV1@00U_Trivially_copyable_ptr_iterator_tag@0@@Z 0040b240 f i BuilderUI.obj
 0001:0000a260       ??$_Move_unchecked@PAPAVDisplayableObject@@PAPAV1@@std@@YAPAPAVDisplayableObject@@PAPAV1@00@Z 0040b260 f i BuilderUI.obj
 0001:0000a2a0       ??$_Pocca@V?$allocator@D@std@@@std@@YAXAAV?$allocator@D@0@ABV10@@Z 0040b2a0 f i BuilderUI.obj
 0001:0000a2c0       ??$_Pocca@V?$allocator@D@std@@@std@@YAXAAV?$allocator@D@0@ABV10@U?$integral_constant@_N$0A@@0@@Z 0040b2c0 f i BuilderUI.obj
 0001:0000a2d0       ??$_Ptr_move_cat@PAVDisplayableObject@@PAV1@@std@@YA?AU_Really_trivial_ptr_iterator_tag@0@ABQAPAVDisplayableObject@@0@Z 0040b2d0 f i BuilderUI.obj
 0001:0000a2e0       ??$_Ptr_move_cat@PAVSimpleImage@@PAV1@@std@@YA?AU_Really_trivial_ptr_iterator_tag@0@ABQAPAVSimpleImage@@0@Z 0040b2e0 f i BuilderUI.obj
 0001:0000a2f0       ??$_Ptr_move_cat@V?$basic_string@DU?$char_traits@D@std@@V?$allocator@D@2@@std@@V12@@std@@YA?AU_General_ptr_iterator_tag@0@ABQAV?$basic_string@DU?$char_traits@D@std@@V?$allocator@D@2@@0@0@Z 0040b2f0 f i BuilderUI.obj
 0001:0000a300       ??$_Reallocate_for@V<lambda_9366063389c5f42a00a5088cf24e69de>@@PBD@?$basic_string@DU?$char_traits@D@std@@V?$allocator@D@2@@std@@QAEAAV01@IV<lambda_9366063389c5f42a00a5088cf24e69de>@@PBD@Z 0040b300 f i BuilderUI.obj
 0001:0000a3f0       ??$_Reallocate_grow_by@V<lambda_4d79bb85f269e6e8002a4599002d832c>@@IPBDI@?$basic_string@DU?$char_traits@D@std@@V?$allocator@D@2@@std@@QAEAAV01@IV<lambda_4d79bb85f269e6e8002a4599002d832c>@@IPBDI@Z 0040b3f0 f i BuilderUI.obj
 0001:0000a530       ??$_Reallocate_grow_by@V<lambda_6607a66f2a10a1261ff9db96cba1015b>@@IID@?$basic_string@DU?$char_traits@D@std@@V?$allocator@D@2@@std@@QAEAAV01@IV<lambda_6607a66f2a10a1261ff9db96cba1015b>@@IID@Z 0040b530 f i BuilderUI.obj
 0001:0000a670       ??$_Reallocate_grow_by@V<lambda_ab246b20b9526e2ef7792587e4298a77>@@PBDI@?$basic_string@DU?$char_traits@D@std@@V?$allocator@D@2@@std@@QAEAAV01@IV<lambda_ab246b20b9526e2ef7792587e4298a77>@@PBDI@Z 0040b670 f i BuilderUI.obj
 0001:0000a960       ??$_Seek_wrapped@PAVDisplayableObject@@@std@@YAXAAPAPAVDisplayableObject@@QAPAV1@@Z 0040b960 f i BuilderUI.obj
 0001:0000a970       ??$_Seek_wrapped@PAVSimpleImage@@@std@@YAXAAPAPAVSimpleImage@@QAPAV1@@Z 0040b970 f i BuilderUI.obj
 0001:0000a980       ??$_Seek_wrapped@V?$_Vector_iterator@V?$_Vector_val@U?$_Simple_types@PAVDisplayableObject@@@std@@@std@@@std@@PAPAVDisplayableObject@@$0A@@std@@YAXAAV?$_Vector_iterator@V?$_Vector_val@U?$_Simple_types@PAVDisplayableObject@@@std@@@std@@@0@ABQAPAVDisplayableObject@@@Z 0040b980 f i BuilderUI.obj
 0001:0000a9a0       ??$_Seek_wrapped@V?$basic_string@DU?$char_traits@D@std@@V?$allocator@D@2@@std@@@std@@YAXAAPAV?$basic_string@DU?$char_traits@D@std@@V?$allocator@D@2@@0@QAV10@@Z 0040b9a0 f i BuilderUI.obj
 0001:0000a9b0       ??$_Set_ptr_rep_and_enable_shared@USpriteData@@@?$shared_ptr@USpriteData@@@std@@AAEXPAUSpriteData@@PAV_Ref_count_base@1@@Z 0040b9b0 f i BuilderUI.obj
 0001:0000a9e0       ??$_Set_ptr_rep_and_enable_shared@VRawImageData@@@?$shared_ptr@VRawImageData@@@std@@AAEXPAVRawImageData@@PAV_Ref_count_base@1@@Z 0040b9e0 f i BuilderUI.obj
 0001:0000aa10       ??$_Setp@USpriteData@@@?$shared_ptr@USpriteData@@@std@@AAEXPAUSpriteData@@U?$integral_constant@_N$0A@@1@@Z 0040ba10 f i BuilderUI.obj
 0001:0000ab00       ??$_Setp@VRawImageData@@@?$shared_ptr@VRawImageData@@@std@@AAEXPAVRawImageData@@U?$integral_constant@_N$0A@@1@@Z 0040bb00 f i BuilderUI.obj
 0001:0000ac80       ??$_Traits_compare@U?$char_traits@D@std@@@std@@YAHQBDI0I@Z 0040bc80 f i BuilderUI.obj
 0001:0000ace0       ??$_Traits_equal@U?$char_traits@D@std@@@std@@YA_NQBDI0I@Z 0040bce0 f i BuilderUI.obj
 0001:0000ad20       ??$_UIntegral_to_buff@DI@std@@YAPADPADI@Z 0040bd20 f i BuilderUI.obj
 0001:0000ade0       ??$_Unfancy@D@std@@YAPADPAD@Z 0040bde0 f i BuilderUI.obj
 0001:0000adf0       ??$_Unfancy@PAVDisplayableObject@@@std@@YAPAPAVDisplayableObject@@PAPAV1@@Z 0040bdf0 f i BuilderUI.obj
 0001:0000ae00       ??$_Unfancy@PAVSimpleImage@@@std@@YAPAPAVSimpleImage@@PAPAV1@@Z 0040be00 f i BuilderUI.obj
 0001:0000ae10       ??$_Unfancy@U_Container_proxy@std@@@std@@YAPAU_Container_proxy@0@PAU10@@Z 0040be10 f i BuilderUI.obj
 0001:0000ae20       ??$_Unfancy@V?$basic_string@DU?$char_traits@D@std@@V?$allocator@D@2@@std@@@std@@YAPAV?$basic_string@DU?$char_traits@D@std@@V?$allocator@D@2@@0@PAV10@@Z 0040be20 f i BuilderUI.obj
 0001:0000ae30       ??$_Uninitialized_move@PAPAVDisplayableObject@@PAPAV1@V?$allocator@PAVDisplayableObject@@@std@@@std@@YAPAPAVDisplayableObject@@QAPAV1@0PAPAV1@AAV?$allocator@PAVDisplayableObject@@@0@@Z 0040be30 f i BuilderUI.obj
 0001:0000aec0       ??$_Uninitialized_move@PAPAVSimpleImage@@PAPAV1@V?$allocator@PAVSimpleImage@@@std@@@std@@YAPAPAVSimpleImage@@QAPAV1@0PAPAV1@AAV?$allocator@PAVSimpleImage@@@0@@Z 0040bec0 f i BuilderUI.obj
 0001:0000af50       ??$_Uninitialized_move@PAV?$basic_string@DU?$char_traits@D@std@@V?$allocator@D@2@@std@@PAV12@V?$allocator@V?$basic_string@DU?$char_traits@D@std@@V?$allocator@D@2@@std@@@2@@std@@YAPAV?$basic_string@DU?$char_traits@D@std@@V?$allocator@D@2@@0@QAV10@0PAV10@AAV?$allocator@V?$basic_string@DU?$char_traits@D@std@@V?$allocator@D@2@@std@@@0@@Z 0040bf50 f i BuilderUI.obj
 0001:0000aff0       ??$_Uninitialized_move_al_unchecked@PAV?$basic_string@DU?$char_traits@D@std@@V?$allocator@D@2@@std@@PAV12@V?$allocator@V?$basic_string@DU?$char_traits@D@std@@V?$allocator@D@2@@std@@@2@@std@@YAPAV?$basic_string@DU?$char_traits@D@std@@V?$allocator@D@2@@0@PAV10@QAV10@1AAV?$allocator@V?$basic_string@DU?$char_traits@D@std@@V?$allocator@D@2@@std@@@0@U_General_ptr_iterator_tag@0@U_Unused_parameter@0@@Z 0040bff0 f i BuilderUI.obj
 0001:0000b090       ??$_Uninitialized_move_al_unchecked@PAVDisplayableObject@@PAV1@V?$allocator@PAVDisplayableObject@@@std@@@std@@YAPAPAVDisplayableObject@@QAPAV1@00AAV?$allocator@PAVDisplayableObject@@@0@U_Really_trivial_ptr_iterator_tag@0@U?$integral_constant@_N$00@0@@Z 0040c090 f i BuilderUI.obj
 0001:0000b0b0       ??$_Uninitialized_move_al_unchecked@PAVSimpleImage@@PAV1@V?$allocator@PAVSimpleImage@@@std@@@std@@YAPAPAVSimpleImage@@QAPAV1@00AAV?$allocator@PAVSimpleImage@@@0@U_Really_trivial_ptr_iterator_tag@0@U?$integral_constant@_N$00@0@@Z 0040c0b0 f i BuilderUI.obj
 0001:0000b0d0       ??$_Verify_range@D@std@@YAXQBD0@Z 0040c0d0 f i BuilderUI.obj
 0001:0000b130       ??$_Weakly_construct_from@USpriteData@@@?$_Ptr_base@USpriteData@@@std@@IAEXABV01@@Z 0040c130 f i BuilderUI.obj
 0001:0000b170       ??$_Weakly_construct_from@VRawImageData@@@?$_Ptr_base@VRawImageData@@@std@@IAEXABV01@@Z 0040c170 f i BuilderUI.obj
 0001:0000b1e0       ??$addressof@$$CBV?$basic_string@DU?$char_traits@D@std@@V?$allocator@D@2@@std@@@std@@YAPBV?$basic_string@DU?$char_traits@D@std@@V?$allocator@D@2@@0@ABV10@@Z 0040c1e0 f i BuilderUI.obj
 0001:0000b1f0       ??$addressof@PAD@std@@YAPAPADAAPAD@Z 0040c1f0 f i BuilderUI.obj
 0001:0000b200       ??$addressof@PAU?$_Tree_node@U?$pair@$$CBV?$basic_string@DU?$char_traits@D@std@@V?$allocator@D@2@@std@@V?$shared_ptr@UPartData@@@2@@std@@PAX@std@@@std@@YAPAPAU?$_Tree_node@U?$pair@$$CBV?$basic_string@DU?$char_traits@D@std@@V?$allocator@D@2@@std@@V?$shared_ptr@UPartData@@@2@@std@@PAX@0@AAPAU10@@Z 0040c200 f i BuilderUI.obj
 0001:0000b210       ??$addressof@PAU?$_Tree_node@U?$pair@$$CBV?$basic_string@DU?$char_traits@D@std@@V?$allocator@D@2@@std@@V?$shared_ptr@VRawImageData@@@2@@std@@PAX@std@@@std@@YAPAPAU?$_Tree_node@U?$pair@$$CBV?$basic_string@DU?$char_traits@D@std@@V?$allocator@D@2@@std@@V?$shared_ptr@VRawImageData@@@2@@std@@PAX@0@AAPAU10@@Z 0040c210 f i BuilderUI.obj
 0001:0000b220       ??$addressof@PAU?$_Tree_node@U?$pair@$$CBV?$basic_string@DU?$char_traits@D@std@@V?$allocator@D@2@@std@@V?$weak_ptr@USpriteData@@@2@@std@@PAX@std@@@std@@YAPAPAU?$_Tree_node@U?$pair@$$CBV?$basic_string@DU?$char_traits@D@std@@V?$allocator@D@2@@std@@V?$weak_ptr@USpriteData@@@2@@std@@PAX@0@AAPAU10@@Z 0040c220 f i BuilderUI.obj
 0001:0000b230       ??$addressof@PAU?$_Tree_node@U?$pair@$$CBV?$basic_string@DU?$char_traits@D@std@@V?$allocator@D@2@@std@@V?$weak_ptr@VRawImageData@@@2@@std@@PAX@std@@@std@@YAPAPAU?$_Tree_node@U?$pair@$$CBV?$basic_string@DU?$char_traits@D@std@@V?$allocator@D@2@@std@@V?$weak_ptr@VRawImageData@@@2@@std@@PAX@0@AAPAU10@@Z 0040c230 f i BuilderUI.obj
 0001:0000b240       ??$addressof@U?$pair@$$CBV?$basic_string@DU?$char_traits@D@std@@V?$allocator@D@2@@std@@V?$shared_ptr@VRawImageData@@@2@@std@@@std@@YAPAU?$pair@$$CBV?$basic_string@DU?$char_traits@D@std@@V?$allocator@D@2@@std@@V?$shared_ptr@VRawImageData@@@2@@0@AAU10@@Z 0040c240 f i BuilderUI.obj
 0001:0000b250       ??$addressof@U?$pair@$$CBV?$basic_string@DU?$char_traits@D@std@@V?$allocator@D@2@@std@@V?$weak_ptr@USpriteData@@@2@@std@@@std@@YAPAU?$pair@$$CBV?$basic_string@DU?$char_traits@D@std@@V?$allocator@D@2@@std@@V?$weak_ptr@USpriteData@@@2@@0@AAU10@@Z 0040c250 f i BuilderUI.obj
 0001:0000b260       ??$addressof@U?$pair@$$CBV?$basic_string@DU?$char_traits@D@std@@V?$allocator@D@2@@std@@V?$weak_ptr@VRawImageData@@@2@@std@@@std@@YAPAU?$pair@$$CBV?$basic_string@DU?$char_traits@D@std@@V?$allocator@D@2@@std@@V?$weak_ptr@VRawImageData@@@2@@0@AAU10@@Z 0040c260 f i BuilderUI.obj
 0001:0000b270       ??$addressof@V?$_String_val@U?$_Simple_types@D@std@@@std@@@std@@YAPAV?$_String_val@U?$_Simple_types@D@std@@@0@AAV10@@Z 0040c270 f i BuilderUI.obj
 0001:0000b280       ??$addressof@V?$_Tree_val@U?$_Tree_simple_types@U?$pair@$$CBV?$basic_string@DU?$char_traits@D@std@@V?$allocator@D@2@@std@@V?$shared_ptr@UPartData@@@2@@std@@@std@@@std@@@std@@YAPAV?$_Tree_val@U?$_Tree_simple_types@U?$pair@$$CBV?$basic_string@DU?$char_traits@D@std@@V?$allocator@D@2@@std@@V?$shared_ptr@UPartData@@@2@@std@@@std@@@0@AAV10@@Z 0040c280 f i BuilderUI.obj
 0001:0000b290       ??$addressof@V?$_Tree_val@U?$_Tree_simple_types@U?$pair@$$CBV?$basic_string@DU?$char_traits@D@std@@V?$allocator@D@2@@std@@V?$shared_ptr@VRawImageData@@@2@@std@@@std@@@std@@@std@@YAPAV?$_Tree_val@U?$_Tree_simple_types@U?$pair@$$CBV?$basic_string@DU?$char_traits@D@std@@V?$allocator@D@2@@std@@V?$shared_ptr@VRawImageData@@@2@@std@@@std@@@0@AAV10@@Z 0040c290 f i BuilderUI.obj
 0001:0000b2a0       ??$addressof@V?$_Tree_val@U?$_Tree_simple_types@U?$pair@$$CBV?$basic_string@DU?$char_traits@D@std@@V?$allocator@D@2@@std@@V?$weak_ptr@USpriteData@@@2@@std@@@std@@@std@@@std@@YAPAV?$_Tree_val@U?$_Tree_simple_types@U?$pair@$$CBV?$basic_string@DU?$char_traits@D@std@@V?$allocator@D@2@@std@@V?$weak_ptr@USpriteData@@@2@@std@@@std@@@0@AAV10@@Z 0040c2a0 f i BuilderUI.obj
 0001:0000b2b0       ??$addressof@V?$_Tree_val@U?$_Tree_simple_types@U?$pair@$$CBV?$basic_string@DU?$char_traits@D@std@@V?$allocator@D@2@@std@@V?$weak_ptr@VRawImageData@@@2@@std@@@std@@@std@@@std@@YAPAV?$_Tree_val@U?$_Tree_simple_types@U?$pair@$$CBV?$basic_string@DU?$char_traits@D@std@@V?$allocator@D@2@@std@@V?$weak_ptr@VRawImageData@@@2@@std@@@std@@@0@AAV10@@Z 0040c2b0 f i BuilderUI.obj
 0001:0000b2c0       ??$addressof@V?$_Vector_val@U?$_Simple_types@PAVDisplayableObject@@@std@@@std@@@std@@YAPAV?$_Vector_val@U?$_Simple_types@PAVDisplayableObject@@@std@@@0@AAV10@@Z 0040c2c0 f i BuilderUI.obj
 0001:0000b2d0       ??$addressof@V?$_Vector_val@U?$_Simple_types@PAVSimpleImage@@@std@@@std@@@std@@YAPAV?$_Vector_val@U?$_Simple_types@PAVSimpleImage@@@std@@@0@AAV10@@Z 0040c2d0 f i BuilderUI.obj
 0001:0000b2e0       ??$addressof@V?$_Vector_val@U?$_Simple_types@V?$basic_string@DU?$char_traits@D@std@@V?$allocator@D@2@@std@@@std@@@std@@@std@@YAPAV?$_Vector_val@U?$_Simple_types@V?$basic_string@DU?$char_traits@D@std@@V?$allocator@D@2@@std@@@std@@@0@AAV10@@Z 0040c2e0 f i BuilderUI.obj
 0001:0000b2f0       ??$construct@PADABQAD@?$_Default_allocator_traits@V?$allocator@D@std@@@std@@SAXAAV?$allocator@D@1@QAPADABQAD@Z 0040c2f0 f i BuilderUI.obj
 0001:0000b320       ??$construct@PAU?$_Tree_node@U?$pair@$$CBV?$basic_string@DU?$char_traits@D@std@@V?$allocator@D@2@@std@@V?$shared_ptr@UPartData@@@2@@std@@PAX@std@@AAPAU12@@?$_Default_allocator_traits@V?$allocator@U?$_Tree_node@U?$pair@$$CBV?$basic_string@DU?$char_traits@D@std@@V?$allocator@D@2@@std@@V?$shared_ptr@UPartData@@@2@@std@@PAX@std@@@std@@@std@@SAXAAV?$allocator@U?$_Tree_node@U?$pair@$$CBV?$basic_string@DU?$char_traits@D@std@@V?$allocator@D@2@@std@@V?$shared_ptr@UPartData@@@2@@std@@PAX@std@@@1@QAPAU?$_Tree_node@U?$pair@$$CBV?$basic_string@DU?$char_traits@D@std@@V?$allocator@D@2@@std@@V?$shared_ptr@UPartData@@@2@@std@@PAX@1@AAPAU31@@Z 0040c320 f i BuilderUI.obj
 0001:0000b350       ??$construct@PAU?$_Tree_node@U?$pair@$$CBV?$basic_string@DU?$char_traits@D@std@@V?$allocator@D@2@@std@@V?$shared_ptr@VRawImageData@@@2@@std@@PAX@std@@AAPAU12@@?$_Default_allocator_traits@V?$allocator@U?$_Tree_node@U?$pair@$$CBV?$basic_string@DU?$char_traits@D@std@@V?$allocator@D@2@@std@@V?$shared_ptr@VRawImageData@@@2@@std@@PAX@std@@@std@@@std@@SAXAAV?$allocator@U?$_Tree_node@U?$pair@$$CBV?$basic_string@DU?$char_traits@D@std@@V?$allocator@D@2@@std@@V?$shared_ptr@VRawImageData@@@2@@std@@PAX@std@@@1@QAPAU?$_Tree_node@U?$pair@$$CBV?$basic_string@DU?$char_traits@D@std@@V?$allocator@D@2@@std@@V?$shared_ptr@VRawImageData@@@2@@std@@PAX@1@AAPAU31@@Z 0040c350 f i BuilderUI.obj
 0001:0000b380       ??$construct@PAU?$_Tree_node@U?$pair@$$CBV?$basic_string@DU?$char_traits@D@std@@V?$allocator@D@2@@std@@V?$weak_ptr@USpriteData@@@2@@std@@PAX@std@@AAPAU12@@?$_Default_allocator_traits@V?$allocator@U?$_Tree_node@U?$pair@$$CBV?$basic_string@DU?$char_traits@D@std@@V?$allocator@D@2@@std@@V?$weak_ptr@USpriteData@@@2@@std@@PAX@std@@@std@@@std@@SAXAAV?$allocator@U?$_Tree_node@U?$pair@$$CBV?$basic_string@DU?$char_traits@D@std@@V?$allocator@D@2@@std@@V?$weak_ptr@USpriteData@@@2@@std@@PAX@std@@@1@QAPAU?$_Tree_node@U?$pair@$$CBV?$basic_string@DU?$char_traits@D@std@@V?$allocator@D@2@@std@@V?$weak_ptr@USpriteData@@@2@@std@@PAX@1@AAPAU31@@Z 0040c380 f i BuilderUI.obj
 0001:0000b3b0       ??$construct@PAU?$_Tree_node@U?$pair@$$CBV?$basic_string@DU?$char_traits@D@std@@V?$allocator@D@2@@std@@V?$weak_ptr@VRawImageData@@@2@@std@@PAX@std@@AAPAU12@@?$_Default_allocator_traitsePlanetObject.obj
 0001:fffff042       __ehhandler$?erase@?$_Tree@V?$_Tmap_traits@V?$basic_string@DU?$char_traits@D@std@@V?$allocator@D@2@@std@@V?$shared_ptr@VRawImageData@@@2@U?$less@V?$basic_string@DU?$char_traits@D@std@@V?$allocator@D@2@@std@@@2@V?$allocator@U?$pair@$$CBV?$basic_string@DU?$char_traits@D@std@@V?$allocator@D@2@@std@@V?$shared_ptr@VRawImageData@@@2@@std@@@2@$0A@@std@@@std@@QAE?AV?$_Tree_iterator@V?$_Tree_val@U?$_Tree_simple_types@U?$pair@$$CBV?$basic_string@DU?$char_traits@D@std@@V?$allocator@D@2@@std@@V?$shared_ptr@VRawImageData@@@2@@std@@@std@@@std@@@2@V?$_Tree_const_iterator@V?$_Tree_val@U?$_Tree_simple_types@U?$pair@$$CBV?$basic_string@DU?$char_traits@D@std@@V?$allocator@D@2@@std@@V?$shared_ptr@VRawImageData@@@2@@std@@@std@@@std@@@2@0@Z 00400042 f   CelestialBody.obj
 0001:fffff042       __ehhandler$?erase@?$_Tree@V?$_Tmap_traits@V?$basic_string@DU?$char_traits@D@std@@V?$allocator@D@2@@std@@V?$shared_ptr@VRawImageData@@@2@U?$less@V?$basic_string@DU?$char_traits@D@std@@V?$allocator@D@2@@std@@@2@V?$allocator@U?$pair@$$CBV?$basic_string@DU?$char_traits@D@std@@V?$allocator@D@2@@std@@V?$shared_ptr@VRawImageData@@@2@@std@@@2@$0A@@std@@@std@@QAE?AV?$_Tree_iterator@V?$_Tree_val@U?$_Tree_simple_types@U?$pair@$$CBV?$basic_string@DU?$char_traits@D@std@@V?$allocator@D@2@@std@@V?$shared_ptr@VRawImageData@@@2@@std@@@std@@@std@@@2@V?$_Tree_const_iterator@V?$_Tree_val@U?$_Tree_simple_types@U?$pair@$$CBV?$basic_string@DU?$char_traits@D@std@@V?$allocator@D@2@@std@@V?$shared_ptr@VRawImageData@@@2@@std@@@std@@@std@@@2@0@Z 00400042 f   BasicSpacecraft.obj
 0001:fffff042       __ehhandler$?erase@?$_Tree@V?$_Tmap_traits@V?$basic_string@DU?$char_traits@D@std@@V?$allocator@D@2@@std@@V?$shared_ptr@VRawImageData@@@2@U?$less@V?$basic_string@DU?$char_traits@D@std@@V?$allocator@D@2@@std@@@2@V?$allocator@U?$pair@$$CBV?$basic_string@DU?$char_traits@D@std@@V?$allocator@D@2@@std@@V?$shared_ptr@VRawImageData@@@2@@std@@@2@$0A@@std@@@std@@QAE?AV?$_Tree_iterator@V?$_Tree_val@U?$_Tree_simple_types@U?$pair@$$CBV?$basic_string@DU?$char_traits@D@std@@V?$allocator@D@2@@std@@V?$shared_ptr@VRawImageData@@@2@@std@@@std@@@std@@@2@V?$_Tree_const_iterator@V?$_Tree_val@U?$_Tree_simple_types@U?$pair@$$CBV?$basic_string@DU?$char_traits@D@std@@V?$allocator@D@2@@std@@V?$shared_ptr@VRawImageData@@@2@@std@@@std@@@std@@@2@0@Z 00400042 f   SpacecraftControls.obj
 0001:fffff042       __ehhandler$?erase@?$_Tree@V?$_Tmap_traits@V?$basic_string@DU?$char_traits@D@std@@V?$allocator@D@2@@std@@V?$weak_ptr@VRawImageData@@@2@U?$less@V?$basic_string@DU?$char_traits@D@std@@V?$allocator@D@2@@std@@@2@V?$allocator@U?$pair@$$CBV?$basic_string@DU?$char_traits@D@std@@V?$allocator@D@2@@std@@V?$weak_ptr@VRawImageData@@@2@@std@@@2@$0A@@std@@@std@@QAE?AV?$_Tree_iterator@V?$_Tree_val@U?$_Tree_simple_types@U?$pair@$$CBV?$basic_string@DU?$char_traits@D@std@@V?$allocator@D@2@@std@@V?$weak_ptr@VRawImageData@@@2@@std@@@std@@@std@@@2@V?$_Tree_const_iterator@V?$_Tree_val@U?$_Tree_simple_types@U?$pair@$$CBV?$basic_string@DU?$char_traits@D@std@@V?$allocator@D@2@@std@@V?$weak_ptr@VRawImageData@@@2@@std@@@std@@@std@@@2@0@Z 00400042 f   BasicSpacecraft.obj
 0001:fffff042      4BaseEngine.obj
 0001:0004a0c0       ??0<lambda_bcac8b0bc9596c88896ad01f260fa24a>@@QAE@ABQATSDL_Event@@@Z 0044b0c0 f   BaseEngine.obj
 0001:0004a1d2       __catch$??0?$vector@PAVDisplayableObject@@V?$allocator@PAVDisplayableObject@@@std@@@std@@QAE@IABV?$allocator@PAVDisplayableObject@@@1@@Z$0 0044b1d2 f i BaseEngine.obj
 0001:0004a5f0       ??R<lambda_497fa3cc95cba17f614bb29ddf1eb27b>@@QBE@PAVDisplayableObject@@@Z 0044b5f0 f   BaseEngine.obj
 0001:0004a630       ??R<lambda_93a465d5bb5690ea0824b19da678a0f2>@@QBE@PAVDisplayableObject@@@Z 0044b630 f   BaseEngine.obj
 0001:0004a660       ??R<lambda_bcac8b0bc9596c88896ad01f260fa24a>@@QBE@PAVDisplayableObject@@@Z 0044b660 f   BaseEngine.obj
 0001:0004ace0       $LN54                      0044bce0     BaseEngine.obj
 0001:0004acfc       $LN52                      0044bcfc     BaseEngine.obj
 0001:0004ad74       $LN55                      0044bd74     BaseEngine.obj
 0001:0004ae10       $LN53                      0044be10     BaseEngine.obj
 0001:0004d3e0       ?pre_c_initialization@@YAHXZ 0044e3e0 f   MSVCRTD:exe_main.obj
 0001:0004d490       ?post_pgo_initialization@@YAHXZ 0044e490 f   MSVCRTD:exe_main.obj
 0001:0004d4a0       ?pre_cpp_initialization@@YAXXZ 0044e4a0 f   MSVCRTD:exe_main.obj
 0001:0004d4c0       ?__scrt_common_main@@YAHXZ 0044e4c0 f   MSVCRTD:exe_main.obj
 0001:0004d4d0       ?__scrt_common_main_seh@@YAHXZ 0044e4d0 f   MSVCRTD:exe_main.obj
 0001:0004d720       ?invoke_main@@YAHXZ        0044e720 f   MSVCRTD:exe_main.obj
 0001:0004d8d0       ?find_pe_section@@YAPAU_IMAGE_SECTION_HEADER@@QAEI@Z 0044e8d0 f   MSVCRTD:utility.obj
 0001:0004d960       ?is_potentially_valid_image_base@@YA_NQAX@Z 0044e960 f   MSVCRTD:utility.obj
 0001:0004df30       ?__scrt_initialize_thread_safe_statics@@YAHXZ 0044ef30 f   MSVCRTD:thread_safe_statics.obj
 0001:0004e030       ?__scrt_initialize_thread_safe_statics_platform_specific@@YAXXZ 0044f030 f   MSVCRTD:thread_safe_statics.obj
 0001:0004e190       ?__scrt_uninitialize_thread_safe_statics@@YAXXZ 0044f190 f   MSVCRTD:thread_safe_statics.obj
 0001:0004e420       $$000000                   0044f420     MSVCRTD:llmul.obj
 0001:0004e460       $$000000                   0044f460     MSVCRTD:llshl.obj
 0001:0004e480       $$000000                   0044f480     MSVCRTD:llshr.obj
 0001:0004e4b0       $$000000                   0044f4b0     MSVCRTD:ullshr.obj
 0001:0004e4d0       $$000000                   0044f4d0     MSVCRTD:chkstk.obj
 0001:0004e500       $$000000                   0044f500     MSVCRTD:ftol3.obj
 0001:0004e8d0       $$000000                   0044f8d0     MSVCRTD:ftol2.obj
 0001:0004e990       ___get_entropy             0044f990 f   MSVCRTD:gs_support.obj
 0001:0004fb10       _ParseCommandLine          00450b10 f   SDL2main:SDL_windows_main.obj
 0001:0004fc30       _main_getcmdline           00450c30 f   SDL2main:SDL_windows_main.obj
 0001:0004fe50       __unwindfunclet$??0BuilderUI@@QAE@PAVKSP2D@@@Z$0 00450e50 f   BuilderUI.obj
 0001:0004fe62       __unwindfunclet$??0BuilderUI@@QAE@PAVKSP2D@@@Z$2 00450e62 f   BuilderUI.obj
 0001:0004fe74       __unwindfunclet$??0BuilderUI@@QAE@PAVKSP2D@@@Z$3 00450e74 f   BuilderUI.obj
 0001:0004fe86       __unwindfunclet$??0BuilderUI@@QAE@PAVKSP2D@@@Z$5 00450e86 f   BuilderUI.obj
 0001:0004fe98       __unwindfunclet$??0BuilderUI@@QAE@PAVKSP2D@@@Z$7 00450e98 f   BuilderUI.obj
 0001:0004feaa       __ehhandler$??0BuilderUI@@QAE@PAVKSP2D@@@Z 00450eaa f   BuilderUI.obj
 0001:0004fed0       __unwindfunclet$??$?0ABV?$allocator@D@std@@X@?$_String_alloc@U?$_String_base_types@DV?$allocator@D@std@@@std@@@std@@QAE@ABV?$allocator@D@1@@Z$0 00450ed0 f   BuilderUI.obj
 0001:0004fed8       __ehhandler$??$?0ABV?$allocator@D@std@@X@?$_String_alloc@U?$_String_base_types@DV?$allocator@D@std@@@std@@@std@@QAE@ABV?$allocator@D@1@@Z 00450ed8 f   BuilderUI.obj
 0001:0004ff00       __unwindfunclet$??$?0PADX@?$basic_string@DU?$char_traits@D@std@@V?$allocator@D@2@@std@@QAE@PAD0ABV?$allocator@D@1@@Z$0 00450f00 f   BuilderUI.obj
 0001:0004ff08       __ehhandler$??$?0PADX@?$basic_string@DU?$char_traits@D@std@@V?$allocator@D@2@@std@@QAE@PAD0ABV?$allocator@D@1@@Z 00450f08 f   BuilderUI.obj
 0001:0004ff30       __ehhandler$??$?0USpriteData@@$0A@@?$weak_ptr@USpriteData@@@std@@QAE@ABV?$shared_ptr@USpriteData@@@1@@Z 00450f30 f   BuilderUI.obj
 0001:0004ff50       __unwindfunclet$??$?0V<lambda_3a905bc70563c738712533e87930e958>@@X@?$function@$$A6AXXZ@std@@QAE@V<lambda_3a905bc70563c738712533e87930e958>@@@Z$0 00450f50 f   BuilderUI.obj
 0001:0004ff58       __ehhandler$??$?0V<lambda_3a905bc70563c738712533e87930e958>@@X@?$function@$$A6AXXZ@std@@QAE@V<lambda_3a905bc70563c738712533e87930e958>@@@Z 00450f58 f   BuilderUI.obj
 0001:0004ff80       __unwindfunclet$??$?0V<lambda_7c2dbb44a5d32349ebb3491b2c88eec0>@@X@?$function@$$A6AXXZ@std@@QAE@V<lambda_7c2dbb44a5d32349ebb3491b2c88eec0>@@@Z$0 00450f80 f   BuilderUI.obj
 0001:0004ff88       __ehhandler$??$?0V<lambda_7c2dbb44a5d32349ebb3491b2c88eec0>@@X@?$function@$$A6AXXZ@std@@QAE@V<lambda_7c2dbb44a5d32349ebb3491b2c88eec0>@@@Z 00450f88 f   BuilderUI.obj
 0001:0004ffb0       __unwindfunclet$??$?0V<lambda_8e08e5546d00afac20621fd5d0739336>@@X@?$function@$$A6AXXZ@std@@QAE@V<lambda_8e08e5546d00afac20621fd5d0739336>@@@Z$0 00450fb0 f   BuilderUI.obj
 0001:0004ffb8       __ehhandler$??$?0V<lambda_8e08e5546d00afac20621fd5d0739336>@@X@?$function@$$A6AXXZ@std@@QAE@V<lambda_8e08e5546d00afac20621fd5d0739336>@@@Z 00450fb8 f   BuilderUI.obj
 0001:0004ffe0       __unwindfunclet$??$?0V?$allocator@D@std@@X@?$_String_alloc@U?$_String_base_types@DV?$allocator@D@std@@@std@@@std@@QAE@$$QAV?$allocator@D@1@@Z$0 00450fe0 f   BuilderUI.obj
 0001:0004ffe8       __ehhandler$??$?0V?$allocator@D@std@@X@?$_String_alloc@U?$_String_base_types@DV?$allocator@D@std@@@std@@@std@@QAE@$$QAV?$allocator@D@1@@Z 00450fe8 f   BuilderUI.obj
 0001:00050010       __ehhandler$??$?0VRawImageData@@$0A@@?$weak_ptr@VRawImageData@@@std@@QAE@ABV?$shared_ptr@VRawImageData@@@1@@Z 00451010 f   BuilderUI.obj
 0001:00050030       __unwindfunclet$??$?6U?$char_traits@D@std@@@std@@YAAAV?$basic_ostream@DU?$char_traits@D@std@@@0@AAV10@PBD@Z$2 00451030 f   BuilderUI.obj
 0001:00050038       __ehhandler$??$?6U?$char_traits@D@std@@@std@@YAAAV?$basic_ostream@DU?$char_traits@D@std@@@0@AAV10@PBD@Z 00451038 f   BuilderUI.obj
 0001:00050060       __unwindfunclet$??$?A$$CBD@?$GenericValue@U?$UTF8@D@rapidjson@@V?$MemoryPoolAllocator@VCrtAllocator@rapidjson@@@2@@rapidjson@@QAEAAV01@PBD@Z$0 00451060 f   BuilderUI.obj
 0001:00050068       __ehhandler$??$?A$$CBD@?$GenericValue@U?$UTF8@D@rapidjson@@V?$MemoryPoolAllocator@VCrtAllocator@rapidjson@@@2@@rapidjson@@QAEAAV01@PBD@Z 00451068 f   BuilderUI.obj
 0001:00050090       __unwindfunclet$??$IterativeParse@$0A@VFileReadStream@rapidjson@@V?$GenericDocument@U?$UTF8@D@rapidjson@@V?$MemoryPoolAllocator@VCrtAllocator@rapidjson@@@2@VCrtAllocator@2@@2@@?$GenericReader@U?$UTF8@D@rapidjson@@U12@VCrtAllocator@2@@rapidjson@@AAE?AUParseResult@1@AAVFileReadStream@1@AAV?$GenericDocument@U?$UTF8@D@rapidjson@@V?$MemoryPoolAllocator@VCrtAllocator@rapidjson@@@2@VCrtAllocator@2@@1@@Z$0 00451090 f   BuilderUI.obj
 0001:00050098       __ehhandler$??$IterativeParse@$0A@VFileReadStream@rapidjson@@V?$GenericDocument@U?$UTF8@D@rapidjson@@V?$MemoryPoolAllocator@VCrtAllocator@rapidjson@@@2@VCrtAllocator@2@@2@@?$GenericReader@U?$UTF8@D@rapidjson@@U12@VCrtAllocator@2@@rapidjson@@AAE?AUParseResult@1@AAVFileReadStream@1@AAV?$GenericDocument@U?$UTF8@D@rapidjson@@V?$MemoryPoolAllocator@VCrtAllocator@rapidjson@@@2@VCrtAllocator@2@@1@@Z 00451098 f   BuilderUI.obj
 0001:000500c0       __unwindfunclet$??$Parse@$0A@VFileReadStream@rapidjson@@V?$GenericDocument@U?$UTF8@D@rapidjson@@V?$MemoryPoolAllocator@VCrtAllocator@rapidjson@@@2@VCrtAllocator@2@@2@@?$GenericReader@U?$UTF8@D@rapidjson@@U12@VCrtAllocator@2@@rapidjson@@QAE?AUParseResult@1@AAVFileReadStream@1@AAV?$GenericDocument@U?$UTF8@D@rapidjson@@V?$MemoryPoolAllocator@VCrtAllocator@rapidjson@@@2@VCrtAllocator@2@@1@@Z$0 004510c0 f   BuilderUI.obj
 0001:000500c8       __ehhandler$??$Parse@$0A@VFileReadStream@rapidjson@@V?$GenericDocument@U?$UTF8@D@rapidjson@@V?$MemoryPoolAllocator@VCrtAllocator@rapidjson@@@2@VCrtAllocator@2@@2@@?$GenericReader@U?$UTF8@D@rapidjson@@U12@VCrtAllocator@2@@rapidjson@@QAE?AUParseResult@1@AAVFileReadStream@1@AAV?$GenericDocument@U?$UTF8@D@rapidjson@@V?$MemoryPoolAllocator@VCrtAllocator@rapidjson@@@2@VCrtAllocator@2@@1@@Z 004510c8 f   BuilderUI.obj
 0001:000500f0       __unwindfunclet$??$ParseStream@$0A@U?$UTF8@D@rapidjson@@VFileReadStream@2@@?$GenericDocument@U?$UTF8@D@rapidjson@@V?$MemoryPoolAllocator@VCrtAllocator@rapidjson@@@2@VCrtAllocator@2@@rapidjson@@QAEAAV01@AAVFileReadStream@1@@Z$0 004510f0 f   BuilderUI.obj
 0001:000500f8       __unwindfunclet$??$ParseStream@$0A@U?$UTF8@D@rapidjson@@VFileReadStream@2@@?$GenericDocument@U?$UTF8@D@rapidjson@@V?$MemoryPoolAllocator@VCrtAllocator@rapidjson@@@2@VCrtAllocator@2@@rapidjson@@QAEAAV01@AAVFileReadStream@1@@Z$1 004510f8 f   BuilderUI.obj
 0001:00050100       __ehhandler$??$ParseStream@$0A@U?$UTF8@D@rapidjson@@VFileReadStream@2@@?$GenericDocument@U?$UTF8@D@rapidjson@@V?$MemoryPoolAllocator@VCrtAllocator@rapidjson@@@2@VCrtAllocator@2@@rapidjson@@QAEAAV01@AAVFileReadStream@1@@Z 00451100 f   BuilderUI.obj
 0001:00050120       __ehhandler$??$_Buynode@U?$pair@V?$basic_string@DU?$char_traits@D@std@@V?$allocator@D@2@@std@@V?$shared_ptr@VRawImageData@@@2@@std@@@?$_Tree_comp_alloc@V?$_Tmap_traits@V?$basic_string@DU?$char_traits@D@std@@V?$allocator@D@2@@std@@V?$shared_ptr@VRawImageData@@@2@U?$less@V?$basic_string@DU?$char_traits@D@std@@V?$allocator@D@2@@std@@@2@V?$allocator@U?$pair@$$CBV?$basic_string@DU?$char_traits@D@std@@V?$allocator@D@2@@std@@V?$shared_ptr@VRawImageData@@@2@@std@@@2@$0A@@std@@@std@@QAEPAU?$_Tree_node@U?$pair@$$CBV?$basic_string@DU?$char_traits@D@std@@V?$allocator@D@2@@std@@V?$shared_ptr@VRawImageData@@@2@@std@@PAX@1@$$QAU?$pair@V?$basic_string@DU?$char_traits@D@std@@V?$allocator@D@2@@std@@V?$shared_ptr@VRawImageData@@@2@@1@@Z 00451120 f   BuilderUI.obj
 0001:00050140       __ehhandler$??$_Buynode@U?$pair@V?$basic_string@DU?$char_traits@D@std@@V?$allocator@D@2@@std@@V?$weak_ptr@USpriteData@@@2@@std@@@?$_Tree_comp_alloc@V?$_Tmap_traits@V?$basic_string@DU?$char_traits@D@std@@V?$allocator@D@2@@std@@V?$weak_ptr@USpriteData@@@2@U?$less@V?$basic_string@DU?$char_traits@D@std@@V?$allocator@D@2@@std@@@2@V?$allocator@U?$pair@$$CBV?$basic_string@DU?$char_traits@D@std@@V?$allocator@D@2@@std@@V?$weak_ptr@USpriteData@@@2@@std@@@2@$0A@@std@@@std@@QAEPAU?$_Tree_node@U?$pair@$$CBV?$basic_string@DU?$char_traits@D@std@@V?$allocator@D@2@@std@@V?$weak_ptr@USpriteData@@@2@@std@@PAX@1@$$QAU?$pair@V?$basic_string@DU?$char_traits@D@std@@V?$allocator@D@2@@std@@V?$weak_ptr@USpriteData@@@2@@1@@Z 00451140 f   BuilderUI.obj
 0001:00050160       __ehhandler$??$_Buynode@U?$pair@V?$basic_string@DU?$char_traits@D@std@@V?$allocator@D@2@@std@@V?$weak_ptr@VRawImageData@@@2@@std@@@?$_Tree_comp_alloc@V?$_Tmap_traits@V?$basic_string@DU?$char_traits@D@std@@V?$allocator@D@2@@std@@V?$weak_ptr@VRawImageData@@@2@U?$less@V?$basic_string@DU?$char_traits@D@std@@V?$allocator@D@2@@std@@@2@V?$allocator@U?$pair@$$CBV?$basic_string@DU?$char_traits@D@std@@V?$allocator@D@2@@std@@V?$weak_ptr@VRawImageData@@@2@@std@@@2@$0A@@std@@@std@@QAEPAU?$_Tree_node@U?$pair@$$CBV?$basic_string@DU?$char_traits@D@std@@V?$allocator@D@2@@std@@V?$weak_ptr@VRawImageData@@@2@@std@@PAX@1@$$QAU?$pair@V?$basic_string@DU?$char_traits@D@std@@V?$allocator@D@2@@std@@V?$weak_ptr@VRawImageData@@@2@@1@@Z 00451160 f   BuilderUI.obj
 0001:00050180       __ehhandler$??$_Emplace_reallocate@ABQAVDisplayableObject@@@?$vector@PAVDisplayableObject@@V?$allocator@PAVDisplayableObject@@@std@@@std@@QAEPAPAVDisplayableObject@@QAPAV2@ABQAV2@@Z 00451180 f   BuilderUI.obj
 0001:000501a0       __ehhandler$??$_Emplace_reallocate@PAVSimpleImage@@@?$vector@PAVSimpleImage@@V?$allocator@PAVSimpleImage@@@std@@@std@@QAEPAPAVSimpleImage@@QAPAV2@$$QAPAV2@@Z 004511a0 f   BuilderUI.obj
 0001:000501c0       __ehhandler$??$_Emplace_reallocate@V?$basic_string@DU?$char_traits@D@std@@V?$allocator@D@2@@std@@@?$vector@V?$basic_string@DU?$char_traits@D@std@@V?$allocator@D@2@@std@@V?$allocator@V?$basic_string@DU?$char_traits@D@std@@V?$allocator@D@2@@std@@@2@@std@@QAEPAV?$basic_string@DU?$char_traits@D@std@@V?$allocator@D@2@@1@QAV21@$$QAV21@@Z 004511c0 f   BuilderUI.obj
 0001:000501e0       __ehhandler$??$_Freenode0@V?$allocator@U?$_Tree_node@U?$pair@$$CBV?$basic_string@DU?$char_traits@D@std@@V?$allocator@D@2@@std@@V?$shared_ptr@UPartData@@@2@@std@@PAX@std@@@std@@@?$_Tree_node@U?$pair@$$CBV?$basic_string@DU?$char_traits@D@std@@V?$allocator@D@2@@std@@V?$shared_ptr@UPartData@@@2@@std@@PAX@std@@SAXAAV?$allocator@U?$_Tree_node@U?$pair@$$CBV?$basic_string@DU?$char_traits@D@std@@V?$allocator@D@2@@std@@V?$shared_ptr@UPartData@@@2@@std@@PAX@std@@@1@PAU01@@Z 004511e0 f   BuilderUI.obj
 0001:00050200       __ehhandler$??$_Freenode0@V?$allocator@U?$_Tree_node@U?$pair@$$CBV?$basic_string@DU?$char_traits@D@std@@V?$allocator@D@2@@std@@V?$shared_ptr@VRawImageData@@@2@@std@@PAX@std@@@std@@@?$_Tree_node@U?$pair@$$CBV?$basic_string@DU?$char_traits@D@std@@V?$allocator@D@2@@std@@V?$shared_ptr@VRawImageData@@@2@@std@@PAX@std@@SAXAAV?$allocator@U?$_Tree_node@U?$pair@$$CBV?$basic_string@DU?$char_traits@D@std@@V?$allocator@D@2@@std@@V?$shared_ptr@VRawImageData@@@2@@std@@PAX@std@@@1@PAU01@@Z 00451200 f   BuilderUI.obj
 0001:00050220       __ehhandler$??$_Freenode0@V?$allocator@U?$_Tree_node@U?$pair@$$CBV?$basic_string@DU?$char_traits@D@std@@V?$allocator@D@2@@std@@V?$weak_ptr@USpriteData@@@2@@std@@PAX@std@@@std@@@?$_Tree_node@U?$pair@$$CBV?$basic_string@DU?$char_traits@D@std@@V?$allocator@D@2@@std@@V?$weak_ptr@USpriteData@@@2@@std@@PAX@std@@SAXAAV?$allocator@U?$_Tree_node@U?$pair@$$CBV?$basic_string@DU?$char_traits@D@std@@V?$allocator@D@2@@std@@V?$weak_ptr@USpriteData@@@2@@std@@PAX@std@@@1@PAU01@@Z 00451220 f   BuilderUI.obj
 0001:00050240       __ehhandler$??$_Freenode0@V?$allocator@U?$_Tree_node@U?$pair@$$CBV?$basic_string@DU?$char_traits@D@std@@V?$allocator@D@2@@std@@V?$weak_ptr@VRawImageData@@@2@@std@@PAX@std@@@std@@@?$_Tree_node@U?$pair@$$CBV?$basic_string@DU?$char_traits@D@std@@V?$allocator@D@2@@std@@V?$weak_ptr@VRawImageData@@@2@@std@@PAX@std@@SAXAAV?$allocator@U?$_Tree_node@U?$pair@$$CBV?$basic_string@DU?$char_traits@D@std@@V?$allocator@D@2@@std@@V?$weak_ptr@VRawImageData@@@2@@std@@PAX@std@@@1@PAU01@@Z 00451240 f   BuilderUI.obj
 0001:00050260       __unwindfunclet$??$_Insert_nohint@AAU?$pair@$$CBV?$basic_string@DU?$char_traits@D@std@@V?$allocator@D@2@@std@@V?$shared_ptr@VRawImageData@@@2@@std@@PAU?$_Tree_node@U?$pair@$$CBV?$basic_string@DU?$char_traits@D@std@@V?$allocator@D@2@@std@@V?$shared_ptr@VRawImageData@@@2@@std@@PAX@2@@?$_Tree@V?$_Tmap_traits@V?$basic_string@DU?$char_traits@D@std@@V?$allocator@D@2@@std@@V?$shared_ptr@VRawImageData@@@2@U?$less@V?$basic_string@DU?$char_traits@D@std@@V?$allocator@D@2@@std@@@2@V?$allocator@U?$pair@$$CBV?$basic_string@DU?$char_traits@D@std@@V?$allocator@D@2@@std@@V?$shared_ptr@VRawImageData@@@2@@std@@@2@$0A@@std@@@std@@IAE?AU?$pair@V?$_Tree_iterator@V?$_Tree_val@U?$_Tree_simple_types@U?$pair@$$CBV?$basic_string@DU?$char_traits@D@std@@V?$allocator@D@2@@std@@V?$shared_ptr@VRawImageData@@@2@@std@@@std@@@std@@@std@@_N@1@_NAAU?$pair@$$CBV?$basic_string@DU?$char_traits@D@std@@V?$allocator@D@2@@std@@V?$shared_ptr@VRawImageData@@@2@@1@PAU?$_Tree_node@U?$pair@$$CBV?$basic_string@DU?$char_traits@D@std@@V?$allocator@D@2@@std@@V?$shared_ptr@VRawImageData@@@2@@std@@PAX@1@@Z$4 00451260 f   BuilderUI.obj
 0001:00050268       __unwindfunclet$??$_Insert_nohint@AAU?$pair@$$CBV?$basic_string@DU?$char_traits@D@std@@V?$allocator@D@2@@std@@V?$shared_ptr@VRawImageData@@@2@@std@@PAU?$_Tree_node@U?$pair@$$CBV?$basic_string@DU?$char_traits@D@std@@V?$allocator@D@2@@std@@V?$shared_ptr@VRawImageData@@@2@@std@@PAX@2@@?$_Tree@V?$_Tmap_traits@V?$basic_string@DU?$char_traits@D@std@@V?$allocator@D@2@@std@@V?$shared_ptr@VRawImageData@@@2@U?$less@V?$basic_string@DU?$char_traits@D@std@@V?$allocator@D@2@@std@@@2@V?$allocator@U?$pair@$$CBV?$basic_string@DU?$char_traits@D@std@@V?$allocator@D@2@@std@@V?$shared_ptr@VRawImageData@@@2@@std@@@2@$0A@@std@@@std@@IAE?AU?$pair@V?$_Tree_iterator@V?$_Tree_val@U?$_Tree_simple_types@U?$pair@$$CBV?$basic_string@DU?$char_traits@D@std@@V?$allocator@D@2@@std@@V?$shared_ptr@VRawImageData@@@2@@std@@@std@@@std@@@std@@_N@1@_NAAU?$pair@$$CBV?$basic_string@DU?$char_traits@D@std@@V?$allocator@D@2@@std@@V?$shared_ptr@VRawImageData@@@2@@1@PAU?$_Tree_node@U?$pair@$$CBV?$basic_string@DU?$char_traits@D@std@@V?$allocator@D@2@@std@@V?$shared_ptr@VRawImageData@@@2@@std@@PAX@1@@Z$5 00451268 f   BuilderUI.obj
 0001:00050273       __ehhandler$??$_Insert_nohint@AAU?$pair@$$CBV?$basic_string@DU?$char_traits@D@std@@V?$allocator@D@2@@std@@V?$shared_ptr@VRawImageData@@@2@@std@@PAU?$_Tree_node@U?$pair@$$CBV?$basic_string@DU?$char_traits@D@std@@V?$allocator@D@2@@std@@V?$shared_ptr@VRawImageData@@@2@@std@@PAX@2@@?$_Tree@V?$_Tmap_traits@V?$basic_string@DU?$char_traits@D@std@@V?$allocator@D@2@@std@@V?$shared_ptr@VRawImageData@@@2@U?$less@V?$basic_string@DU?$char_traits@D@std@@V?$allocator@D@2@@std@@@2@V?$allocator@U?$pair@$$CBV?$basic_string@DU?$char_traits@D@std@@V?$allocator@D@2@@std@@V?$shared_ptr@VRawImageData@@@2@@std@@@2@$0A@@std@@@std@@IAE?AU?$pair@V?$_Tree_iterator@V?$_Tree_val@U?$_Tree_simple_types@U?$pair@$$CBV?$basic_string@DU?$char_traits@D@std@@V?$allocator@D@2@@std@@V?$shared_ptr@VRawImageData@@@2@@std@@@std@@@std@@@std@@_N@1@_NAAU?$pair@$$CBV?$basic_string@DU?$char_traits@D@std@@V?$allocator@D@2@@std@@V?$shared_ptr@VRawImageData@@@2@@1@PAU?$_Tree_node@U?$pair@$$CBV?$basic_string@DU?$char_traits@D@std@@V?$allocator@D@2@@std@@V?$shared_ptr@VRawImageData@@@2@@std@@PAX@1@@Z 00451273 f   BuilderUI.obj
 0001:000502a0       __unwindfunclet$??$_Insert_nohint@AAU?$pair@$$CBV?$basic_string@DU?$char_traits@D@std@@V?$allocator@D@2@@std@@V?$weak_ptr@USpriteData@@@2@@std@@PAU?$_Tree_node@U?$pair@$$CBV?$basic_string@DU?$char_traits@D@std@@V?$allocator@D@2@@std@@V?$weak_ptr@USpriteData@@@2@@std@@PAX@2@@?$_Tree@V?$_Tmap_traits@V?$basic_string@DU?$char_traits@D@std@@V?$allocator@D@2@@std@@V?$weak_ptr@USpriteData@@@2@U?$less@V?$basic_string@DU?$char_traits@D@std@@V?$allocator@D@2@@std@@@2@V?$allocator@U?$pair@$$CBV?$basic_string@DU?$char_traits@D@std@@V?$allocator@D@2@@std@@V?$weak_ptr@USpriteData@@@2@@std@@@2@$0A@@std@@@std@@IAE?AU?$pair@V?$_Tree_iterator@V?$_Tree_val@U?$_Tree_simple_types@U?$pair@$$CBV?$basic_string@DU?$char_traits@D@std@@V?$allocator@D@2@@std@@V?$weak_ptr@USpriteData@@@2@@std@@@std@@@std@@@std@@_N@1@_NAAU?$pair@$$CBV?$basic_string@DU?$char_traits@D@std@@V?$allocator@D@2@@std@@V?$weak_ptr@USpriteData@@@2@@1@PAU?$_Tree_node@U?$pair@$$CBV?$basic_string@DU?$char_traits@D@std@@V?$allocator@D@2@@std@@V?$weak_ptr@USpriteData@@@2@@std@@PAX@1@@Z$4 004512a0 f   BuilderUI.obj
 0001:000502a8       __unwindfunclet$??$_Insert_nohint@AAU?$pair@$$CBV?$basic_string@DU?$char_traits@D@std@@V?$allocator@D@2@@std@@V?$weak_ptr@USpriteData@@@2@@std@@PAU?$_Tree_node@U?$pair@$$CBV?$basic_string@DU?$char_traits@D@std@@V?$allocator@D@2@@std@@V?$weak_ptr@USpriteData@@@2@@std@@PAX@2@@?$_Tree@V?$_Tmap_traits@V?$basic_string@DU?$char_traits@D@std@@V?$allocator@D@2@@std@@V?$weak_ptr@USpriteData@@@2@U?$less@V?$basic_string@DU?$char_traits@D@std@@V?$allocator@D@2@@std@@@2@V?$allocator@U?$pair@$$CBV?$basic_string@DU?$char_traits@D@std@@V?$allocator@D@2@@std@@V?$weak_ptr@USpriteData@@@2@@std@@@2@$0A@@std@@@std@@IAE?AU?$pair@V?$_Tree_iterator@V?$_Tree_val@U?$_Tree_simple_types@U?$pair@$$CBV?$basic_string@DU?$char_traits@D@std@@V?$allocator@D@2@@std@@V?$weak_ptr@USpriteData@@@2@@std@@@std@@@std@@@std@@_N@1@_NAAU?$pair@$$CBV?$basic_string@DU?$char_traits@D@std@@V?$allocator@D@2@@std@@V?$weak_ptr@USpriteData@@@2@@1@PAU?$_Tree_node@U?$pair@$$CBV?$basic_string@DU?$char_traits@D@std@@V?$allocator@D@2@@std@@V?$weak_ptr@USpriteData@@@2@@std@@PAX@1@@Z$5 004512a8 f   BuilderUI.obj
 0001:000502b3       __ehhandler$??$_Insert_nohint@AAU?$pair@$$CBV?$basic_string@DU?$char_traits@D@std@@V?$allocator@D@2@@std@@V?$weak_ptr@USpriteData@@@2@@std@@PAU?$_Tree_node@U?$pair@$$CBV?$basic_string@DU?$char_traits@D@std@@V?$allocator@D@2@@std@@V?$weak_ptr@USpriteData@@@2@@std@@PAX@2@@?$_Tree@V?$_Tmap_traits@V?$basic_string@DU?$char_traits@D@std@@V?$allocator@D@2@@std@@V?$weak_ptr@USpriteData@@@2@U?$less@V?$basic_string@DU?$char_traits@D@std@@V?$allocator@D@2@@std@@@2@V?$allocator@U?$pair@$$CBV?$basic_string@DU?$char_traits@D@std@@V?$allocator@D@2@@std@@V?$weak_ptr@USpriteData@@@2@@std@@@2@$0A@@std@@@std@@IAE?AU?$pair@V?$_Tree_iterator@V?$_Tree_val@U?$_Tree_simple_types@U?$pair@$$CBV?$basic_string@DU?$char_traits@D@std@@V?$allocator@D@2@@std@@V?$weak_ptr@USpriteData@@@2@@std@@@std@@@std@@@std@@_N@1@_NAAU?$pair@$$CBV?$basic_string@DU?$char_traits@D@std@@V?$allocator@D@2@@std@@V?$weak_ptr@USpriteData@@@2@@1@PAU?$_Tree_node@U?$pair@$$CBV?$basic_string@DU?$char_traits@D@std@@V?$allocator@D@2@@std@@V?$weak_ptr@USpriteData@@@2@@std@@PAX@1@@Z 004512b3 f   BuilderUI.obj
 0001:000502e0       __unwindfunclet$??$_Insert_nohint@AAU?$pair@$$CBV?$basic_string@DU?$char_traits@D@std@@V?$allocator@D@2@@std@@V?$weak_ptr@VRawImageData@@@2@@std@@PAU?$_Tree_node@U?$pair@$$CBV?$basic_string@DU?$char_traits@D@std@@V?$allocator@D@2@@std@@V?$weak_ptr@VRawImageData@@@2@@std@@PAX@2@@?$_Tree@V?$_Tmap_traits@V?$basic_string@DU?$char_traits@D@std@@V?$allocator@D@2@@std@@V?$weak_ptr@VRawImageData@@@2@U?$less@V?$basic_string@DU?$char_traits@D@std@@V?$allocator@D@2@@std@@@2@V?$allocator@U?$pair@$$CBV?$basic_string@DU?$char_traits@D@std@@V?$allocator@D@2@@std@@V?$weak_ptr@VRawImageData@@@2@@std@@@2@$0A@@std@@@std@@IAE?AU?$pair@V?$_Tree_iterator@V?$_Tree_val@U?$_Tree_simple_types@U?$pair@$$CBV?$basic_string@DU?$char_traits@D@std@@V?$allocator@D@2@@std@@V?$weak_ptr@VRawImageData@@@2@@std@@@std@@@std@@@std@@_N@1@_NAAU?$pair@$$CBV?$basic_string@DU?$char_traits@D@std@@V?$allocator@D@2@@std@@V?$weak_ptr@VRawImageData@@@2@@1@PAU?$_Tree_node@U?$pair@$$CBV?$basic_string@DU?$char_traits@D@std@@V?$allocator@D@2@@std@@V?$weak_ptr@VRawImageData@@@2@@std@@PAX@1@@Z$4 004512e0 f   BuilderUI.obj
 0001:000502e8       __unwindfunclet$??$_Insert_nohint@AAU?$pair@$$CBV?$basic_string@DU?$char_traits@D@std@@V?$allocator@D@2@@std@@V?$weak_ptr@VRawImageData@@@2@@std@@PAU?$_Tree_node@U?$pair@$$CBV?$basic_string@DU?$char_traits@D@std@@V?$allocator@D@2@@std@@V?$weak_ptr@VRawImageData@@@2@@std@@PAX@2@@?$_Tree@V?$_Tmap_traits@V?$basic_string@DU?$char_traits@D@std@@V?$allocator@D@2@@std@@V?$weak_ptr@VRawImageData@@@2@U?$less@V?$basic_string@DU?$char_traits@D@std@@V?$allocator@D@2@@std@@@2@V?$allocator@U?$pair@$$CBV?$basic_string@DU?$char_traits@D@std@@V?$allocator@D@2@@std@@V?$weak_ptr@VRawImageData@@@2@@std@@@2@$0A@@std@@@std@@IAE?AU?$pair@V?$_Tree_iterator@V?$_Tree_val@U?$_Tree_simple_types@U?$pair@$$CBV?$basic_string@DU?$char_traits@D@std@@V?$allocator@D@2@@std@@V?$weak_ptr@VRawImageData@@@2@@std@@@std@@@std@@@std@@_N@1@_NAAU?$pair@$$CBV?$basic_string@DU?$char_traits@D@std@@V?$allocator@D@2@@std@@V?$weak_ptr@VRawImageData@@@2@@1@PAU?$_Tree_node@U?$pair@$$CBV?$basic_string@DU?$char_traits@D@std@@V?$allocator@D@2@@std@@V?$weak_ptr@VRawImageData@@@2@@std@@PAX@1@@Z$5 004512e8 f   BuilderUI.obj
 0001:000502f3       __ehhandler$??$_Insert_nohint@AAU?$pair@$$CBV?$basic_string@DU?$char_traits@D@std@@V?$allocator@D@2@@std@@V?$weak_ptr@VRawImageData@@@2@@std@@PAU?$_Tree_node@U?$pair@$$CBV?$basic_string@DU?$char_traits@D@std@@V?$allocator@D@2@@std@@V?$weak_ptr@VRawImageData@@@2@@std@@PAX@2@@?$_Tree@V?$_Tmap_traits@V?$basic_string@DU?$char_traits@D@std@@V?$allocator@D@2@@std@@V?$weak_ptr@VRawImageData@@@2@U?$less@V?$basic_string@DU?$char_traits@D@std@@V?$allocator@D@2@@std@@@2@V?$allocator@U?$pair@$$CBV?$basic_string@DU?$char_traits@D@std@@V?$allocator@D@2@@std@@V?$weak_ptr@VRawImageData@@@2@@std@@@2@$0A@@std@@@std@@IAE?AU?$pair@V?$_Tree_iterator@V?$_Tree_val@U?$_Tree_simple_types@U?$pair@$$CBV?$basic_string@DU?$char_traits@D@std@@V?$allocator@D@2@@std@@V?$weak_ptr@VRawImageData@@@2@@std@@@std@@@std@@@std@@_N@1@_NAAU?$pair@$$CBV?$basic_string@DU?$char_traits@D@std@@V?$allocator@D@2@@std@@V?$weak_ptr@VRawImageData@@@2@@1@PAU?$_Tree_node@U?$pair@$$CBV?$basic_string@DU?$char_traits@D@std@@V?$allocator@D@2@@std@@V?$weak_ptr@VRawImageData@@@2@@std@@PAX@1@@Z 004512f3 f   BuilderUI.obj
 0001:00050320       __unwindfunclet$??$_Insert_string@DU?$char_traits@D@std@@I@std@@YAAAV?$basic_ostream@DU?$char_traits@D@std@@@0@AAV10@QBDI@Z$2 00451320 f   BuilderUI.obj
 0001:00050328       __ehhandler$??$_Insert_string@DU?$char_traits@D@std@@I@std@@YAAAV?$basic_ostream@DU?$char_traits@D@std@@@0@AAV10@QBDI@Z 00451328 f   BuilderUI.obj
 0001:00050350       __unwindfunclet$??$_Setp@USpriteData@@@?$shared_ptr@USpriteData@@@std@@AAEXPAUSpriteData@@U?$integral_constant@_N$0A@@1@@Z$2 00451350 f   BuilderUI.obj
 0001:0005035f       __ehhandler$??$_Setp@USpriteData@@@?$shared_ptr@USpriteData@@@std@@AAEXPAUSpriteData@@U?$integral_constant@_N$0A@@1@@Z 0045135f f   BuilderUI.obj
 0001:00050380       __unwindfunclet$??$_Setp@VRawImageData@@@?$shared_ptr@VRawImageData@@@std@@AAEXPAVRawImageData@@U?$integral_constant@_N$0A@@1@@Z$2 00451380 f   BuilderUI.obj
 0001:0005038f       __ehhandler$??$_Setp@VRawImageData@@@?$shared_ptr@VRawImageData@@@std@@AAEXPAVRawImageData@@U?$integral_constant@_N$0A@@1@@Z 0045138f f   BuilderUI.obj
 0001:000503b0       __unwindfunclet$??$_Uninitialized_move_al_unchecked@PAV?$basic_string@DU?$char_traits@D@std@@V?$allocator@D@2@@std@@PAV12@V?$allocator@V?$basic_string@DU?$char_traits@D@std@@V?$allocator@D@2@@std@@@2@@std@@YAPAV?$basic_string@DU?$char_traits@D@std@@V?$allocator@D@2@@0@PAV10@QAV10@1AAV?$allocator@V?$basic_string@DU?$char_traits@D@std@@V?$allocator@D@2@@std@@@0@U_General_ptr_iterator_tag@0@U_Unused_parameter@0@@Z$0 004513b0 f   BuilderUI.obj
 0001:000503b8       __ehhandler$??$_Uninitialized_move_al_unchecked@PAV?$basic_string@DU?$char_traits@D@std@@V?$allocator@D@2@@std@@PAV12@V?$allocator@V?$basic_string@DU?$char_traits@D@std@@V?$allocator@D@2@@std@@@2@@std@@YAPAV?$basic_string@DU?$char_traits@D@std@@V?$allocator@D@2@@0@PAV10@QAV10@1AAV?$allocator@V?$basic_string@DU?$char_traits@D@std@@V?$allocator@D@2@@std@@@0@U_General_ptr_iterator_tag@0@U_Unused_parameter@0@@Z 004513b8 f   BuilderUI.obj
 0001:000503e0       __unwindfunclet$??$erase@V?$_Tree_iterator@V?$_Tree_val@U?$_Tree_simple_types@U?$pair@$$CBV?$basic_string@DU?$char_traits@D@std@@V?$allocator@D@2@@std@@V?$weak_ptr@USpriteData@@@2@@std@@@std@@@std@@@std@@X@?$_Tree@V?$_Tmap_traits@V?$basic_string@DU?$char_traits@D@std@@V?$allocator@D@2@@std@@V?$weak_ptr@USpriteData@@@2@U?$less@V?$basic_string@DU?$char_traits@D@std@@V?$allocator@D@2@@std@@@2@V?$allocator@U?$pair@$$CBV?$basic_string@DU?$char_traits@D@std@@V?$allocator@D@2@@std@@V?$weak_ptr@USpriteData@@@2@@std@@@2@$0A@@std@@@std@@QAE?AV?$_Tree_iterator@V?$_Tree_val@U?$_Tree_simple_types@U?$pair@$$CBV?$basic_string@DU?$char_traits@D@std@@V?$allocator@D@2@@std@@V?$weak_ptr@USpriteData@@@2@@std@@@std@@@std@@@1@V21@@Z$0 004513e0 f   BuilderUI.obj
 0001:000503e8       __ehhandler$??$erase@V?$_Tree_iterator@V?$_Tree_val@U?$_Tree_simple_types@U?$pair@$$CBV?$basic_string@DU?$char_traits@D@std@@V?$allocator@D@2@@std@@V?$weak_ptr@USpriteData@@@2@@std@@@std@@@std@@@std@@X@?$_Tree@V?$_Tmap_traits@V?$basic_string@DU?$char_traits@D@std@@V?$allocator@D@2@@std@@V?$weak_ptr@USpriteData@@@2@U?$less@V?$basic_string@DU?$char_traits@D@std@@V?$allocator@D@2@@std@@@2@V?$allocator@U?$pair@$$CBV?$basic_string@DU?$char_traits@D@std@@V?$allocator@D@2@@std@@V?$weak_ptr@USpriteData@@@2@@std@@@2@$0A@@std@@@std@@QAE?AV?$_Tree_iterator@V?$_Tree_val@U?$_Tree_simple_types@U?$pair@$$CBV?$basic_string@DU?$char_traits@D@std@@V?$allocator@D@2@@std@@V?$weak_ptr@USpriteData@@@2@@std@@@std@@@std@@@1@V21@@Z 004513e8 f   BuilderUI.obj
 0001:00050410       __unwindfunclet$??$erase@V?$_Tree_iterator@V?$_Tree_val@U?$_Tree_simple_types@U?$pair@$$CBV?$basic_string@DU?$char_traits@D@std@@V?$allocator@D@2@@std@@V?$weak_ptr@VRawImageData@@@2@@std@@@std@@@std@@@std@@X@?$_Tree@V?$_Tmap_traits@V?$basic_string@DU?$char_traits@D@std@@V?$allocator@D@2@@std@@V?$weak_ptr@VRawImageData@@@2@U?$less@V?$basic_string@DU?$char_traits@D@std@@V?$allocator@D@2@@std@@@2@V?$allocator@U?$pair@$$CBV?$basic_string@DU?$char_traits@D@std@@V?$allocator@D@2@@std@@V?$weak_ptr@VRawImageData@@@2@@std@@@2@$0A@@std@@@std@@QAE?AV?$_Tree_iterator@V?$_Tree_val@U?$_Tree_simple_types@U?$pair@$$CBV?$basic_string@DU?$char_traits@D@std@@V?$allocator@D@2@@std@@V?$weak_ptr@VRawImageData@@@2@@std@@@std@@@std@@@1@V21@@Z$0 00451410 f   BuilderUI.obj
 0001:00050418       __ehhandler$??$erase@V?$_Tree_iterator@V?$_Tree_val@U?$_Tree_simple_types@U?$pair@$$CBV?$basic_string@DU?$char_traits@D@std@@V?$allocator@D@2@@std@@V?$weak_ptr@VRawImageData@@@2@@std@@@std@@@std@@@std@@X@?$_Tree@V?$_Tmap_traits@V?$basic_string@DU?$char_traits@D@std@@V?$allocator@D@2@@std@@V?$weak_ptr@VRawImageData@@@2@U?$less@V?$basic_string@DU?$char_traits@D@std@@V?$allocator@D@2@@std@@@2@V?$allocator@U?$pair@$$CBV?$basic_string@DU?$char_traits@D@std@@V?$allocator@D@2@@std@@V?$weak_ptr@VRawImageData@@@2@@std@@@2@$0A@@std@@@std@@QAE?AV?$_Tree_iterator@V?$_Tree_val@U?$_Tree_simple_types@U?$pair@$$CBV?$basic_string@DU?$char_traits@D@std@@V?$allocator@D@2@@std@@V?$weak_ptr@VRawImageData@@@2@@std@@@std@@@std@@@1@V21@@Z 00451418 f   BuilderUI.obj
 0001:00050440       __unwindfunclet$??$find@V?$_Vector_iterator@V?$_Vector_val@U?$_Simple_types@PAVDisplayableObject@@@std@@@std@@@std@@PAVDisplayableObject@@@std@@YA?AV?$_Vector_iterator@V?$_Vector_val@U?$_Simple_types@PAVDisplayableObject@@@std@@@std@@@0@V10@V10@ABQAVDisplayableObject@@@Z$0 00451440 f   BuilderUI.obj
 0001:00050448       __unwindfunclet$??$find@V?$_Vector_iterator@V?$_Vector_val@U?$_Simple_types@PAVDisplayableObject@@@std@@@std@@@std@@PAVDisplayableObject@@@std@@YA?AV?$_Vector_iterator@V?$_Vector_val@U?$_Simple_types@PAVDisplayableObject@@@std@@@std@@@0@V10@V10@ABQAVDisplayableObject@@@Z$1 00451448 f   BuilderUI.obj
 0001:00050450       __ehhandler$??$find@V?$_Vector_iterator@V?$_Vector_val@U?$_Simple_types@PAVDisplayableObject@@@std@@@std@@@std@@PAVDisplayableObject@@@std@@YA?AV?$_Vector_iterator@V?$_Vector_val@U?$_Simple_types@PAVDisplayableObject@@@std@@@std@@@0@V10@V10@ABQAVDisplayableObject@@@Z 00451450 f   BuilderUI.obj
 0001:00050470       __unwindfunclet$??0?$GenericDocument@U?$UTF8@D@rapidjson@@V?$MemoryPoolAllocator@VCrtAllocator@rapidjson@@@2@VCrtAllocator@2@@rapidjson@@QAE@PAV?$MemoryPoolAllocator@VCrtAllocator@rapidjson@@@1@IPAVCrtAllocator@1@@Z$0 00451470 f   BuilderUI.obj
 0001:00050478       __unwindfunclet$??0?$GenericDocument@U?$UTF8@D@rapidjson@@V?$MemoryPoolAllocator@VCrtAllocator@rapidjson@@@2@VCrtAllocator@2@@rapidjson@@QAE@PAV?$MemoryPoolAllocator@VCrtAllocator@rapidjson@@@1@IPAVCrtAllocator@1@@Z$1 00451478 f   BuilderUI.obj
 0001:00050483       __unwindfunclet$??0?$GenericDocument@U?$UTF8@D@rapidjson@@V?$MemoryPoolAllocator@VCrtAllocator@rapidjson@@@2@VCrtAllocator@2@@rapidjson@@QAE@PAV?$MemoryPoolAllocator@VCrtAllocator@rapidjson@@@1@IPAVCrtAllocator@1@@Z$2 00451483 f   BuilderUI.obj
 0001:00050492       __ehhandler$??0?$GenericDocument@U?$UTF8@D@rapidjson@@V?$MemoryPoolAllocator@VCrtAllocator@rapidjson@@@2@VCrtAllocator@2@@rapidjson@@QAE@PAV?$MemoryPoolAllocator@VCrtAllocator@rapidjson@@@1@IPAVCrtAllocator@1@@Z 00451492 f   BuilderUI.obj
 0001:000504b0       __unwindfunclet$??0?$GenericReader@U?$UTF8@D@rapidjson@@U12@VCrtAllocator@2@@rapidjson@@QAE@PAVCrtAllocator@1@I@Z$0 004514b0 f   BuilderUI.obj
 0001:000504b8       __ehhandler$??0?$GenericReader@U?$UTF8@D@rapidjson@@U12@VCrtAllocator@2@@rapidjson@@QAE@PAVCrtAllocator@1@I@Z 004514b8 f   BuilderUI.obj
 0001:000504e0       __ehhandler$??0?$GenericValue@U?$UTF8@D@rapidjson@@V?$MemoryPoolAllocator@VCrtAllocator@rapidjson@@@2@@rapidjson@@QAE@PBDI@Z 004514e0 f   BuilderUI.obj
 0001:00050500       __ehhandler$??0?$GenericValue@U?$UTF8@D@rapidjson@@V?$MemoryPoolAllocator@VCrtAllocator@rapidjson@@@2@@rapidjson@@QAE@U?$GenericStringRef@D@1@@Z 00451500 f   BuilderUI.obj
 0001:00050520       __ehhandler$??0?$GenericValue@U?$UTF8@D@rapidjson@@V?$MemoryPoolAllocator@VCrtAllocator@rapidjson@@@2@@rapidjson@@QAE@W4Type@1@@Z 00451520 f   BuilderUI.obj
 0001:00050540       __unwindfunclet$??0?$_String_alloc@U?$_String_base_types@DV?$allocator@D@std@@@std@@@std@@QAE@XZ$0 00451540 f   BuilderUI.obj
 0001:00050548       __ehhandler$??0?$_String_alloc@U?$_String_base_types@DV?$allocator@D@std@@@std@@@std@@QAE@XZ 00451548 f   BuilderUI.obj
 0001:00050570       __ehhandler$??0?$basic_string@DU?$char_traits@D@std@@V?$allocator@D@2@@std@@QAE@$$QAV01@@Z 00451570 f   BuilderUI.obj
 0001:00050590       __unwindfunclet$??0?$basic_string@DU?$char_traits@D@std@@V?$allocator@D@2@@std@@QAE@ABV01@@Z$0 00451590 f   BuilderUI.obj
 0001:00050598       __ehhandler$??0?$basic_string@DU?$char_traits@D@std@@V?$allocator@D@2@@std@@QAE@ABV01@@Z 00451598 f   BuilderUI.obj
 0001:000505c0       __unwindfunclet$??0?$basic_string@DU?$char_traits@D@std@@V?$allocator@D@2@@std@@QAE@QBD@Z$0 004515c0 f   BuilderUI.obj
 0001:000505c8       __ehhandler$??0?$basic_string@DU?$char_traits@D@std@@V?$allocator@D@2@@std@@QAE@QBD@Z 004515c8 f   BuilderUI.obj
 0001:000505f0       __ehhandler$??0?$basic_string@DU?$char_traits@D@std@@V?$allocator@D@2@@std@@QAE@XZ 004515f0 f   BuilderUI.obj
 0001:00050610       __unwindfunclet$??0?$function@$$A6AXV?$basic_string@DU?$char_traits@D@std@@V?$allocator@D@2@@std@@@Z@std@@QAE@$$QAV01@@Z$0 00451610 f   BuilderUI.obj
 0001:00050618       __ehhandler$??0?$function@$$A6AXV?$basic_string@DU?$char_traits@D@std@@V?$allocator@D@2@@std@@@Z@std@@QAE@$$QAV01@@Z 00451618 f   BuilderUI.obj
 0001:00050640       __unwindfunclet$??0?$function@$$A6AXXZ@std@@QAE@$$QAV01@@Z$0 00451640 f   BuilderUI.obj
 0001:00050648       __ehhandler$??0?$function@$$A6AXXZ@std@@QAE@$$QAV01@@Z 00451648 f   BuilderUI.obj
 0001:00050670       __ehhandler$??0?$shared_ptr@UPartData@@@std@@QAE@$$QAV01@@Z 00451670 f   BuilderUI.obj
 0001:00050690       __ehhandler$??0?$shared_ptr@USpriteData@@@std@@QAE@$$QAV01@@Z 00451690 f   BuilderUI.obj
 0001:000506b0       __ehhandler$??0?$shared_ptr@USpriteData@@@std@@QAE@ABV01@@Z 004516b0 f   BuilderUI.obj
 0001:000506d0       __ehhandler$??0?$shared_ptr@VRawImageData@@@std@@QAE@$$QAV01@@Z 004516d0 f   BuilderUI.obj
 0001:000506f0       __ehhandler$??0?$shared_ptr@VRawImageData@@@std@@QAE@ABV01@@Z 004516f0 f   BuilderUI.obj
 0001:00050710       __ehhandler$??0?$vector@PAVSimpleImage@@V?$allocator@PAVSimpleImage@@@std@@@std@@QAE@XZ 00451710 f   BuilderUI.obj
 0001:00050730       __ehhandler$??0?$vector@V?$basic_string@DU?$char_traits@D@std@@V?$allocator@D@2@@std@@V?$allocator@V?$basic_string@DU?$char_traits@D@std@@V?$allocator@D@2@@std@@@2@@std@@QAE@XZ 00451730 f   BuilderUI.obj
 0001:00050750       __ehhandler$??0?$weak_ptr@USpriteData@@@std@@QAE@$$QAV01@@Z 00451750 f   BuilderUI.obj
 0001:00050770       __ehhandler$??0?$weak_ptr@USpriteData@@@std@@QAE@ABV01@@Z 00451770 f   BuilderUI.obj
 0001:00050790       __ehhandler$??0?$weak_ptr@VRawImageData@@@std@@QAE@$$QAV01@@Z 00451790 f   BuilderUI.obj
 0001:000507b0       __ehhandler$??0?$weak_ptr@VRawImageData@@@std@@QAE@ABV01@@Z 004517b0 f   BuilderUI.obj
 0001:000507d0       __unwindfunclet$??0GUIButton@@QAE@PAVKSP2D@@PBDHHHHV?$function@$$A6AXXZ@std@@@Z$0 004517d0 f   BuilderUI.obj
 0001:000507d8       __unwindfunclet$??0GUIButton@@QAE@PAVKSP2D@@PBDHHHHV?$function@$$A6AXXZ@std@@@Z$1 004517d8 f   BuilderUI.obj
 0001:000507e0       __unwindfunclet$??0GUIButton@@QAE@PAVKSP2D@@PBDHHHHV?$function@$$A6AXXZ@std@@@Z$2 004517e0 f   BuilderUI.obj
 0001:000507eb       __unwindfunclet$??0GUIButton@@QAE@PAVKSP2D@@PBDHHHHV?$function@$$A6AXXZ@std@@@Z$3 004517eb f   BuilderUI.obj
 0001:000507f6       __unwindfunclet$??0GUIButton@@QAE@PAVKSP2D@@PBDHHHHV?$function@$$A6AXXZ@std@@@Z$4 004517f6 f   BuilderUI.obj
 0001:000507fe       __unwindfunclet$??0GUIButton@@QAE@PAVKSP2D@@PBDHHHHV?$function@$$A6AXXZ@std@@@Z$5 004517fe f   BuilderUI.obj
 0001:00050806       __unwindfunclet$??0GUIButton@@QAE@PAVKSP2D@@PBDHHHHV?$function@$$A6AXXZ@std@@@Z$6 00451806 f   BuilderUI.obj
 0001:00050811       __unwindfunclet$??0GUIButton@@QAE@PAVKSP2D@@PBDHHHHV?$function@$$A6AXXZ@std@@@Z$7 00451811 f   BuilderUI.obj
 0001:00050819       __unwindfunclet$??0GUIButton@@QAE@PAVKSP2D@@PBDHHHHV?$function@$$A6AXXZ@std@@@Z$8 00451819 f   BuilderUI.obj
 0001:00050821       __unwindfunclet$??0GUIButton@@QAE@PAVKSP2D@@PBDHHHHV?$function@$$A6AXXZ@std@@@Z$9 00451821 f   BuilderUI.obj
 0001:0005082f       __ehhandler$??0GUIButton@@QAE@PAVKSP2D@@PBDHHHHV?$function@$$A6AXXZ@std@@@Z 0045182f f   BuilderUI.obj
 0001:00050850       __unwindfunclet$??0GUITextbox@@QAE@PAVKSP2D@@PBDHHHV?$function@$$A6AXV?$basic_string@DU?$char_traits@D@std@@V?$allocator@D@2@@std@@@Z@std@@@Z$0 00451850 f   BuilderUI.obj
 0001:00050858       __unwindfunclet$??0GUITextbox@@QAE@PAVKSP2D@@PBDHHHV?$function@$$A6AXV?$basic_string@DU?$char_traits@D@std@@V?$allocator@D@2@@std@@@Z@std@@@Z$1 00451858 f   BuilderUI.obj
 0001:00050860       __unwindfunclet$??0GUITextbox@@QAE@PAVKSP2D@@PBDHHHV?$function@$$A6AXV?$basic_string@DU?$char_traits@D@std@@V?$allocator@D@2@@std@@@Z@std@@@Z$2 00451860 f   BuilderUI.obj
 0001:0005086b       __unwindfunclet$??0GUITextbox@@QAE@PAVKSP2D@@PBDHHHV?$function@$$A6AXV?$basic_string@DU?$char_traits@D@std@@V?$allocator@D@2@@std@@@Z@std@@@Z$3 0045186b f   BuilderUI.obj
 0001:00050876       __unwindfunclet$??0GUITextbox@@QAE@PAVKSP2D@@PBDHHHV?$function@$$A6AXV?$basic_string@DU?$char_traits@D@std@@V?$allocator@D@2@@std@@@Z@std@@@Z$6 00451876 f   BuilderUI.obj
 0001:00050884       __ehhandler$??0GUITextbox@@QAE@PAVKSP2D@@PBDHHHV?$function@$$A6AXV?$basic_string@DU?$char_traits@D@std@@V?$allocator@D@2@@std@@@Z@std@@@Z 00451884 f   BuilderUI.obj
 0001:000508a0       __unwindfunclet$??0ImageManager@@QAE@XZ$0 004518a0 f   BuilderUI.obj
 0001:000508a8       __unwindfunclet$??0ImageManager@@QAE@XZ$1 004518a8 f   BuilderUI.obj
 0001:000508b3       __unwindfunclet$??0ImageManager@@QAE@XZ$2 004518b3 f   BuilderUI.obj
 0001:000508be       __ehhandler$??0ImageManager@@QAE@XZ 004518be f   BuilderUI.obj
 0001:000508e0       __unwindfunclet$??0PartCatalogue@@QAE@PAVBaseEngine@@HHH@Z$0 004518e0 f   BuilderUI.obj
 0001:000508eb       __unwindfunclet$??0PartCatalogue@@QAE@PAVBaseEngine@@HHH@Z$1 004518eb f   BuilderUI.obj
 0001:000508f9       __unwindfunclet$??0PartCatalogue@@QAE@PAVBaseEngine@@HHH@Z$2 004518f9 f   BuilderUI.obj
 0001:0005090a       __unwindfunclet$??0PartCatalogue@@QAE@PAVBaseEngine@@HHH@Z$3 0045190a f   BuilderUI.obj
 0001:0005091b       __unwindfunclet$??0PartCatalogue@@QAE@PAVBaseEngine@@HHH@Z$4 0045191b f   BuilderUI.obj
 0001:0005092c       __unwindfunclet$??0PartCatalogue@@QAE@PAVBaseEngine@@HHH@Z$5 0045192c f   BuilderUI.obj
 0001:0005093e       __unwindfunclet$??0PartCatalogue@@QAE@PAVBaseEngine@@HHH@Z$8 0045193e f   BuilderUI.obj
 0001:00050949       __unwindfunclet$??0PartCatalogue@@QAE@PAVBaseEngine@@HHH@Z$9 00451949 f   BuilderUI.obj
 0001:00050954       __unwindfunclet$??0PartCatalogue@@QAE@PAVBaseEngine@@HHH@Z$10 00451954 f   BuilderUI.obj
 0001:0005095f       __unwindfunclet$??0PartCatalogue@@QAE@PAVBaseEngine@@HHH@Z$11 0045195f f   BuilderUI.obj
 0001:00050967       __unwindfunclet$??0PartCatalogue@@QAE@PAVBaseEngine@@HHH@Z$12 00451967 f   BuilderUI.obj
 0001:0005096f       __unwindfunclet$??0PartCatalogue@@QAE@PAVBaseEngine@@HHH@Z$13 0045196f f   BuilderUI.obj
 0001:00050977       __unwindfunclet$??0PartCatalogue@@QAE@PAVBaseEngine@@HHH@Z$14 00451977 f   BuilderUI.obj
 0001:00050982       __unwindfunclet$??0PartCatalogue@@QAE@PAVBaseEngine@@HHH@Z$15 00451982 f   BuilderUI.obj
 0001:0005098d       __unwindfunclet$??0PartCatalogue@@QAE@PAVBaseEngine@@HHH@Z$16 0045198d f   BuilderUI.obj
 0001:00050995       __unwindfunclet$??0PartCatalogue@@QAE@PAVBaseEngine@@HHH@Z$17 00451995 f   BuilderUI.obj
 0001:000509a0       __unwindfunclet$??0PartCatalogue@@QAE@PAVBaseEngine@@HHH@Z$18 004519a0 f   BuilderUI.obj
 0001:000509ab       __unwindfunclet$??0PartCatalogue@@QAE@PAVBaseEngine@@HHH@Z$19 004519ab f   BuilderUI.obj
 0001:000509b6       __unwindfunclet$??0PartCatalogue@@QAE@PAVBaseEngine@@HHH@Z$20 004519b6 f   BuilderUI.obj
 0001:000509c1       __unwindfunclet$??0PartCatalogue@@QAE@PAVBaseEngine@@HHH@Z$21 004519c1 f   BuilderUI.obj
 0001:000509cc       __unwindfunclet$??0PartCatalogue@@QAE@PAVBaseEngine@@HHH@Z$22 004519cc f   BuilderUI.obj
 0001:000509d7       __unwindfunclet$??0PartCatalogue@@QAE@PAVBaseEngine@@HHH@Z$23 004519d7 f   BuilderUI.obj
 0001:000509e2       __unwindfunclet$??0PartCatalogue@@QAE@PAVBaseEngine@@HHH@Z$24 004519e2 f   BuilderUI.obj
 0001:000509ed       __unwindfunclet$??0PartCatalogue@@QAE@PAVBaseEngine@@HHH@Z$25 004519ed f   BuilderUI.obj
 0001:000509ff       __unwindfunclet$??0PartCatalogue@@QAE@PAVBaseEngine@@HHH@Z$26 004519ff f   BuilderUI.obj
 0001:00050a0a       __unwindfunclet$??0PartCatalogue@@QAE@PAVBaseEngine@@HHH@Z$27 00451a0a f   BuilderUI.obj
 0001:00050a15       __unwindfunclet$??0PartCatalogue@@QAE@PAVBaseEngine@@HHH@Z$28 00451a15 f   BuilderUI.obj
 0001:00050a20       __unwindfunclet$??0PartCatalogue@@QAE@PAVBaseEngine@@HHH@Z$29 00451a20 f   BuilderUI.obj
 0001:00050a32       __unwindfunclet$??0PartCatalogue@@QAE@PAVBaseEngine@@HHH@Z$30 00451a32 f   BuilderUI.obj
 0001:00050a3d       __unwindfunclet$??0PartCatalogue@@QAE@PAVBaseEngine@@HHH@Z$31 00451a3d f   BuilderUI.obj
 0001:00050a4f       __unwindfunclet$??0PartCatalogue@@QAE@PAVBaseEngine@@HHH@Z$32 00451a4f f   BuilderUI.obj
 0001:00050a5a       __unwindfunclet$??0PartCatalogue@@QAE@PAVBaseEngine@@HHH@Z$33 00451a5a f   BuilderUI.obj
 0001:00050a65       __unwindfunclet$??0PartCatalogue@@QAE@PAVBaseEngine@@HHH@Z$34 00451a65 f   BuilderUI.obj
 0001:00050a77       __unwindfunclet$??0PartCatalogue@@QAE@PAVBaseEngine@@HHH@Z$35 00451a77 f   BuilderUI.obj
 0001:00050a82       __unwindfunclet$??0PartCatalogue@@QAE@PAVBaseEngine@@HHH@Z$36 00451a82 f   BuilderUI.obj
 0001:00050a8d       __unwindfunclet$??0PartCatalogue@@QAE@PAVBaseEngine@@HHH@Z$37 00451a8d f   BuilderUI.obj
 0001:00050a9f       __unwindfunclet$??0PartCatalogue@@QAE@PAVBaseEngine@@HHH@Z$38 00451a9f f   BuilderUI.obj
 0001:00050aaa       __unwindfunclet$??0PartCatalogue@@QAE@PAVBaseEngine@@HHH@Z$39 00451aaa f   BuilderUI.obj
 0001:00050ab5       __unwindfunclet$??0PartCatalogue@@QAE@PAVBaseEngine@@HHH@Z$40 00451ab5 f   BuilderUI.obj
 0001:00050ac7       __unwindfunclet$??0PartCatalogue@@QAE@PAVBaseEngine@@HHH@Z$41 00451ac7 f   BuilderUI.obj
 0001:00050ad2       __unwindfunclet$??0PartCatalogue@@QAE@PAVBaseEngine@@HHH@Z$42 00451ad2 f   BuilderUI.obj
 0001:00050add       __ehhandler$??0PartCatalogue@@QAE@PAVBaseEngine@@HHH@Z 00451add f   BuilderUI.obj
 0001:00050b10       __unwindfunclet$??0RawImageData@@QAE@V?$basic_string@DU?$char_traits@D@std@@V?$allocator@D@2@@std@@@Z$0 00451b10 f   BuilderUI.obj
 0001:00050b18       __ehhandler$??0RawImageData@@QAE@V?$basic_string@DU?$char_traits@D@std@@V?$allocator@D@2@@std@@@Z 00451b18 f   BuilderUI.obj
 0001:00050b40       __unwindfunclet$??0sentry@?$basic_ostream@DU?$char_traits@D@std@@@std@@QAE@AAV12@@Z$0 00451b40 f   BuilderUI.obj
 0001:00050b48       __ehhandler$??0sentry@?$basic_ostream@DU?$char_traits@D@std@@@std@@QAE@AAV12@@Z 00451b48 f   BuilderUI.obj
 0001:00050b70       __ehhandler$??1?$GenericDocument@U?$UTF8@D@rapidjson@@V?$MemoryPoolAllocator@VCrtAllocator@rapidjson@@@2@VCrtAllocator@2@@rapidjson@@QAE@XZ 00451b70 f   BuilderUI.obj
 0001:00050b90       __ehhandler$??1?$GenericValue@U?$UTF8@D@rapidjson@@V?$MemoryPoolAllocator@VCrtAllocator@rapidjson@@@2@@rapidjson@@QAE@XZ 00451b90 f   BuilderUI.obj
 0001:00050bb0       __ehhandler$??1?$MemoryPoolAllocator@VCrtAllocator@rapidjson@@@rapidjson@@QAE@XZ 00451bb0 f   BuilderUI.obj
 0001:00050bd0       __ehhandler$??1?$Stack@VCrtAllocator@rapidjson@@@internal@rapidjson@@QAE@XZ 00451bd0 f   BuilderUI.obj
 0001:00050bf0       __ehhandler$??1?$_String_alloc@U?$_String_base_types@DV?$allocator@D@std@@@std@@@std@@QAE@XZ 00451bf0 f   BuilderUI.obj
 0001:00050c10       __ehhandler$??1?$_Tree@V?$_Tmap_traits@V?$basic_string@DU?$char_traits@D@std@@V?$allocator@D@2@@std@@V?$shared_ptr@VRawImageData@@@2@U?$less@V?$basic_string@DU?$char_traits@D@std@@V?$allocator@D@2@@std@@@2@V?$allocator@U?$pair@$$CBV?$basic_string@DU?$char_traits@D@std@@V?$allocator@D@2@@std@@V?$shared_ptr@VRawImageData@@@2@@std@@@2@$0A@@std@@@std@@QAE@XZ 00451c10 f   BuilderUI.obj
 0001:00050c30       __ehhandler$??1?$_Tree@V?$_Tmap_traits@V?$basic_string@DU?$char_traits@D@std@@V?$allocator@D@2@@std@@V?$weak_ptr@USpriteData@@@2@U?$less@V?$basic_string@DU?$char_traits@D@std@@V?$allocator@D@2@@std@@@2@V?$allocator@U?$pair@$$CBV?$basic_string@DU?$char_traits@D@std@@V?$allocator@D@2@@std@@V?$weak_ptr@USpriteData@@@2@@std@@@2@$0A@@std@@@std@@QAE@XZ 00451c30 f   BuilderUI.obj
 0001:00050c50       __ehhandler$??1?$_Tree@V?$_Tmap_traits@V?$basic_string@DU?$char_traits@D@std@@V?$allocator@D@2@@std@@V?$weak_ptr@VRawImageData@@@2@U?$less@V?$basic_string@DU?$char_traits@D@std@@V?$allocator@D@2@@std@@@2@V?$allocator@U?$pair@$$CBV?$basic_string@DU?$char_traits@D@std@@V?$allocator@D@2@@std@@V?$weak_ptr@VRawImageData@@@2@@std@@@2@$0A@@std@@@std@@QAE@XZ 00451c50 f   BuilderUI.obj
 0001:00050c70       __ehhandler$??1?$_Tree_comp_alloc@V?$_Tmap_traits@V?$basic_string@DU?$char_traits@D@std@@V?$allocator@D@2@@std@@V?$shared_ptr@VRawImageData@@@2@U?$less@V?$basic_string@DU?$char_traits@D@std@@V?$allocator@D@2@@std@@@2@V?$allocator@U?$pair@$$CBV?$basic_string@DU?$char_traits@D@std@@V?$allocator@D@2@@std@@V?$shared_ptr@VRawImageData@@@2@@std@@@2@$0A@@std@@@std@@QAE@XZ 00451c70 f   BuilderUI.obj
 0001:00050c90       __ehhandler$??1?$_Tree_comp_alloc@V?$_Tmap_traits@V?$basic_string@DU?$char_traits@D@std@@V?$allocator@D@2@@std@@V?$weak_ptr@USpriteData@@@2@U?$less@V?$basic_string@DU?$char_traits@D@std@@V?$allocator@D@2@@std@@@2@V?$allocator@U?$pair@$$CBV?$basic_string@DU?$char_traits@D@std@@V?$allocator@D@2@@std@@V?$weak_ptr@USpriteData@@@2@@std@@@2@$0A@@std@@@std@@QAE@XZ 00451c90 f   BuilderUI.obj
 0001:00050cb0       __ehhandler$??1?$_Tree_comp_alloc@V?$_Tmap_traits@V?$basic_string@DU?$char_traits@D@std@@V?$allocator@D@2@@std@@V?$weak_ptr@VRawImageData@@@2@U?$less@V?$basic_string@DU?$char_traits@D@std@@V?$allocator@D@2@@std@@@2@V?$allocator@U?$pair@$$CBV?$basic_string@DU?$char_traits@D@std@@V?$allocator@D@2@@std@@V?$weak_ptr@VRawImageData@@@2@@std@@@2@$0A@@std@@@std@@QAE@XZ 00451cb0 f   BuilderUI.obj
 0001:00050cd0       __ehhandler$??1?$_Uninitialized_backout_al@PAV?$basic_string@DU?$char_traits@D@std@@V?$allocator@D@2@@std@@V?$allocator@V?$basic_string@DU?$char_traits@D@std@@V?$allocator@D@2@@std@@@2@@std@@QAE@XZ 00451cd0 f   BuilderUI.obj
 0001:00050cf0       __ehhandler$??1?$_Vector_alloc@U?$_Vec_base_types@PAVRocketPart@@V?$allocator@PAVRocketPart@@@std@@@std@@@std@@QAE@XZ 00451cf0 f   BuilderUI.obj
 0001:00050d10       __ehhandler$??1?$_Vector_alloc@U?$_Vec_base_types@PAVSimpleImage@@V?$allocator@PAVSimpleImage@@@std@@@std@@@std@@QAE@XZ 00451d10 f   BuilderUI.obj
 0001:00050d30       __ehhandler$??1?$_Vector_alloc@U?$_Vec_base_types@V?$basic_string@DU?$char_traits@D@std@@V?$allocator@D@2@@std@@V?$allocator@V?$basic_string@DU?$char_traits@D@std@@V?$allocator@D@2@@std@@@2@@std@@@std@@QAE@XZ 00451d30 f   BuilderUI.obj
 0001:00050d50       __ehhandler$??1?$basic_string@DU?$char_traits@D@std@@V?$allocator@D@2@@std@@QAE@XZ 00451d50 f   BuilderUI.obj
 0001:00050d70       __ehhandler$??1?$shared_ptr@UPartData@@@std@@QAE@XZ 00451d70 f   BuilderUI.obj
 0001:00050d90       __ehhandler$??1?$shared_ptr@USpriteData@@@std@@QAE@XZ 00451d90 f   BuilderUI.obj
 0001:00050db0       __ehhandler$??1?$shared_ptr@VRawImageData@@@std@@QAE@XZ 00451db0 f   BuilderUI.obj
 0001:00050dd0       __ehhandler$??1?$vector@PAVRocketPart@@V?$allocator@PAVRocketPart@@@std@@@std@@QAE@XZ 00451dd0 f   BuilderUI.obj
 0001:00050df0       __ehhandler$??1?$vector@PAVSimpleImage@@V?$allocator@PAVSimpleImage@@@std@@@std@@QAE@XZ 00451df0 f   BuilderUI.obj
 0001:00050e10       __ehhandler$??1?$vector@V?$basic_string@DU?$char_traits@D@std@@V?$allocator@D@2@@std@@V?$allocator@V?$basic_string@DU?$char_traits@D@std@@V?$allocator@D@2@@std@@@2@@std@@QAE@XZ 00451e10 f   BuilderUI.obj
 0001:00050e30       __ehhandler$??1?$weak_ptr@USpriteData@@@std@@QAE@XZ 00451e30 f   BuilderUI.obj
 0001:00050e50       __ehhandler$??1?$weak_ptr@VRawImageData@@@std@@QAE@XZ 00451e50 f   BuilderUI.obj
 0001:00050e70       __ehhandler$??1ClearStackOnExit@?$GenericDocument@U?$UTF8@D@rapidjson@@V?$MemoryPoolAllocator@VCrtAllocator@rapidjson@@@2@VCrtAllocator@2@@rapidjson@@QAE@XZ 00451e70 f   BuilderUI.obj
 0001:00050e90       __ehhandler$??1ClearStackOnExit@?$GenericReader@U?$UTF8@D@rapidjson@@U12@VCrtAllocator@2@@rapidjson@@QAE@XZ 00451e90 f   BuilderUI.obj
 0001:00050eb0       __ehhandler$??1GUIButton@@UAE@XZ 00451eb0 f   BuilderUI.obj
 0001:00050ed0       __ehhandler$??1GUITextbox@@UAE@XZ 00451ed0 f   BuilderUI.obj
 0001:00050ef0       __ehhandler$??1PartCatalogue@@UAE@XZ 00451ef0 f   BuilderUI.obj
 0001:00050f10       __ehhandler$??1RawImageData@@QAE@XZ 00451f10 f   BuilderUI.obj
 0001:00050f30       __ehhandler$??1_Iterator_base12@std@@QAE@XZ 00451f30 f   BuilderUI.obj
 0001:00050f50       __ehhandler$??1_Sentry_base@?$basic_ostream@DU?$char_traits@D@std@@@std@@QAE@XZ 00451f50 f   BuilderUI.obj
 0001:00050f70       __ehhandler$??1sentry@?$basic_ostream@DU?$char_traits@D@std@@@std@@QAE@XZ 00451f70 f   BuilderUI.obj
 0001:00050f90       __ehhandler$??4_Iterator_base12@std@@QAEAAU01@ABU01@@Z 00451f90 f   BuilderUI.obj
 0001:00050fb0       __unwindfunclet$??E?$_Tree_const_iterator@V?$_Tree_val@U?$_Tree_simple_types@U?$pair@$$CBV?$basic_string@DU?$char_traits@D@std@@V?$allocator@D@2@@std@@V?$shared_ptr@VRawImageData@@@2@@std@@@std@@@std@@@std@@QAE?AV01@H@Z$0 00451fb0 f   BuilderUI.obj
 0001:00050fb8       __ehhandler$??E?$_Tree_const_iterator@V?$_Tree_val@U?$_Tree_simple_types@U?$pair@$$CBV?$basic_string@DU?$char_traits@D@std@@V?$allocator@D@2@@std@@V?$shared_ptr@VRawImageData@@@2@@std@@@std@@@std@@@std@@QAE?AV01@H@Z 00451fb8 f   BuilderUI.obj
 0001:00050fe0       __unwindfunclet$??E?$_Tree_const_iterator@V?$_Tree_val@U?$_Tree_simple_types@U?$pair@$$CBV?$basic_string@DU?$char_traits@D@std@@V?$allocator@D@2@@std@@V?$weak_ptr@USpriteData@@@2@@std@@@std@@@std@@@std@@QAE?AV01@H@Z$0 00451fe0 f   BuilderUI.obj
 0001:00050fe8       __ehhandler$??E?$_Tree_const_iterator@V?$_Tree_val@U?$_Tree_simple_types@U?$pair@$$CBV?$basic_string@DU?$char_traits@D@std@@V?$allocator@D@2@@std@@V?$weak_ptr@USpriteData@@@2@@std@@@std@@@std@@@std@@QAE?AV01@H@Z 00451fe8 f   BuilderUI.obj
 0001:00051010       __unwindfunclet$??E?$_Tree_const_iterator@V?$_Tree_val@U?$_Tree_simple_types@U?$pair@$$CBV?$basic_string@DU?$char_traits@D@std@@V?$allocator@D@2@@std@@V?$weak_ptr@VRawImageData@@@2@@std@@@std@@@std@@@std@@QAE?AV01@H@Z$0 00452010 f   BuilderUI.obj
 0001:00051018       __ehhandler$??E?$_Tree_const_iterator@V?$_Tree_val@U?$_Tree_simple_types@U?$pair@$$CBV?$basic_string@DU?$char_traits@D@std@@V?$allocator@D@2@@std@@V?$weak_ptr@VRawImageData@@@2@@std@@@std@@@std@@@std@@QAE?AV01@H@Z 00452018 f   BuilderUI.obj
 0001:00051040       __ehhandler$?SetStringRaw@?$GenericValue@U?$UTF8@D@rapidjson@@V?$MemoryPoolAllocator@VCrtAllocator@rapidjson@@@2@@rapidjson@@AAEXU?$GenericStringRef@D@2@@Z 00452040 f   BuilderUI.obj
 0001:00051060       __unwindfunclet$?StrtodDiyFp@internal@rapidjson@@YA_NPBDHHPAN@Z$0 00452060 f   BuilderUI.obj
 0001:0005106c       __ehhandler$?StrtodDiyFp@internal@rapidjson@@YA_NPBDHHPAN@Z 0045206c f   BuilderUI.obj
 0001:00051090       __ehhandler$?_Adopt@_Iterator_base12@std@@QAEXPBU_Container_base12@2@@Z 00452090 f   BuilderUI.obj
 0001:000510b0       __ehhandler$?_Assign_rv_contents_with_alloc_always_equal@?$basic_string@DU?$char_traits@D@std@@V?$allocator@D@2@@std@@QAEX$$QAV12@U?$integral_constant@_N$00@2@@Z 004520b0 f   BuilderUI.obj
 0001:000510d0       __ehhandler$?_Buyheadnode@?$_Tree_comp_alloc@V?$_Tmap_traits@V?$basic_string@DU?$char_traits@D@std@@V?$allocator@D@2@@std@@V?$shared_ptr@UPartData@@@2@U?$less@V?$basic_string@DU?$char_traits@D@std@@V?$allocator@D@2@@std@@@2@V?$allocator@U?$pair@$$CBV?$basic_string@DU?$char_traits@D@std@@V?$allocator@D@2@@std@@V?$shared_ptr@UPartData@@@2@@std@@@2@$0A@@std@@@std@@QAEPAU?$_Tree_node@U?$pair@$$CBV?$basic_string@DU?$char_traits@D@std@@V?$allocator@D@2@@std@@V?$shared_ptr@UPartData@@@2@@std@@PAX@2@XZ 004520d0 f   BuilderUI.obj
 0001:000510f0       __ehhandler$?_Buyheadnode@?$_Tree_comp_alloc@V?$_Tmap_traits@V?$basic_string@DU?$char_traits@D@std@@V?$allocator@D@2@@std@@V?$shared_ptr@VRawImageData@@@2@U?$less@V?$basic_string@DU?$char_traits@D@std@@V?$allocator@D@2@@std@@@2@V?$allocator@U?$pair@$$CBV?$basic_string@DU?$char_traits@D@std@@V?$allocator@D@2@@std@@V?$shared_ptr@VRawImageData@@@2@@std@@@2@$0A@@std@@@std@@QAEPAU?$_Tree_node@U?$pair@$$CBV?$basic_string@DU?$char_traits@D@std@@V?$allocator@D@2@@std@@V?$shared_ptr@VRawImageData@@@2@@std@@PAX@2@XZ 004520f0 f   BuilderUI.obj
 0001:00051110       __ehhandler$?_Buyheadnode@?$_Tree_comp_alloc@V?$_Tmap_traits@V?$basic_string@DU?$char_traits@D@std@@V?$allocator@D@2@@std@@V?$weak_ptr@USpriteData@@@2@U?$less@V?$basic_string@DU?$char_traits@D@std@@V?$allocator@D@2@@std@@@2@V?$allocator@U?$pair@$$CBV?$basic_string@DU?$char_traits@D@std@@V?$allocator@D@2@@std@@V?$weak_ptr@USpriteData@@@2@@std@@@2@$0A@@std@@@std@@QAEPAU?$_Tree_node@U?$pair@$$CBV?$basic_string@DU?$char_traits@D@std@@V?$allocator@D@2@@std@@V?$weak_ptr@USpriteData@@@2@@std@@PAX@2@XZ 00452110 f   BuilderUI.obj
 0001:00051130       __ehhandler$?_Buyheadnode@?$_Tree_comp_alloc@V?$_Tmap_traits@V?$basic_string@DU?$char_traits@D@std@@V?$allocator@D@2@@std@@V?$weak_ptr@VRawImageData@@@2@U?$less@V?$basic_string@DU?$char_traits@D@std@@V?$allocator@D@2@@std@@@2@V?$allocator@U?$pair@$$CBV?$basic_string@DU?$char_traits@D@std@@V?$allocator@D@2@@std@@V?$weak_ptr@VRawImageData@@@2@@std@@@2@$0A@@std@@@std@@QAEPAU?$_Tree_node@U?$pair@$$CBV?$basic_string@DU?$char_traits@D@std@@V?$allocator@D@2@@std@@V?$weak_ptr@VRawImageData@@@2@@std@@PAX@2@XZ 00452130 f   BuilderUI.obj
 0001:00051150       __ehhandler$?_Buynode0@?$_Tree_comp_alloc@V?$_Tmap_traits@V?$basic_string@DU?$char_traits@D@std@@V?$allocator@D@2@@std@@V?$shared_ptr@VRawImageData@@@2@U?$less@V?$basic_string@DU?$char_traits@D@std@@V?$allocator@D@2@@std@@@2@V?$allocator@U?$pair@$$CBV?$basic_string@DU?$char_traits@D@std@@V?$allocator@D@2@@std@@V?$shared_ptr@VRawImageData@@@2@@std@@@2@$0A@@std@@@std@@QAEPAU?$_Tree_node@U?$pair@$$CBV?$basic_string@DU?$char_traits@D@std@@V?$allocator@D@2@@std@@V?$shared_ptr@VRawImageData@@@2@@std@@PAX@2@XZ 00452150 f   BuilderUI.obj
 0001:00051170       __ehhandler$?_Buynode0@?$_Tree_comp_alloc@V?$_Tmap_traits@V?$basic_string@DU?$char_traits@D@std@@V?$allocator@D@2@@std@@V?$weak_ptr@USpriteData@@@2@U?$less@V?$basic_string@DU?$char_traits@D@std@@V?$allocator@D@2@@std@@@2@V?$allocator@U?$pair@$$CBV?$basic_string@DU?$char_traits@D@std@@V?$allocator@D@2@@std@@V?$weak_ptr@USpriteData@@@2@@std@@@2@$0A@@std@@@std@@QAEPAU?$_Tree_node@U?$pair@$$CBV?$basic_string@DU?$char_traits@D@std@@V?$allocator@D@2@@std@@V?$weak_ptr@USpriteData@@@2@@std@@PAX@2@XZ 00452170 f   BuilderUI.obj
 0001:00051190       __ehhandler$?_Buynode0@?$_Tree_comp_alloc@V?$_Tmap_traits@V?$basic_string@DU?$char_traits@D@std@@V?$allocator@D@2@@std@@V?$weak_ptr@VRawImageData@@@2@U?$less@V?$basic_string@DU?$char_traits@D@std@@V?$allocator@D@2@@std@@@2@V?$allocator@U?$pair@$$CBV?$basic_string@DU?$char_traits@D@std@@V?$allocator@D@2@@std@@V?$weak_ptr@VRawImageData@@@2@@std@@@2@$0A@@std@@@std@@QAEPAU?$_Tree_node@U?$pair@$$CBV?$basic_string@DU?$char_traits@D@std@@V?$allocator@D@2@@std@@V?$weak_ptr@VRawImageData@@@2@@std@@PAX@2@XZ 00452190 f   BuilderUI.obj
 0001:000511b0       __ehhandler$?_Construct@?$_Tree_comp_alloc@V?$_Tmap_traits@V?$basic_string@DU?$char_traits@D@std@@V?$allocator@D@2@@std@@V?$shared_ptr@UPartData@@@2@U?$less@V?$basic_string@DU?$char_traits@D@std@@V?$allocator@D@2@@std@@@2@V?$allocator@U?$pair@$$CBV?$basic_string@DU?$char_traits@D@std@@V?$allocator@D@2@@std@@V?$shared_ptr@UPartData@@@2@@std@@@2@$0A@@std@@@std@@QAEXXZ 004521b0 f   BuilderUI.obj
 0001:000511d0       __ehhandler$?_Construct@?$_Tree_comp_alloc@V?$_Tmap_traits@V?$basic_string@DU?$char_traits@D@std@@V?$allocator@D@2@@std@@V?$shared_ptr@VRawImageData@@@2@U?$less@V?$basic_string@DU?$char_traits@D@std@@V?$allocator@D@2@@std@@@2@V?$allocator@U?$pair@$$CBV?$basic_string@DU?$char_traits@D@std@@V?$allocator@D@2@@std@@V?$shared_ptr@VRawImageData@@@2@@std@@@2@$0A@@std@@@std@@QAEXXZ 004521d0 f   BuilderUI.obj
 0001:000511f0       __ehhandler$?_Construct@?$_Tree_comp_alloc@V?$_Tmap_traits@V?$basic_string@DU?$char_traits@D@std@@V?$allocator@D@2@@std@@V?$weak_ptr@USpriteData@@@2@U?$less@V?$basic_string@DU?$char_traits@D@std@@V?$allocator@D@2@@std@@@2@V?$allocator@U?$pair@$$CBV?$basic_string@DU?$char_traits@D@std@@V?$allocator@D@2@@std@@V?$weak_ptr@USpriteData@@@2@@std@@@2@$0A@@std@@@std@@QAEXXZ 004521f0 f   BuilderUI.obj
 0001:00051210       __ehhandler$?_Construct@?$_Tree_comp_alloc@V?$_Tmap_traits@V?$basic_string@DU?$char_traits@D@std@@V?$allocator@D@2@@std@@V?$weak_ptr@VRawImageData@@@2@U?$less@V?$basic_string@DU?$char_traits@D@std@@V?$allocator@D@2@@std@@@2@V?$allocator@U?$pair@$$CBV?$basic_string@DU?$char_traits@D@std@@V?$allocator@D@2@@std@@V?$weak_ptr@VRawImageData@@@2@@std@@@2@$0A@@std@@@std@@QAEXXZ 00452210 f   BuilderUI.obj
 0001:00051230       __ehhandler$?_Delete_this@?$_Func_impl_no_alloc@V<lambda_3a905bc70563c738712533e87930e958>@@X$$V@std@@EAEX_N@Z 00452230 f   BuilderUI.obj
 0001:00051250       __ehhandler$?_Delete_this@?$_Func_impl_no_alloc@V<lambda_7c2dbb44a5d32349ebb3491b2c88eec0>@@X$$V@std@@EAEX_N@Z 00452250 f   BuilderUI.obj
 0001:00051270       __ehhandler$?_Delete_this@?$_Func_impl_no_alloc@V<lambda_8e08e5546d00afac20621fd5d0739336>@@X$$V@std@@EAEX_N@Z 00452270 f   BuilderUI.obj
 0001:00051290       __ehhandler$?_Equal@?$basic_string@DU?$char_traits@D@std@@V?$allocator@D@2@@std@@QBE_NABV12@@Z 00452290 f   BuilderUI.obj
 0001:000512b0       __unwindfunclet$?_Extract@?$_Tree_val@U?$_Tree_simple_types@U?$pair@$$CBV?$basic_string@DU?$char_traits@D@std@@V?$allocator@D@2@@std@@V?$shared_ptr@VRawImageData@@@2@@std@@@std@@@std@@QAEPAU?$_Tree_node@U?$pair@$$CBV?$basic_string@DU?$char_traits@D@std@@V?$allocator@D@2@@std@@V?$shared_ptr@VRawImageData@@@2@@std@@PAX@2@V?$_Tree_const_iterator@V?$_Tree_val@U?$_Tree_simple_types@U?$pair@$$CBV?$basic_string@DU?$char_traits@D@std@@V?$allocator@D@2@@std@@V?$shared_ptr@VRawImageData@@@2@@std@@@std@@@std@@@2@@Z$0 004522b0 f   BuilderUI.obj
 0001:000512b8       __ehhandler$?_Extract@?$_Tree_val@U?$_Tree_simple_types@U?$pair@$$CBV?$basic_string@DU?$char_traits@D@std@@V?$allocator@D@2@@std@@V?$shared_ptr@VRawImageData@@@2@@std@@@std@@@std@@QAEPAU?$_Tree_node@U?$pair@$$CBV?$basic_string@DU?$char_traits@D@std@@V?$allocator@D@2@@std@@V?$shared_ptr@VRawImageData@@@2@@std@@PAX@2@V?$_Tree_const_iterator@V?$_Tree_val@U?$_Tree_simple_types@U?$pair@$$CBV?$basic_string@DU?$char_traits@D@std@@V?$allocator@D@2@@std@@V?$shared_ptr@VRawImageData@@@2@@std@@@std@@@std@@@2@@Z 004522b8 f   BuilderUI.obj
 0001:000512e0       __unwindfunclet$?_Extract@?$_Tree_val@U?$_Tree_simple_types@U?$pair@$$CBV?$basic_string@DU?$char_traits@D@std@@V?$allocator@D@2@@std@@V?$weak_ptr@USpriteData@@@2@@std@@@std@@@std@@QAEPAU?$_Tree_node@U?$pair@$$CBV?$basic_string@DU?$char_traits@D@std@@V?$allocator@D@2@@std@@V?$weak_ptr@USpriteData@@@2@@std@@PAX@2@V?$_Tree_const_iterator@V?$_Tree_val@U?$_Tree_simple_types@U?$pair@$$CBV?$basic_string@DU?$char_traits@D@std@@V?$allocator@D@2@@std@@V?$weak_ptr@USpriteData@@@2@@std@@@std@@@std@@@2@@Z$0 004522e0 f   BuilderUI.obj
 0001:000512e8       __ehhandler$?_Extract@?$_Tree_val@U?$_Tree_simple_types@U?$pair@$$CBV?$basic_string@DU?$char_traits@D@std@@V?$allocator@D@2@@std@@V?$weak_ptr@USpriteData@@@2@@std@@@std@@@std@@QAEPAU?$_Tree_node@U?$pair@$$CBV?$basic_string@DU?$char_traits@D@std@@V?$allocator@D@2@@std@@V?$weak_ptr@USpriteData@@@2@@std@@PAX@2@V?$_Tree_const_iterator@V?$_Tree_val@U?$_Tree_simple_types@U?$pair@$$CBV?$basic_string@DU?$char_traits@D@std@@V?$allocator@D@2@@std@@V?$weak_ptr@USpriteData@@@2@@std@@@std@@@std@@@2@@Z 004522e8 f   BuilderUI.obj
 0001:00051310       __unwindfunclet$?_Extract@?$_Tree_val@U?$_Tree_simple_types@U?$pair@$$CBV?$basic_string@DU?$char_traits@D@std@@V?$allocator@D@2@@std@@V?$weak_ptr@VRawImageData@@@2@@std@@@std@@@std@@QAEPAU?$_Tree_node@U?$pair@$$CBV?$basic_string@DU?$char_traits@D@std@@V?$allocator@D@2@@std@@V?$weak_ptr@VRawImageData@@@2@@std@@PAX@2@V?$_Tree_const_iterator@V?$_Tree_val@U?$_Tree_simple_types@U?$pair@$$CBV?$basic_string@DU?$char_traits@D@std@@V?$allocator@D@2@@std@@V?$weak_ptr@VRawImageData@@@2@@std@@@std@@@std@@@2@@Z$0 00452310 f   BuilderUI.obj
 0001:00051318       __ehhandler$?_Extract@?$_Tree_val@U?$_Tree_simple_types@U?$pair@$$CBV?$basic_string@DU?$char_traits@D@std@@V?$allocator@D@2@@std@@V?$weak_ptr@VRawImageData@@@2@@std@@@std@@@std@@QAEPAU?$_Tree_node@U?$pair@$$CBV?$basic_string@DU?$char_traits@D@std@@V?$allocator@D@2@@std@@V?$weak_ptr@VRawImageData@@@2@@std@@PAX@2@V?$_Tree_const_iterator@V?$_Tree_val@U?$_Tree_simple_types@U?$pair@$$CBV?$basic_string@DU?$char_traits@D@std@@V?$allocator@D@2@@std@@V?$weak_ptr@VRawImageData@@@2@@std@@@std@@@std@@@2@@Z 00452318 f   BuilderUI.obj
 0001:00051340       __ehhandler$?_Orphan_all@_Container_base12@std@@QAEXXZ 00452340 f   BuilderUI.obj
 0001:00051360       __unwindfunclet$?_Orphan_ptr@?$_Tree@V?$_Tmap_traits@V?$basic_string@DU?$char_traits@D@std@@V?$allocator@D@2@@std@@V?$shared_ptr@VRawImageData@@@2@U?$less@V?$basic_string@DU?$char_traits@D@std@@V?$allocator@D@2@@std@@@2@V?$allocator@U?$pair@$$CBV?$basic_string@DU?$char_traits@D@std@@V?$allocator@D@2@@std@@V?$shared_ptr@VRawImageData@@@2@@std@@@2@$0A@@std@@@std@@IAEXPAU?$_Tree_node@U?$pair@$$CBV?$basic_string@DU?$char_traits@D@std@@V?$allocator@D@2@@std@@V?$shared_ptr@VRawImageData@@@2@@std@@PAX@2@@Z$0 00452360 f   BuilderUI.obj
 0001:00051369       __ehhandler$?_Orphan_ptr@?$_Tree@V?$_Tmap_traits@V?$basic_string@DU?$char_traits@D@std@@V?$allocator@D@2@@std@@V?$shared_ptr@VRawImageData@@@2@U?$less@V?$basic_string@DU?$char_traits@D@std@@V?$allocator@D@2@@std@@@2@V?$allocator@U?$pair@$$CBV?$basic_string@DU?$char_traits@D@std@@V?$allocator@D@2@@std@@V?$shared_ptr@VRawImageData@@@2@@std@@@2@$0A@@std@@@std@@IAEXPAU?$_Tree_node@U?$pair@$$CBV?$basic_string@DU?$char_traits@D@std@@V?$allocator@D@2@@std@@V?$shared_ptr@VRawImageData@@@2@@std@@PAX@2@@Z 00452369 f   BuilderUI.obj
 0001:00051390       __unwindfunclet$?_Orphan_ptr@?$_Tree@V?$_Tmap_traits@V?$basic_string@DU?$char_traits@D@std@@V?$allocator@D@2@@std@@V?$weak_ptr@USpriteData@@@2@U?$less@V?$basic_string@DU?$char_traits@D@std@@V?$allocator@D@2@@std@@@2@V?$allocator@U?$pair@$$CBV?$basic_string@DU?$char_traits@D@std@@V?$allocator@D@2@@std@@V?$weak_ptr@USpriteData@@@2@@std@@@2@$0A@@std@@@std@@IAEXPAU?$_Tree_node@U?$pair@$$CBV?$basic_string@DU?$char_traits@D@std@@V?$allocator@D@2@@std@@V?$weak_ptr@USpriteData@@@2@@std@@PAX@2@@Z$0 00452390 f   BuilderUI.obj
 0001:00051399       __ehhandler$?_Orphan_ptr@?$_Tree@V?$_Tmap_traits@V?$basic_string@DU?$char_traits@D@std@@V?$allocator@D@2@@std@@V?$weak_ptr@USpriteData@@@2@U?$less@V?$basic_string@DU?$char_traits@D@std@@V?$allocator@D@2@@std@@@2@V?$allocator@U?$pair@$$CBV?$basic_string@DU?$char_traits@D@std@@V?$allocator@D@2@@std@@V?$weak_ptr@USpriteData@@@2@@std@@@2@$0A@@std@@@std@@IAEXPAU?$_Tree_node@U?$pair@$$CBV?$basic_string@DU?$char_traits@D@std@@V?$allocator@D@2@@std@@V?$weak_ptr@USpriteData@@@2@@std@@PAX@2@@Z 00452399 f   BuilderUI.obj
 0001:000513c0       __unwindfunclet$?_Orphan_ptr@?$_Tree@V?$_Tmap_traits@V?$basic_string@DU?$char_traits@D@std@@V?$allocator@D@2@@std@@V?$weak_ptr@VRawImageData@@@2@U?$less@V?$basic_string@DU?$char_traits@D@std@@V?$allocator@D@2@@std@@@2@V?$allocator@U?$pair@$$CBV?$basic_string@DU?$char_traits@D@std@@V?$allocator@D@2@@std@@V?$weak_ptr@VRawImageData@@@2@@std@@@2@$0A@@std@@@std@@IAEXPAU?$_Tree_node@U?$pair@$$CBV?$basic_string@DU?$char_traits@D@std@@V?$allocator@D@2@@std@@V?$weak_ptr@VRawImageData@@@2@@std@@PAX@2@@Z$0 004523c0 f   BuilderUI.obj
 0001:000513c9       __ehhandler$?_Orphan_ptr@?$_Tree@V?$_Tmap_traits@V?$basic_string@DU?$char_traits@D@std@@V?$allocator@D@2@@std@@V?$weak_ptr@VRawImageData@@@2@U?$less@V?$basic_string@DU?$char_traits@D@std@@V?$allocator@D@2@@std@@@2@V?$allocator@U?$pair@$$CBV?$basic_string@DU?$char_traits@D@std@@V?$allocator@D@2@@std@@V?$weak_ptr@VRawImageData@@@2@@std@@@2@$0A@@std@@@std@@IAEXPAU?$_Tree_node@U?$pair@$$CBV?$basic_string@DU?$char_traits@D@std@@V?$allocator@D@2@@std@@V?$weak_ptr@VRawImageData@@@2@@std@@PAX@2@@Z 004523c9 f   BuilderUI.obj
 0001:000513f0       __unwindfunclet$?_Orphan_range@?$vector@PAVDisplayableObject@@V?$allocator@PAVDisplayableObject@@@std@@@std@@ABEXPAPAVDisplayableObject@@0@Z$0 004523f0 f   BuilderUI.obj
 0001:000513f9       __ehhandler$?_Orphan_range@?$vector@PAVDisplayableObject@@V?$allocator@PAVDisplayableObject@@@std@@@std@@ABEXPAPAVDisplayableObject@@0@Z 004523f9 f   BuilderUI.obj
 0001:00051420       __unwindfunclet$?_Orphan_range@?$vector@PAVSimpleImage@@V?$allocator@PAVSimpleImage@@@std@@@std@@ABEXPAPAVSimpleImage@@0@Z$0 00452420 f   BuilderUI.obj
 0001:00051429       __ehhandler$?_Orphan_range@?$vector@PAVSimpleImage@@V?$allocator@PAVSimpleImage@@@std@@@std@@ABEXPAPAVSimpleImage@@0@Z 00452429 f   BuilderUI.obj
 0001:00051450       __unwindfunclet$?_Orphan_range@?$vector@V?$basic_string@DU?$char_traits@D@std@@V?$allocator@D@2@@std@@V?$allocator@V?$basic_string@DU?$char_traits@D@std@@V?$allocator@D@2@@std@@@2@@std@@ABEXPAV?$basic_string@DU?$char_traits@D@std@@V?$allocator@D@2@@2@0@Z$0 00452450 f   BuilderUI.obj
 0001:00051459       __ehhandler$?_Orphan_range@?$vector@V?$basic_string@DU?$char_traits@D@std@@V?$allocator@D@2@@std@@V?$allocator@V?$basic_string@DU?$char_traits@D@std@@V?$allocator@D@2@@std@@@2@@std@@ABEXPAV?$basic_string@DU?$char_traits@D@std@@V?$allocator@D@2@@2@0@Z 00452459 f   BuilderUI.obj
 0001:00051480       __ehhandler$?_Swap_all@_Container_base12@std@@QAEXAAU12@@Z 00452480 f   BuilderUI.obj
 0001:000514a0       __unwindfunclet$?_Tidy@?$_Tree@V?$_Tmap_traits@V?$basic_string@DU?$char_traits@D@std@@V?$allocator@D@2@@std@@V?$shared_ptr@VRawImageData@@@2@U?$less@V?$basic_string@DU?$char_traits@D@std@@V?$allocator@D@2@@std@@@2@V?$allocator@U?$pair@$$CBV?$basic_string@DU?$char_traits@D@std@@V?$allocator@D@2@@std@@V?$shared_ptr@VRawImageData@@@2@@std@@@2@$0A@@std@@@std@@IAEXXZ$0 004524a0 f   BuilderUI.obj
 0001:000514a8       __unwindfunclet$?_Tidy@?$_Tree@V?$_Tmap_traits@V?$basic_string@DU?$char_traits@D@std@@V?$allocator@D@2@@std@@V?$shared_ptr@VRawImageData@@@2@U?$less@V?$basic_string@DU?$char_traits@D@std@@V?$allocator@D@2@@std@@@2@V?$allocator@U?$pair@$$CBV?$basic_string@DU?$char_traits@D@std@@V?$allocator@D@2@@std@@V?$shared_ptr@VRawImageData@@@2@@std@@@2@$0A@@std@@@std@@IAEXXZ$2 004524a8 f   BuilderUI.obj
 0001:000514b0       __ehhandler$?_Tidy@?$_Tree@V?$_Tmap_traits@V?$basic_string@DU?$char_traits@D@std@@V?$allocator@D@2@@std@@V?$shared_ptr@VRawImageData@@@2@U?$less@V?$basic_string@DU?$char_traits@D@std@@V?$allocator@D@2@@std@@@2@V?$allocator@U?$pair@$$CBV?$basic_string@DU?$char_traits@D@std@@V?$allocator@D@2@@std@@V?$shared_ptr@VRawImageData@@@2@@std@@@2@$0A@@std@@@std@@IAEXXZ 004524b0 f   BuilderUI.obj
 0001:000514d0       __unwindfunclet$?_Tidy@?$_Tree@V?$_Tmap_traits@V?$basic_string@DU?$char_traits@D@std@@V?$allocator@D@2@@std@@V?$weak_ptr@USpriteData@@@2@U?$less@V?$basic_string@DU?$char_traits@D@std@@V?$allocator@D@2@@std@@@2@V?$allocator@U?$pair@$$CBV?$basic_string@DU?$char_traits@D@std@@V?$allocator@D@2@@std@@V?$weak_ptr@USpriteData@@@2@@std@@@2@$0A@@std@@@std@@IAEXXZ$0 004524d0 f   BuilderUI.obj
 0001:000514d8       __unwindfunclet$?_Tidy@?$_Tree@V?$_Tmap_traits@V?$basic_string@DU?$char_traits@D@std@@V?$allocator@D@2@@std@@V?$weak_ptr@USpriteData@@@2@U?$less@V?$basic_string@DU?$char_traits@D@std@@V?$allocator@D@2@@std@@@2@V?$allocator@U?$pair@$$CBV?$basic_string@DU?$char_traits@D@std@@V?$allocator@D@2@@std@@V?$weak_ptr@USpriteData@@@2@@std@@@2@$0A@@std@@@std@@IAEXXZ$2 004524d8 f   BuilderUI.obj
 0001:000514e0       __ehhandler$?_Tidy@?$_Tree@V?$_Tmap_traits@V?$basic_string@DU?$char_traits@D@std@@V?$allocator@D@2@@std@@V?$weak_ptr@USpriteData@@@2@U?$less@V?$basic_string@DU?$char_traits@D@std@@V?$allocator@D@2@@std@@@2@V?$allocator@U?$pair@$$CBV?$basic_string@DU?$char_traits@D@std@@V?$allocator@D@2@@std@@V?$weak_ptr@USpriteData@@@2@@std@@@2@$0A@@std@@@std@@IAEXXZ 004524e0 f   BuilderUI.obj
 0001:00051500       __unwindfunclet$?_Tidy@?$_Tree@V?$_Tmap_traits@V?$basic_string@DU?$char_traits@D@std@@V?$allocator@D@2@@std@@V?$weak_ptr@VRawImageData@@@2@U?$less@V?$basic_string@DU?$char_traits@D@std@@V?$allocator@D@2@@std@@@2@V?$allocator@U?$pair@$$CBV?$basic_string@DU?$char_traits@D@std@@V?$allocator@D@2@@std@@V?$weak_ptr@VRawImageData@@@2@@std@@@2@$0A@@std@@@std@@IAEXXZ$0 00452500 f   BuilderUI.obj
 0001:00051508       __unwindfunclet$?_Tidy@?$_Tree@V?$_Tmap_traits@V?$basic_string@DU?$char_traits@D@std@@V?$allocator@D@2@@std@@V?$weak_ptr@VRawImageData@@@2@U?$less@V?$basic_string@DU?$char_traits@D@std@@V?$allocator@D@2@@std@@@2@V?$allocator@U?$pair@$$CBV?$basic_string@DU?$char_traits@D@std@@V?$allocator@D@2@@std@@V?$weak_ptr@VRawImageData@@@2@@std@@@2@$0A@@std@@@std@@IAEXXZ$2 00452508 f   BuilderUI.obj
 0001:00051510       __ehhandler$?_Tidy@?$_Tree@V?$_Tmap_traits@V?$basic_string@DU?$char_traits@D@std@@V?$allocator@D@2@@std@@V?$weak_ptr@VRawImageData@@@2@U?$less@V?$basic_string@DU?$char_traits@D@std@@V?$allocator@D@2@@std@@@2@V?$allocator@U?$pair@$$CBV?$basic_string@DU?$char_traits@D@std@@V?$allocator@D@2@@std@@V?$weak_ptr@VRawImageData@@@2@@std@@@2@$0A@@std@@@std@@IAEXXZ 00452510 f   BuilderUI.obj
 0001:00051530       __ehhandler$?_Unchecked_begin@?$basic_string@DU?$char_traits@D@std@@V?$allocator@D@2@@std@@QAEPADXZ 00452530 f   BuilderUI.obj
 0001:00051550       __ehhandler$?_Unchecked_end@?$basic_string@DU?$char_traits@D@std@@V?$allocator@D@2@@std@@QAEPADXZ 00452550 f   BuilderUI.obj
 0001:00051570       __ehhandler$?_Use_count@_Ref_count_base@std@@QBEJXZ 00452570 f   BuilderUI.obj
 0001:00051590       __ehhandler$?begin@?$_Tree@V?$_Tmap_traits@V?$basic_string@DU?$char_traits@D@std@@V?$allocator@D@2@@std@@V?$shared_ptr@VRawImageData@@@2@U?$less@V?$basic_string@DU?$char_traits@D@std@@V?$allocator@D@2@@std@@@2@V?$allocator@U?$pair@$$CBV?$basic_string@DU?$char_traits@D@std@@V?$allocator@D@2@@std@@V?$shared_ptr@VRawImageData@@@2@@std@@@2@$0A@@std@@@std@@QAE?AV?$_Tree_iterator@V?$_Tree_val@U?$_Tree_simple_types@U?$pair@$$CBV?$basic_string@DU?$char_traits@D@std@@V?$allocator@D@2@@std@@V?$shared_ptr@VRawImageData@@@2@@std@@@std@@@std@@@2@XZ 00452590 f   BuilderUI.obj
 0001:000515b0       __ehhandler$?begin@?$_Tree@V?$_Tmap_traits@V?$basic_string@DU?$char_traits@D@std@@V?$allocator@D@2@@std@@V?$weak_ptr@USpriteData@@@2@U?$less@V?$basic_string@DU?$char_traits@D@std@@V?$allocator@D@2@@std@@@2@V?$allocator@U?$pair@$$CBV?$basic_string@DU?$char_traits@D@std@@V?$allocator@D@2@@std@@V?$weak_ptr@USpriteData@@@2@@std@@@2@$0A@@std@@@std@@QAE?AV?$_Tree_iterator@V?$_Tree_val@U?$_Tree_simple_types@U?$pair@$$CBV?$basic_string@DU?$char_traits@D@std@@V?$allocator@D@2@@std@@V?$weak_ptr@USpriteData@@@2@@std@@@std@@@std@@@2@XZ 004525b0 f   BuilderUI.obj
 0001:000515d0       __ehhandler$?begin@?$_Tree@V?$_Tmap_traits@V?$basic_string@DU?$char_traits@D@std@@V?$allocator@D@2@@std@@V?$weak_ptr@VRawImageData@@@2@U?$less@V?$basic_string@DU?$char_traits@D@std@@V?$allocator@D@2@@std@@@2@V?$allocator@U?$pair@$$CBV?$basic_string@DU?$char_traits@D@std@@V?$allocator@D@2@@std@@V?$weak_ptr@VRawImageData@@@2@@std@@@2@$0A@@std@@@std@@QAE?AV?$_Tree_iterator@V?$_Tree_val@U?$_Tree_simple_types@U?$pair@$$CBV?$basic_string@DU?$char_traits@D@std@@V?$allocator@D@2@@std@@V?$weak_ptr@VRawImageData@@@2@@std@@@std@@@std@@@2@XZ 004525d0 f   BuilderUI.obj
 0001:000515f0       __ehhandler$?begin@?$vector@PAVDisplayableObject@@V?$allocator@PAVDisplayableObject@@@std@@@std@@QAE?AV?$_Vector_iterator@V?$_Vector_val@U?$_Simple_types@PAVDisplayableObject@@@std@@@std@@@2@XZ 004525f0 f   BuilderUI.obj
 0001:00051610       __ehhandler$?c_str@?$basic_string@DU?$char_traits@D@std@@V?$allocator@D@2@@std@@QBEPBDXZ 00452610 f   BuilderUI.obj
 0001:00051630       __ehhandler$?clear@?$_Tree@V?$_Tmap_traits@V?$basic_string@DU?$char_traits@D@std@@V?$allocator@D@2@@std@@V?$shared_ptr@VRawImageData@@@2@U?$less@V?$basic_string@DU?$char_traits@D@std@@V?$allocator@D@2@@std@@@2@V?$allocator@U?$pair@$$CBV?$basic_string@DU?$char_traits@D@std@@V?$allocator@D@2@@std@@V?$shared_ptr@VRawImageData@@@2@@std@@@2@$0A@@std@@@std@@QAEXXZ 00452630 f   BuilderUI.obj
 0001:00051650       __ehhandler$?clear@?$_Tree@V?$_Tmap_traits@V?$basic_string@DU?$char_traits@D@std@@V?$allocator@D@2@@std@@V?$weak_ptr@USpriteData@@@2@U?$less@V?$basic_string@DU?$char_traits@D@std@@V?$allocator@D@2@@std@@@2@V?$allocator@U?$pair@$$CBV?$basic_string@DU?$char_traits@D@std@@V?$allocator@D@2@@std@@V?$weak_ptr@USpriteData@@@2@@std@@@2@$0A@@std@@@std@@QAEXXZ 00452650 f   BuilderUI.obj
 0001:00051670       __ehhandler$?clear@?$_Tree@V?$_Tmap_traits@V?$basic_string@DU?$char_traits@D@std@@V?$allocator@D@2@@std@@V?$weak_ptr@VRawImageData@@@2@U?$less@V?$basic_string@DU?$char_traits@D@std@@V?$allocator@D@2@@std@@@2@V?$allocator@U?$pair@$$CBV?$basic_string@DU?$char_traits@D@std@@V?$allocator@D@2@@std@@V?$weak_ptr@VRawImageData@@@2@@std@@@2@$0A@@std@@@std@@QAEXXZ 00452670 f   BuilderUI.obj
 0001:00051690       __ehhandler$?compare@?$basic_string@DU?$char_traits@D@std@@V?$allocator@D@2@@std@@QBEHABV12@@Z 00452690 f   BuilderUI.obj
 0001:000516b0       __ehhandler$?data@?$basic_string@DU?$char_traits@D@std@@V?$allocator@D@2@@std@@QBEPBDXZ 004526b0 f   BuilderUI.obj
 0001:000516d0       __unwindfunclet$?drawPartInfo@PartCatalogue@@QAEXPAVBaseEngine@@PAVDrawingSurface@@@Z$2 004526d0 f   BuilderUI.obj
 0001:000516db       __unwindfunclet$?drawPartInfo@PartCatalogue@@QAEXPAVBaseEngine@@PAVDrawingSurface@@@Z$3 004526db f   BuilderUI.obj
 0001:000516e6       __unwindfunclet$?drawPartInfo@PartCatalogue@@QAEXPAVBaseEngine@@PAVDrawingSurface@@@Z$4 004526e6 f   BuilderUI.obj
 0001:000516f1       __unwindfunclet$?drawPartInfo@PartCatalogue@@QAEXPAVBaseEngine@@PAVDrawingSurface@@@Z$5 004526f1 f   BuilderUI.obj
 0001:000516f9       __unwindfunclet$?drawPartInfo@PartCatalogue@@QAEXPAVBaseEngine@@PAVDrawingSurface@@@Z$6 004526f9 f   BuilderUI.obj
 0001:00051701       __unwindfunclet$?drawPartInfo@PartCatalogue@@QAEXPAVBaseEngine@@PAVDrawingSurface@@@Z$7 00452701 f   BuilderUI.obj
 0001:0005170c       __unwindfunclet$?drawPartInfo@PartCatalogue@@QAEXPAVBaseEngine@@PAVDrawingSurface@@@Z$8 0045270c f   BuilderUI.obj
 0001:00051717       __unwindfunclet$?drawPartInfo@PartCatalogue@@QAEXPAVBaseEngine@@PAVDrawingSurface@@@Z$9 00452717 f   BuilderUI.obj
 0001:0005171f       __unwindfunclet$?drawPartInfo@PartCatalogue@@QAEXPAVBaseEngine@@PAVDrawingSurface@@@Z$10 0045271f f   BuilderUI.obj
 0001:00051727       __unwindfunclet$?drawPartInfo@PartCatalogue@@QAEXPAVBaseEngine@@PAVDrawingSurface@@@Z$11 00452727 f   BuilderUI.obj
 0001:00051732       __unwindfunclet$?drawPartInfo@PartCatalogue@@QAEXPAVBaseEngine@@PAVDrawingSurface@@@Z$12 00452732 f   BuilderUI.obj
 0001:0005173d       __unwindfunclet$?drawPartInfo@PartCatalogue@@QAEXPAVBaseEngine@@PAVDrawingSurface@@@Z$13 0045273d f   BuilderUI.obj
 0001:00051748       __unwindfunclet$?drawPartInfo@PartCatalogue@@QAEXPAVBaseEngine@@PAVDrawingSurface@@@Z$14 00452748 f   BuilderUI.obj
 0001:00051753       __unwindfunclet$?drawPartInfo@PartCatalogue@@QAEXPAVBaseEngine@@PAVDrawingSurface@@@Z$15 00452753 f   BuilderUI.obj
 0001:0005175e       __ehhandler$?drawPartInfo@PartCatalogue@@QAEXPAVBaseEngine@@PAVDrawingSurface@@@Z 0045275e f   BuilderUI.obj
 0001:00051790       __ehhandler$?end@?$_Tree@V?$_Tmap_traits@V?$basic_string@DU?$char_traits@D@std@@V?$allocator@D@2@@std@@V?$shared_ptr@VRawImageData@@@2@U?$less@V?$basic_string@DU?$char_traits@D@std@@V?$allocator@D@2@@std@@@2@V?$allocator@U?$pair@$$CBV?$basic_string@DU?$char_traits@D@std@@V?$allocator@D@2@@std@@V?$shared_ptr@VRawImageData@@@2@@std@@@2@$0A@@std@@@std@@QAE?AV?$_Tree_iterator@V?$_Tree_val@U?$_Tree_simple_types@U?$pair@$$CBV?$basic_string@DU?$char_traits@D@std@@V?$allocator@D@2@@std@@V?$shared_ptr@VRawImageData@@@2@@std@@@std@@@std@@@2@XZ 00452790 f   BuilderUI.obj
 0001:000517b0       __ehhandler$?end@?$_Tree@V?$_Tmap_traits@V?$basic_string@DU?$char_traits@D@std@@V?$allocator@D@2@@std@@V?$weak_ptr@USpriteData@@@2@U?$less@V?$basic_string@DU?$char_traits@D@std@@V?$allocator@D@2@@std@@@2@V?$allocator@U?$pair@$$CBV?$basic_string@DU?$char_traits@D@std@@V?$allocator@D@2@@std@@V?$weak_ptr@USpriteData@@@2@@std@@@2@$0A@@std@@@std@@QAE?AV?$_Tree_iterator@V?$_Tree_val@U?$_Tree_simple_types@U?$pair@$$CBV?$basic_string@DU?$char_traits@D@std@@V?$allocator@D@2@@std@@V?$weak_ptr@USpriteData@@@2@@std@@@std@@@std@@@2@XZ 004527b0 f   BuilderUI.obj
 0001:000517d0       __ehhandler$?end@?$_Tree@V?$_Tmap_traits@V?$basic_string@DU?$char_traits@D@std@@V?$allocator@D@2@@std@@V?$weak_ptr@VRawImageData@@@2@U?$less@V?$basic_string@DU?$char_traits@D@std@@V?$allocator@D@2@@std@@@2@V?$allocator@U?$pair@$$CBV?$basic_string@DU?$char_traits@D@std@@V?$allocator@D@2@@std@@V?$weak_ptr@VRawImageData@@@2@@std@@@2@$0A@@std@@@std@@QAE?AV?$_Tree_iterator@V?$_Tree_val@U?$_Tree_simple_types@U?$pair@$$CBV?$basic_string@DU?$char_traits@D@std@@V?$allocator@D@2@@std@@V?$weak_ptr@VRawImageData@@@2@@std@@@std@@@std@@@2@XZ 004527d0 f   BuilderUI.obj
 0001:000517f0       __ehhandler$?end@?$vector@PAVDisplayableObject@@V?$allocator@PAVDisplayableObject@@@std@@@std@@QAE?AV?$_Vector_iterator@V?$_Vector_val@U?$_Simple_types@PAVDisplayableObject@@@std@@@std@@@2@XZ 004527f0 f   BuilderUI.obj
 0001:00051810       __unwindfunclet$?erase@?$_Tree@V?$_Tmap_traits@V?$basic_string@DU?$char_traits@D@std@@V?$allocator@D@2@@std@@V?$shared_ptr@VRawImageData@@@2@U?$less@V?$basic_string@DU?$char_traits@D@std@@V?$allocator@D@2@@std@@@2@V?$allocator@U?$pair@$$CBV?$basic_string@DU?$char_traits@D@std@@V?$allocator@D@2@@std@@V?$shared_ptr@VRawImageData@@@2@@std@@@2@$0A@@std@@@std@@QAE?AV?$_Tree_iterator@V?$_Tree_val@U?$_Tree_simple_types@U?$pair@$$CBV?$basic_string@DU?$char_traits@D@std@@V?$allocator@D@2@@std@@V?$shared_ptr@VRawImageData@@@2@@std@@@std@@@std@@@2@V?$_Tree_const_iterator@V?$_Tree_val@U?$_Tree_simple_types@U?$pair@$$CBV?$basic_string@DU?$char_traits@D@std@@V?$allocator@D@2@@std@@V?$shared_ptr@VRawImageData@@@2@@std@@@std@@@std@@@2@0@Z$0 00452810 f   BuilderUI.obj
 0001:00051818       __unwindfunclet$?erase@?$_Tree@V?$_Tmap_traits@V?$basic_string@DU?$char_traits@D@std@@V?$allocator@D@2@@std@@V?$shared_ptr@VRawImageData@@@2@U?$less@V?$basic_string@DU?$char_traits@D@std@@V?$allocator@D@2@@std@@@2@V?$allocator@U?$pair@$$CBV?$basic_string@DU?$char_traits@D@std@@V?$allocator@D@2@@std@@V?$shared_ptr@VRawImageData@@@2@@std@@@2@$0A@@std@@@std@@QAE?AV?$_Tree_iterator@V?$_Tree_val@U?$_Tree_simple_types@U?$pair@$$CBV?$basic_string@DU?$char_traits@D@std@@V?$allocator@D@2@@std@@V?$shared_ptr@VRawImageData@@@2@@std@@@std@@@std@@@2@V?$_Tree_const_iterator@V?$_Tree_val@U?$_Tree_simple_types@U?$pair@$$CBV?$basic_string@DU?$char_traits@D@std@@V?$allocator@D@2@@std@@V?$shared_ptr@VRawImageData@@@2@@std@@@std@@@std@@@2@0@Z$1 00452818 f   BuilderUI.obj
 0001:00051820       __unwindfunclet$?erase@?$_Tree@V?$_Tmap_traits@V?$basic_string@DU?$char_traits@D@std@@V?$allocator@D@2@@std@@V?$shared_ptr@VRawImageData@@@2@U?$less@V?$basic_string@DU?$char_traits@D@std@@V?$allocator@D@2@@std@@@2@V?$allocator@U?$pair@$$CBV?$basic_string@DU?$char_traits@D@std@@V?$allocator@D@2@@std@@V?$shared_ptr@VRawImageData@@@2@@std@@@2@$0A@@std@@@std@@QAE?AV?$_Tree_iterator@V?$_Tree_val@U?$_Tree_simple_types@U?$pair@$$CBV?$basic_string@DU?$char_traits@D@std@@V?$allocator@D@2@@std@@V?$shared_ptr@VRawImageData@@@2@@std@@@std@@@std@@@2@V?$_Tree_const_iterator@V?$_Tree_val@U?$_Tree_simple_types@U?$pair@$$CBV?$basic_string@DU?$char_traits@D@std@@V?$allocator@D@2@@std@@V?$shared_ptr@VRawImageData@@@2@@std@@@std@@@std@@@2@0@Z$2 00452820 f   BuilderUI.obj
 0001:00051839       __unwindfunclet$?erase@?$_Tree@V?$_Tmap_traits@V?$basic_string@DU?$char_traits@D@std@@V?$allocator@D@2@@std@@V?$shared_ptr@VRawImageData@@@2@U?$less@V?$basic_string@DU?$char_traits@D@std@@V?$allocator@D@2@@std@@@2@V?$allocator@U?$pair@$$CBV?$basic_string@DU?$char_traits@D@std@@V?$allocator@D@2@@std@@V?$shared_ptr@VRawImageData@@@2@@std@@@2@$0A@@std@@@std@@QAE?AV?$_Tree_iterator@V?$_Tree_val@U?$_Tree_simple_types@U?$pair@$$CBV?$basic_string@DU?$char_traits@D@std@@V?$allocator@D@2@@std@@V?$shared_ptr@VRawImageData@@@2@@std@@@std@@@std@@@2@V?$_Tree_const_iterator@V?$_Tree_val@U?$_Tree_simple_types@U?$pair@$$CBV?$basic_string@DU?$char_traits@D@std@@V?$allocator@D@2@@std@@V?$shared_ptr@VRawImageData@@@2@@std@@@std@@@std@@@2@0@Z$3 00452839 f   BuilderUI.obj
 0001:00051852       __ehhandler$?erase@?$_Tree@V?$_Tmap_traits@V?$basic_string@DU?$char_traits@D@std@@V?$allocator@D@2@@std@@V?$shared_ptr@VRawImageData@@@2@U?$less@V?$basic_string@DU?$char_traits@D@std@@V?$allocator@D@2@@std@@@2@V?$allocator@U?$pair@$$CBV?$basic_string@DU?$char_traits@D@std@@V?$allocator@D@2@@std@@V?$shared_ptr@VRawImageData@@@2@@std@@@2@$0A@@std@@@std@@QAE?AV?$_Tree_iterator@V?$_Tree_val@U?$_Tree_simple_types@U?$pair@$$CBV?$basic_string@DU?$char_traits@D@std@@V?$allocator@D@2@@std@@V?$shared_ptr@VRawImageData@@@2@@std@@@std@@@std@@@2@V?$_Tree_const_iterator@V?$_Tree_val@U?$_Tree_simple_types@U?$pair@$$CBV?$basic_string@DU?$char_traits@D@std@@V?$allocator@D@2@@std@@V?$shared_ptr@VRawImageData@@@2@@std@@@std@@@std@@@2@0@Z 00452852 f   BuilderUI.obj
 0001:00051870       __unwindfunclet$?erase@?$_Tree@V?$_Tmap_traits@V?$basic_string@DU?$char_traits@D@std@@V?$allocator@D@2@@std@@V?$shared_ptr@VRawImageData@@@2@U?$less@V?$basic_string@DU?$char_traits@D@std@@V?$allocator@D@2@@std@@@2@V?$allocator@U?$pair@$$CBV?$basic_string@DU?$char_traits@D@std@@V?$allocator@D@2@@std@@V?$shared_ptr@VRawImageData@@@2@@std@@@2@$0A@@std@@@std@@QAE?AV?$_Tree_iterator@V?$_Tree_val@U?$_Tree_simple_types@U?$pair@$$CBV?$basic_string@DU?$char_traits@D@std@@V?$allocator@D@2@@std@@V?$shared_ptr@VRawImageData@@@2@@std@@@std@@@std@@@2@V?$_Tree_const_iterator@V?$_Tree_val@U?$_Tree_simple_types@U?$pair@$$CBV?$basic_string@DU?$char_traits@D@std@@V?$allocator@D@2@@std@@V?$shared_ptr@VRawImageData@@@2@@std@@@std@@@std@@@2@@Z$0 00452870 f   BuilderUI.obj
 0001:00051878       __unwindfunclet$?erase@?$_Tree@V?$_Tmap_traits@V?$basic_string@DU?$char_traits@D@std@@V?$allocator@D@2@@std@@V?$shared_ptr@VRawImageData@@@2@U?$less@V?$basic_string@DU?$char_traits@D@std@@V?$allocator@D@2@@std@@@2@V?$allocator@U?$pair@$$CBV?$basic_string@DU?$char_traits@D@std@@V?$allocator@D@2@@std@@V?$shared_ptr@VRawImageData@@@2@@std@@@2@$0A@@std@@@std@@QAE?AV?$_Tree_iterator@V?$_Tree_val@U?$_Tree_simple_types@U?$pair@$$CBV?$basic_string@DU?$char_traits@D@std@@V?$allocator@D@2@@std@@V?$shared_ptr@VRawImageData@@@2@@std@@@std@@@std@@@2@V?$_Tree_const_iterator@V?$_Tree_val@U?$_Tree_simple_types@U?$pair@$$CBV?$basic_string@DU?$char_traits@D@std@@V?$allocator@D@2@@std@@V?$shared_ptr@VRawImageData@@@2@@std@@@std@@@std@@@2@@Z$1 00452878 f   BuilderUI.obj
 0001:00051880       __ehhandler$?erase@?$_Tree@V?$_Tmap_traits@V?$basic_string@DU?$char_traits@D@std@@V?$allocator@D@2@@std@@V?$shared_ptr@VRawImageData@@@2@U?$less@V?$basic_string@DU?$char_traits@D@std@@V?$allocator@D@2@@std@@@2@V?$allocator@U?$pair@$$CBV?$basic_string@DU?$char_traits@D@std@@V?$allocator@D@2@@std@@V?$shared_ptr@VRawImageData@@@2@@std@@@2@$0A@@std@@@std@@QAE?AV?$_Tree_iterator@V?$_Tree_val@U?$_Tree_simple_types@U?$pair@$$CBV?$basic_string@DU?$char_traits@D@std@@V?$allocator@D@2@@std@@V?$shared_ptr@VRawImageData@@@2@@std@@@std@@@std@@@2@V?$_Tree_const_iterator@V?$_Tree_val@U?$_Tree_simple_types@U?$pair@$$CBV?$basic_string@DU?$char_traits@D@std@@V?$allocator@D@2@@std@@V?$shared_ptr@VRawImageData@@@2@@std@@@std@@@std@@@2@@Z 00452880 f   BuilderUI.obj
 0001:000518a0       __unwindfunclet$?erase@?$_Tree@V?$_Tmap_traits@V?$basic_string@DU?$char_traits@D@std@@V?$allocator@D@2@@std@@V?$weak_ptr@USpriteData@@@2@U?$less@V?$basic_string@DU?$char_traits@D@std@@V?$allocator@D@2@@std@@@2@V?$allocator@U?$pair@$$CBV?$basic_string@DU?$char_traits@D@std@@V?$allocator@D@2@@std@@V?$weak_ptr@USpriteData@@@2@@std@@@2@$0A@@std@@@std@@QAE?AV?$_Tree_iterator@V?$_Tree_val@U?$_Tree_simple_types@U?$pair@$$CBV?$basic_string@DU?$char_traits@D@std@@V?$allocator@D@2@@std@@V?$weak_ptr@USpriteData@@@2@@std@@@std@@@std@@@2@V?$_Tree_const_iterator@V?$_Tree_val@U?$_Tree_simple_types@U?$pair@$$CBV?$basic_string@DU?$char_traits@D@std@@V?$allocator@D@2@@std@@V?$weak_ptr@USpriteData@@@2@@std@@@std@@@std@@@2@0@Z$0 004528a0 f   BuilderUI.obj
 0001:000518a8       __unwindfunclet$?erase@?$_Tree@V?$_Tmap_traits@V?$basic_string@DU?$char_traits@D@std@@V?$allocator@D@2@@std@@V?$weak_ptr@USpriteData@@@2@U?$less@V?$basic_string@DU?$char_traits@D@std@@V?$allocator@D@2@@std@@@2@V?$allocator@U?$pair@$$CBV?$basic_string@DU?$char_traits@D@std@@V?$allocator@D@2@@std@@V?$weak_ptr@USpriteData@@@2@@std@@@2@$0A@@std@@@std@@QAE?AV?$_Tree_iterator@V?$_Tree_val@U?$_Tree_simple_types@U?$pair@$$CBV?$basic_string@DU?$char_traits@D@std@@V?$allocator@D@2@@std@@V?$weak_ptr@USpriteData@@@2@@std@@@std@@@std@@@2@V?$_Tree_const_iterator@V?$_Tree_val@U?$_Tree_simple_types@U?$pair@$$CBV?$basic_string@DU?$char_traits@D@std@@V?$allocator@D@2@@std@@V?$weak_ptr@USpriteData@@@2@@std@@@std@@@std@@@2@0@Z$1 004528a8 f   BuilderUI.obj
 0001:000518b0       __unwindfunclet$?erase@?$_Tree@V?$_Tmap_traits@V?$basic_string@DU?$char_traits@D@std@@V?$allocator@D@2@@std@@V?$weak_ptr@USpriteData@@@2@U?$less@V?$basic_string@DU?$char_traits@D@std@@V?$allocator@D@2@@std@@@2@V?$allocator@U?$pair@$$CBV?$basic_string@DU?$char_traits@D@std@@V?$allocator@D@2@@std@@V?$weak_ptr@USpriteData@@@2@@std@@@2@$0A@@std@@@std@@QAE?AV?$_Tree_iterator@V?$_Tree_val@U?$_Tree_simple_types@U?$pair@$$CBV?$basic_string@DU?$char_traits@D@std@@V?$allocator@D@2@@std@@V?$weak_ptr@USpriteData@@@2@@std@@@std@@@std@@@2@V?$_Tree_const_iterator@V?$_Tree_val@U?$_Tree_simple_types@U?$pair@$$CBV?$basic_string@DU?$char_traits@D@std@@V?$allocator@D@2@@std@@V?$weak_ptr@USpriteData@@@2@@std@@@std@@@std@@@2@0@Z$2 004528b0 f   BuilderUI.obj
 0001:000518c9       __unwindfunclet$?erase@?$_Tree@V?$_Tmap_traits@V?$basic_string@DU?$char_traits@D@std@@V?$allocator@D@2@@std@@V?$weak_ptr@USpriteData@@@2@U?$less@V?$basic_string@DU?$char_traits@D@std@@V?$allocator@D@2@@std@@@2@V?$allocator@U?$pair@$$CBV?$basic_string@DU?$char_traits@D@std@@V?$allocator@D@2@@std@@V?$weak_ptr@USpriteData@@@2@@std@@@2@$0A@@std@@@std@@QAE?AV?$_Tree_iterator@V?$_Tree_val@U?$_Tree_simple_types@U?$pair@$$CBV?$basic_string@DU?$char_traits@D@std@@V?$allocator@D@2@@std@@V?$weak_ptr@USpriteData@@@2@@std@@@std@@@std@@@2@V?$_Tree_const_iterator@V?$_Tree_val@U?$_Tree_simple_types@U?$pair@$$CBV?$basic_string@DU?$char_traits@D@std@@V?$allocator@D@2@@std@@V?$weak_ptr@USpriteData@@@2@@std@@@std@@@std@@@2@0@Z$3 004528c9 f   BuilderUI.obj
 0001:000518e2       __ehhandler$?erase@?$_Tree@V?$_Tmap_traits@V?$basic_string@DU?$char_traits@D@std@@V?$allocator@D@2@@std@@V?$weak_ptr@USpriteData@@@2@U?$less@V?$basic_string@DU?$char_traits@D@std@@V?$allocator@D@2@@std@@@2@V?$allocator@U?$pair@$$CBV?$basic_string@DU?$char_traits@D@std@@V?$allocator@D@2@@std@@V?$weak_ptr@USpriteData@@@2@@std@@@2@$0A@@std@@@std@@QAE?AV?$_Tree_iterator@V?$_Tree_val@U?$_Tree_simple_types@U?$pair@$$CBV?$basic_string@DU?$char_traits@D@std@@V?$allocator@D@2@@std@@V?$weak_ptr@USpriteData@@@2@@std@@@std@@@std@@@2@V?$_Tree_const_iterator@V?$_Tree_val@U?$_Tree_simple_types@U?$pair@$$CBV?$basic_string@DU?$char_traits@D@std@@V?$allocator@D@2@@std@@V?$weak_ptr@USpriteData@@@2@@std@@@std@@@std@@@2@0@Z 004528e2 f   BuilderUI.obj
 0001:00051900       __unwindfunclet$?erase@?$_Tree@V?$_Tmap_traits@V?$basic_string@DU?$char_traits@D@std@@V?$allocator@D@2@@std@@V?$weak_ptr@USpriteData@@@2@U?$less@V?$basic_string@DU?$char_traits@D@std@@V?$allocator@D@2@@std@@@2@V?$allocator@U?$pair@$$CBV?$basic_string@DU?$char_traits@D@std@@V?$allocator@D@2@@std@@V?$weak_ptr@USpriteData@@@2@@std@@@2@$0A@@std@@@std@@QAE?AV?$_Tree_iterator@V?$_Tree_val@U?$_Tree_simple_types@U?$pair@$$CBV?$basic_string@DU?$char_traits@D@std@@V?$allocator@D@2@@std@@V?$weak_ptr@USpriteData@@@2@@std@@@std@@@std@@@2@V?$_Tree_const_iterator@V?$_Tree_val@U?$_Tree_simple_types@U?$pair@$$CBV?$basic_string@DU?$char_traits@D@std@@V?$allocator@D@2@@std@@V?$weak_ptr@USpriteData@@@2@@std@@@std@@@std@@@2@@Z$0 00452900 f   BuilderUI.obj
 0001:00051908       __unwindfunclet$?erase@?$_Tree@V?$_Tmap_traits@V?$basic_string@DU?$char_traits@D@std@@V?$allocator@D@2@@std@@V?$weak_ptr@USpriteData@@@2@U?$less@V?$basic_string@DU?$char_traits@D@std@@V?$allocator@D@2@@std@@@2@V?$allocator@U?$pair@$$CBV?$basic_string@DU?$char_traits@D@std@@V?$allocator@D@2@@std@@V?$weak_ptr@USpriteData@@@2@@std@@@2@$0A@@std@@@std@@QAE?AV?$_Tree_iterator@V?$_Tree_val@U?$_Tree_simple_types@U?$pair@$$CBV?$basic_string@DU?$char_traits@D@std@@V?$allocator@D@2@@std@@V?$weak_ptr@USpriteData@@@2@@std@@@std@@@std@@@2@V?$_Tree_const_iterator@V?$_Tree_val@U?$_Tree_simple_types@U?$pair@$$CBV?$basic_string@DU?$char_traits@D@std@@V?$allocator@D@2@@std@@V?$weak_ptr@USpriteData@@@2@@std@@@std@@@std@@@2@@Z$1 00452908 f   BuilderUI.obj
 0001:00051910       __ehhandler$?erase@?$_Tree@V?$_Tmap_traits@V?$basic_string@DU?$char_traits@D@std@@V?$allocator@D@2@@std@@V?$weak_ptr@USpriteData@@@2@U?$less@V?$basic_string@DU?$char_traits@D@std@@V?$allocator@D@2@@std@@@2@V?$allocator@U?$pair@$$CBV?$basic_string@DU?$char_traits@D@std@@V?$allocator@D@2@@std@@V?$weak_ptr@USpriteData@@@2@@std@@@2@$0A@@std@@@std@@QAE?AV?$_Tree_iterator@V?$_Tree_val@U?$_Tree_simple_types@U?$pair@$$CBV?$basic_string@DU?$char_traits@D@std@@V?$allocator@D@2@@std@@V?$weak_ptr@USpriteData@@@2@@std@@@std@@@std@@@2@V?$_Tree_const_iterator@V?$_Tree_val@U?$_Tree_simple_types@U?$pair@$$CBV?$basic_string@DU?$char_traits@D@std@@V?$allocator@D@2@@std@@V?$weak_ptr@USpriteData@@@2@@std@@@std@@@std@@@2@@Z 00452910 f   BuilderUI.obj
 0001:00051930       __unwindfunclet$?erase@?$_Tree@V?$_Tmap_traits@V?$basic_string@DU?$char_traits@D@std@@V?$allocator@D@2@@std@@V?$weak_ptr@VRawImageData@@@2@U?$less@V?$basic_string@DU?$char_traits@D@std@@V?$allocator@D@2@@std@@@2@V?$allocator@U?$pair@$$CBV?$basic_string@DU?$char_traits@D@std@@V?$allocator@D@2@@std@@V?$weak_ptr@VRawImageData@@@2@@std@@@2@$0A@@std@@@std@@QAE?AV?$_Tree_iterator@V?$_Tree_val@U?$_Tree_simple_types@U?$pair@$$CBV?$basic_string@DU?$char_traits@D@std@@V?$allocator@D@2@@std@@V?$weak_ptr@VRawImageData@@@2@@std@@@std@@@std@@@2@V?$_Tree_const_iterator@V?$_Tree_val@U?$_Tree_simple_types@U?$pair@$$CBV?$basic_string@DU?$char_traits@D@std@@V?$allocator@D@2@@std@@V?$weak_ptr@VRawImageData@@@2@@std@@@std@@@std@@@2@0@Z$0 00452930 f   BuilderUI.obj
 0001:00051938       __unwindfunclet$?erase@?$_Tree@V?$_Tmap_traits@V?$basic_string@DU?$char_traits@D@std@@V?$allocator@D@2@@std@@V?$weak_ptr@VRawImageData@@@2@U?$less@V?$basic_string@DU?$char_traits@D@std@@V?$allocator@D@2@@std@@@2@V?$allocator@U?$pair@$$CBV?$basic_string@DU?$char_traits@D@std@@V?$allocator@D@2@@std@@V?$weak_ptr@VRawImageData@@@2@@std@@@2@$0A@@std@@@std@@QAE?AV?$_Tree_iterator@V?$_Tree_val@U?$_Tree_simple_types@U?$pair@$$CBV?$basic_string@DU?$char_traits@D@std@@V?$allocator@D@2@@std@@V?$weak_ptr@VRawImageData@@@2@@std@@@std@@@std@@@2@V?$_Tree_const_iterator@V?$_Tree_val@U?$_Tree_simple_types@U?$pair@$$CBV?$basic_string@DU?$char_traits@D@std@@V?$allocator@D@2@@std@@V?$weak_ptr@VRawImageData@@@2@@std@@@std@@@std@@@2@0@Z$1 00452938 f   BuilderUI.obj
 0001:00051940       __unwindfunclet$?erase@?$_Tree@V?$_Tmap_traits@V?$basic_string@DU?$char_traits@D@std@@V?$allocator@D@2@@std@@V?$weak_ptr@VRawImageData@@@2@U?$less@V?$basic_string@DU?$char_traits@D@std@@V?$allocator@D@2@@std@@@2@V?$allocator@U?$pair@$$CBV?$basic_string@DU?$char_traits@D@std@@V?$allocator@D@2@@std@@V?$weak_ptr@VRawImageData@@@2@@std@@@2@$0A@@std@@@std@@QAE?AV?$_Tree_iterator@V?$_Tree_val@U?$_Tree_simple_types@U?$pair@$$CBV?$basic_string@DU?$char_traits@D@std@@V?$allocator@D@2@@std@@V?$weak_ptr@VRawImageData@@@2@@std@@@std@@@std@@@2@V?$_Tree_const_iterator@V?$_Tree_val@U?$_Tree_simple_types@U?$pair@$$CBV?$basic_string@DU?$char_traits@D@std@@V?$allocator@D@2@@std@@V?$weak_ptr@VRawImageData@@@2@@std@@@std@@@std@@@2@0@Z$2 00452940 f   BuilderUI.obj
 0001:00051959       __unwindfunclet$?erase@?$_Tree@V?$_Tmap_traits@V?$basic_string@DU?$char_traits@D@std@@V?$allocator@D@2@@std@@V?$weak_ptr@VRawImageData@@@2@U?$less@V?$basic_string@DU?$char_traits@D@std@@V?$allocator@D@2@@std@@@2@V?$allocator@U?$pair@$$CBV?$basic_string@DU?$char_traits@D@std@@V?$allocator@D@2@@std@@V?$weak_ptr@VRawImageData@@@2@@std@@@2@$0A@@std@@@std@@QAE?AV?$_Tree_iterator@V?$_Tree_val@U?$_Tree_simple_types@U?$pair@$$CBV?$basic_string@DU?$char_traits@D@std@@V?$allocator@D@2@@std@@V?$weak_ptr@VRawImageData@@@2@@std@@@std@@@std@@@2@V?$_Tree_const_iterator@V?$_Tree_val@U?$_Tree_simple_types@U?$pair@$$CBV?$basic_string@DU?$char_traits@D@std@@V?$allocator@D@2@@std@@V?$weak_ptr@VRawImageData@@@2@@std@@@std@@@std@@@2@0@Z$3 00452959 f   BuilderUI.obj
 0001:00051972       __ehhandler$?erase@?$_Tree@V?$_Tmap_traits@V?$basic_string@DU?$char_traits@D@std@@V?$allocator@D@2@@std@@V?$weak_ptr@VRawImageData@@@2@U?$less@V?$basic_string@DU?$char_traits@D@std@@V?$allocator@D@2@@std@@@2@V?$allocator@U?$pair@$$CBV?$basic_string@DU?$char_traits@D@std@@V?$allocator@D@2@@std@@V?$weak_ptr@VRawImageData@@@2@@std@@@2@$0A@@std@@@std@@QAE?AV?$_Tree_iterator@V?$_Tree_val@U?$_Tree_simple_types@U?$pair@$$CBV?$basic_string@DU?$char_traits@D@std@@V?$allocator@D@2@@std@@V?$weak_ptr@VRawImageData@@@2@@std@@@std@@@std@@@2@V?$_Tree_const_iterator@V?$_Tree_val@U?$_Tree_simple_types@U?$pair@$$CBV?$basic_string@DU?$char_traits@D@std@@V?$allocator@D@2@@std@@V?$weak_ptr@VRawImageData@@@2@@std@@@std@@@std@@@2@0@Z 00452972 f   BuilderUI.obj
 0001:00051990       __unwindfunclet$?erase@?$_Tree@V?$_Tmap_traits@V?$basic_string@DU?$char_traits@D@std@@V?$allocator@D@2@@std@@V?$weak_ptr@VRawImageData@@@2@U?$less@V?$basic_string@DU?$char_traits@D@std@@V?$allocator@D@2@@std@@@2@V?$allocator@U?$pair@$$CBV?$basic_string@DU?$char_traits@D@std@@V?$allocator@D@2@@std@@V?$weak_ptr@VRawImageData@@@2@@std@@@2@$0A@@std@@@std@@QAE?AV?$_Tree_iterator@V?$_Tree_val@U?$_Tree_simple_types@U?$pair@$$CBV?$basic_string@DU?$char_traits@D@std@@V?$allocator@D@2@@std@@V?$weak_ptr@VRawImageData@@@2@@std@@@std@@@std@@@2@V?$_Tree_const_iterator@V?$_Tree_val@U?$_Tree_simple_types@U?$pair@$$CBV?$basic_string@DU?$char_traits@D@std@@V?$allocator@D@2@@std@@V?$weak_ptr@VRawImageData@@@2@@std@@@std@@@std@@@2@@Z$0 00452990 f   BuilderUI.obj
 0001:00051998       __unwindfunclet$?erase@?$_Tree@V?$_Tmap_traits@V?$basic_string@DU?$char_traits@D@std@@V?$allocator@D@2@@std@@V?$weak_ptr@VRawImageData@@@2@U?$less@V?$basic_string@DU?$char_traits@D@std@@V?$allocator@D@2@@std@@@2@V?$allocator@U?$pair@$$CBV?$basic_string@DU?$char_traits@D@std@@V?$allocator@D@2@@std@@V?$weak_ptr@VRawImageData@@@2@@std@@@2@$0A@@std@@@std@@QAE?AV?$_Tree_iterator@V?$_Tree_val@U?$_Tree_simple_types@U?$pair@$$CBV?$basic_string@DU?$char_traits@D@std@@V?$allocator@D@2@@std@@V?$weak_ptr@VRawImageData@@@2@@std@@@std@@@std@@@2@V?$_Tree_const_iterator@V?$_Tree_val@U?$_Tree_simple_types@U?$pair@$$CBV?$basic_string@DU?$char_traits@D@std@@V?$allocator@D@2@@std@@V?$weak_ptr@VRawImageData@@@2@@std@@@std@@@std@@@2@@Z$1 00452998 f   BuilderUI.obj
 0001:000519a0       __ehhandler$?erase@?$_Tree@V?$_Tmap_traits@V?$basic_string@DU?$char_traits@D@std@@V?$allocator@D@2@@std@@V?$weak_ptr@VRawImageData@@@2@U?$less@V?$basic_string@DU?$char_traits@D@std@@V?$allocator@D@2@@std@@@2@V?$allocator@U?$pair@$$CBV?$basic_string@DU?$char_traits@D@std@@V?$allocator@D@2@@std@@V?$weak_ptr@VRawImageData@@@2@@std@@@2@$0A@@std@@@std@@QAE?AV?$_Tree_iterator@V?$_Tree_val@U?$_Tree_simple_types@U?$pair@$$CBV?$basic_string@DU?$char_traits@D@std@@V?$allocator@D@2@@std@@V?$weak_ptr@VRawImageData@@@2@@std@@@std@@@std@@@2@V?$_Tree_const_iterator@V?$_Tree_val@U?$_Tree_simple_types@U?$pair@$$CBV?$basic_string@DU?$char_traits@D@std@@V?$allocator@D@2@@std@@V?$weak_ptr@VRawImageData@@@2@@std@@@std@@@std@@@2@@Z 004529a0 f   BuilderUI.obj
 0001:000519c0       __unwindfunclet$?erase@?$vector@PAVDisplayableObject@@V?$allocator@PAVDisplayableObject@@@std@@@std@@QAE?AV?$_Vector_iterator@V?$_Vector_val@U?$_Simple_types@PAVDisplayableObject@@@std@@@std@@@2@V?$_Vector_const_iterator@V?$_Vector_val@U?$_Simple_types@PAVDisplayableObject@@@std@@@std@@@2@@Z$0 004529c0 f   BuilderUI.obj
 0001:000519c8       __ehhandler$?erase@?$vector@PAVDisplayableObject@@V?$allocator@PAVDisplayableObject@@@std@@@std@@QAE?AV?$_Vector_iterator@V?$_Vector_val@U?$_Simple_types@PAVDisplayableObject@@@std@@@std@@@2@V?$_Vector_const_iterator@V?$_Vector_val@U?$_Simple_types@PAVDisplayableObject@@@std@@@std@@@2@@Z 004529c8 f   BuilderUI.obj
 0001:000519f0       __unwindfunclet$?find@?$_Tree@V?$_Tmap_traits@V?$basic_string@DU?$char_traits@D@std@@V?$allocator@D@2@@std@@V?$weak_ptr@USpriteData@@@2@U?$less@V?$basic_string@DU?$char_traits@D@std@@V?$allocator@D@2@@std@@@2@V?$allocator@U?$pair@$$CBV?$basic_string@DU?$char_traits@D@std@@V?$allocator@D@2@@std@@V?$weak_ptr@USpriteData@@@2@@std@@@2@$0A@@std@@@std@@QAE?AV?$_Tree_iterator@V?$_Tree_val@U?$_Tree_simple_types@U?$pair@$$CBV?$basic_string@DU?$char_traits@D@std@@V?$allocator@D@2@@std@@V?$weak_ptr@USpriteData@@@2@@std@@@std@@@std@@@2@ABV?$basic_string@DU?$char_traits@D@std@@V?$allocator@D@2@@2@@Z$0 004529f0 f   BuilderUI.obj
 0001:000519f8       __unwindfunclet$?find@?$_Tree@V?$_Tmap_traits@V?$basic_string@DU?$char_traits@D@std@@V?$allocator@D@2@@std@@V?$weak_ptr@USpriteData@@@2@U?$less@V?$basic_string@DU?$char_traits@D@std@@V?$allocator@D@2@@std@@@2@V?$allocator@U?$pair@$$CBV?$basic_string@DU?$char_traits@D@std@@V?$allocator@D@2@@std@@V?$weak_ptr@USpriteData@@@2@@std@@@2@$0A@@std@@@std@@QAE?AV?$_Tree_iterator@V?$_Tree_val@U?$_Tree_simple_types@U?$pair@$$CBV?$basic_string@DU?$char_traits@D@std@@V?$allocator@D@2@@std@@V?$weak_ptr@USpriteData@@@2@@std@@@std@@@std@@@2@ABV?$basic_string@DU?$char_traits@D@std@@V?$allocator@D@2@@2@@Z$1 004529f8 f   BuilderUI.obj
 0001:00051a11       __ehhandler$?find@?$_Tree@V?$_Tmap_traits@V?$basic_string@DU?$char_traits@D@std@@V?$allocator@D@2@@std@@V?$weak_ptr@USpriteData@@@2@U?$less@V?$basic_string@DU?$char_traits@D@std@@V?$allocator@D@2@@std@@@2@V?$allocator@U?$pair@$$CBV?$basic_string@DU?$char_traits@D@std@@V?$allocator@D@2@@std@@V?$weak_ptr@USpriteData@@@2@@std@@@2@$0A@@std@@@std@@QAE?AV?$_Tree_iterator@V?$_Tree_val@U?$_Tree_simple_types@U?$pair@$$CBV?$basic_string@DU?$char_traits@D@std@@V?$allocator@D@2@@std@@V?$weak_ptr@USpriteData@@@2@@std@@@std@@@std@@@2@ABV?$basic_string@DU?$char_traits@D@std@@V?$allocator@D@2@@2@@Z 00452a11 f   BuilderUI.obj
 0001:00051a30       __unwindfunclet$?find@?$_Tree@V?$_Tmap_traits@V?$basic_string@DU?$char_traits@D@std@@V?$allocator@D@2@@std@@V?$weak_ptr@VRawImageData@@@2@U?$less@V?$basic_string@DU?$char_traits@D@std@@V?$allocator@D@2@@std@@@2@V?$allocator@U?$pair@$$CBV?$basic_string@DU?$char_traits@D@std@@V?$allocator@D@2@@std@@V?$weak_ptr@VRawImageData@@@2@@std@@@2@$0A@@std@@@std@@QAE?AV?$_Tree_iterator@V?$_Tree_val@U?$_Tree_simple_types@U?$pair@$$CBV?$basic_string@DU?$char_traits@D@std@@V?$allocator@D@2@@std@@V?$weak_ptr@VRawImageData@@@2@@std@@@std@@@std@@@2@ABV?$basic_string@DU?$char_traits@D@std@@V?$allocator@D@2@@2@@Z$0 00452a30 f   BuilderUI.obj
 0001:00051a38       __unwindfunclet$?find@?$_Tree@V?$_Tmap_traits@V?$basic_string@DU?$char_traits@D@std@@V?$allocator@D@2@@std@@V?$weak_ptr@VRawImageData@@@2@U?$less@V?$basic_string@DU?$char_traits@D@std@@V?$allocator@D@2@@std@@@2@V?$allocator@U?$pair@$$CBV?$basic_string@DU?$char_traits@D@std@@V?$allocator@D@2@@std@@V?$weak_ptr@VRawImageData@@@2@@std@@@2@$0A@@std@@@std@@QAE?AV?$_Tree_iterator@V?$_Tree_val@U?$_Tree_simple_types@U?$pair@$$CBV?$basic_string@DU?$char_traits@D@std@@V?$allocator@D@2@@std@@V?$weak_ptr@VRawImageData@@@2@@std@@@std@@@std@@@2@ABV?$basic_string@DU?$char_traits@D@std@@V?$allocator@D@2@@2@@Z$1 00452a38 f   BuilderUI.obj
 0001:00051a51       __ehhandler$?find@?$_Tree@V?$_Tmap_traits@V?$basic_string@DU?$char_traits@D@std@@V?$allocator@D@2@@std@@V?$weak_ptr@VRawImageData@@@2@U?$less@V?$basic_string@DU?$char_traits@D@std@@V?$allocator@D@2@@std@@@2@V?$allocator@U?$pair@$$CBV?$basic_string@DU?$char_traits@D@std@@V?$allocator@D@2@@std@@V?$weak_ptr@VRawImageData@@@2@@std@@@2@$0A@@std@@@std@@QAE?AV?$_Tree_iterator@V?$_Tree_val@U?$_Tree_simple_types@U?$pair@$$CBV?$basic_string@DU?$char_traits@D@std@@V?$allocator@D@2@@std@@V?$weak_ptr@VRawImageData@@@2@@std@@@std@@@std@@@2@ABV?$basic_string@DU?$char_traits@D@std@@V?$allocator@D@2@@2@@Z 00452a51 f   BuilderUI.obj
 0001:00051a70       __unwindfunclet$?get@ImageManager@@SAPAV1@XZ$0 00452a70 f   BuilderUI.obj
 0001:00051a7f       __ehhandler$?get@ImageManager@@SAPAV1@XZ 00452a7f f   BuilderUI.obj
 0001:00051aa0       __unwindfunclet$?get@KSPMetaManager@@SAPAV1@XZ$0 00452aa0 f   BuilderUI.obj
 0001:00051aaf       __ehhandler$?get@KSPMetaManager@@SAPAV1@XZ 00452aaf f   BuilderUI.obj
 0001:00051ad0       __unwindfunclet$?getImagePtrbyURL@ImageManager@@QAE?AV?$shared_ptr@VRawImageData@@@std@@V?$basic_string@DU?$char_traits@D@std@@V?$allocator@D@2@@3@_N1@Z$0 00452ad0 f   BuilderUI.obj
 0001:00051ad8       __unwindfunclet$?getImagePtrbyURL@ImageManager@@QAE?AV?$shared_ptr@VRawImageData@@@std@@V?$basic_string@DU?$char_traits@D@std@@V?$allocator@D@2@@3@_N1@Z$1 00452ad8 f   BuilderUI.obj
 0001:00051ae0       __unwindfunclet$?getImagePtrbyURL@ImageManager@@QAE?AV?$shared_ptr@VRawImageData@@@std@@V?$basic_string@DU?$char_traits@D@std@@V?$allocator@D@2@@3@_N1@Z$2 00452ae0 f   BuilderUI.obj
 0001:00051aeb       __unwindfunclet$?getImagePtrbyURL@ImageManager@@QAE?AV?$shared_ptr@VRawImageData@@@std@@V?$basic_string@DU?$char_traits@D@std@@V?$allocator@D@2@@3@_N1@Z$3 00452aeb f   BuilderUI.obj
 0001:00051af3       __unwindfunclet$?getImagePtrbyURL@ImageManager@@QAE?AV?$shared_ptr@VRawImageData@@@std@@V?$basic_string@DU?$char_traits@D@std@@V?$allocator@D@2@@3@_N1@Z$9 00452af3 f   BuilderUI.obj
 0001:00051afb       __unwindfunclet$?getImagePtrbyURL@ImageManager@@QAE?AV?$shared_ptr@VRawImageData@@@std@@V?$basic_string@DU?$char_traits@D@std@@V?$allocator@D@2@@3@_N1@Z$10 00452afb f   BuilderUI.obj
 0001:00051b06       __unwindfunclet$?getImagePtrbyURL@ImageManager@@QAE?AV?$shared_ptr@VRawImageData@@@std@@V?$basic_string@DU?$char_traits@D@std@@V?$allocator@D@2@@3@_N1@Z$11 00452b06 f   BuilderUI.obj
 0001:00051b0e       __unwindfunclet$?getImagePtrbyURL@ImageManager@@QAE?AV?$shared_ptr@VRawImageData@@@std@@V?$basic_string@DU?$char_traits@D@std@@V?$allocator@D@2@@3@_N1@Z$13 00452b0e f   BuilderUI.obj
 0001:00051b16       __ehhandler$?getImagePtrbyURL@ImageManager@@QAE?AV?$shared_ptr@VRawImageData@@@std@@V?$basic_string@DU?$char_traits@D@std@@V?$allocator@D@2@@3@_N1@Z 00452b16 f   BuilderUI.obj
 0001:00051b40       __unwindfunclet$?getImagebyURL@ImageManager@@QAE?AVSimpleImage@@V?$basic_string@DU?$char_traits@D@std@@V?$allocator@D@2@@std@@_N1@Z$0 00452b40 f   BuilderUI.obj
 0001:00051b48       __ehhandler$?getImagebyURL@ImageManager@@QAE?AVSimpleImage@@V?$basic_string@DU?$char_traits@D@std@@V?$allocator@D@2@@std@@_N1@Z 00452b48 f   BuilderUI.obj
 0001:00051b70       __unwindfunclet$?getSpriteData@ImageManager@@QAE?AV?$shared_ptr@USpriteData@@@std@@V?$basic_string@DU?$char_traits@D@std@@V?$allocator@D@2@@3@@Z$0 00452b70 f   BuilderUI.obj
 0001:00051b78       __unwindfunclet$?getSpriteData@ImageManager@@QAE?AV?$shared_ptr@USpriteData@@@std@@V?$basic_string@DU?$char_traits@D@std@@V?$allocator@D@2@@3@@Z$1 00452b78 f   BuilderUI.obj
 0001:00051b83       __unwindfunclet$?getSpriteData@ImageManager@@QAE?AV?$shared_ptr@USpriteData@@@std@@V?$basic_string@DU?$char_traits@D@std@@V?$allocator@D@2@@3@@Z$2 00452b83 f   BuilderUI.obj
 0001:00051b8e       __unwindfunclet$?getSpriteData@ImageManager@@QAE?AV?$shared_ptr@USpriteData@@@std@@V?$basic_string@DU?$char_traits@D@std@@V?$allocator@D@2@@3@@Z$3 00452b8e f   BuilderUI.obj
 0001:00051b99       __unwindfunclet$?getSpriteData@ImageManager@@QAE?AV?$shared_ptr@USpriteData@@@std@@V?$basic_string@DU?$char_traits@D@std@@V?$allocator@D@2@@3@@Z$8 00452b99 f   BuilderUI.obj
 0001:00051ba4       __unwindfunclet$?getSpriteData@ImageManager@@QAE?AV?$shared_ptr@USpriteData@@@std@@V?$basic_string@DU?$char_traits@D@std@@V?$allocator@D@2@@3@@Z$9 00452ba4 f   BuilderUI.obj
 0001:00051baf       __unwindfunclet$?getSpriteData@ImageManager@@QAE?AV?$shared_ptr@USpriteData@@@std@@V?$basic_string@DU?$char_traits@D@std@@V?$allocator@D@2@@3@@Z$10 00452baf f   BuilderUI.obj
 0001:00051bba       __unwindfunclet$?getSpriteData@ImageManager@@QAE?AV?$shared_ptr@USpriteData@@@std@@V?$basic_string@DU?$char_traits@D@std@@V?$allocator@D@2@@3@@Z$11 00452bba f   BuilderUI.obj
 0001:00051bc5       __unwindfunclet$?getSpriteData@ImageManager@@QAE?AV?$shared_ptr@USpriteData@@@std@@V?$basic_string@DU?$char_traits@D@std@@V?$allocator@D@2@@3@@Z$12 00452bc5 f   BuilderUI.obj
 0001:00051bd0       __ehhandler$?getSpriteData@ImageManager@@QAE?AV?$shared_ptr@USpriteData@@@std@@V?$basic_string@DU?$char_traits@D@std@@V?$allocator@D@2@@3@@Z 00452bd0 f   BuilderUI.obj
 0001:00051c00       __unwindfunclet$?getSpriteFromImg@ImageManager@@QAE?AVSimpleImage@@V?$shared_ptr@USpriteData@@@std@@@Z$0 00452c00 f   BuilderUI.obj
 0001:00051c08       __unwindfunclet$?getSpriteFromImg@ImageManager@@QAE?AVSimpleImage@@V?$shared_ptr@USpriteData@@@std@@@Z$2 00452c08 f   BuilderUI.obj
 0001:00051c10       __unwindfunclet$?getSpriteFromImg@ImageManager@@QAE?AVSimpleImage@@V?$shared_ptr@USpriteData@@@std@@@Z$6 00452c10 f   BuilderUI.obj
 0001:00051c18       __unwindfunclet$?getSpriteFromImg@ImageManager@@QAE?AVSimpleImage@@V?$shared_ptr@USpriteData@@@std@@@Z$7 00452c18 f   BuilderUI.obj
 0001:00051c27       __unwindfunclet$?getSpriteFromImg@ImageManager@@QAE?AVSimpleImage@@V?$shared_ptr@USpriteData@@@std@@@Z$8 00452c27 f   BuilderUI.obj
 0001:00051c2f       __unwindfunclet$?getSpriteFromImg@ImageManager@@QAE?AVSimpleImage@@V?$shared_ptr@USpriteData@@@std@@@Z$9 00452c2f f   BuilderUI.obj
 0001:00051c37       __unwindfunclet$?getSpriteFromImg@ImageManager@@QAE?AVSimpleImage@@V?$shared_ptr@USpriteData@@@std@@@Z$10 00452c37 f   BuilderUI.obj
 0001:00051c3f       __ehhandler$?getSpriteFromImg@ImageManager@@QAE?AVSimpleImage@@V?$shared_ptr@USpriteData@@@std@@@Z 00452c3f f   BuilderUI.obj
 0001:00051c70       __unwindfunclet$?isControllablePart@PartCatalogue@@SA_NABV?$basic_string@DU?$char_traits@D@std@@V?$allocator@D@2@@std@@@Z$0 00452c70 f   BuilderUI.obj
 0001:00051c78       __ehhandler$?isControllablePart@PartCatalogue@@SA_NABV?$basic_string@DU?$char_traits@D@std@@V?$allocator@D@2@@std@@@Z 00452c78 f   BuilderUI.obj
 0001:00051ca0       __unwindfunclet$?loadAsNew@ImageManager@@QAE?AV?$shared_ptr@VRawImageData@@@std@@V?$basic_string@DU?$char_traits@D@std@@V?$allocator@D@2@@3@@Z$0 00452ca0 f   BuilderUI.obj
 0001:00051ca8       __unwindfunclet$?loadAsNew@ImageManager@@QAE?AV?$shared_ptr@VRawImageData@@@std@@V?$basic_string@DU?$char_traits@D@std@@V?$allocator@D@2@@3@@Z$1 00452ca8 f   BuilderUI.obj
 0001:00051cb7       __ehhandler$?loadAsNew@ImageManager@@QAE?AV?$shared_ptr@VRawImageData@@@std@@V?$basic_string@DU?$char_traits@D@std@@V?$allocator@D@2@@3@@Z 00452cb7 f   BuilderUI.obj
 0001:00051ce0       __unwindfunclet$?loadImage@ImageManager@@SA?AVSimpleImage@@V?$basic_string@DU?$char_traits@D@std@@V?$allocator@D@2@@std@@_N@Z$0 00452ce0 f   BuilderUI.obj
 0001:00051ce8       __unwindfunclet$?loadImage@ImageManager@@SA?AVSimpleImage@@V?$basic_string@DU?$char_traits@D@std@@V?$allocator@D@2@@std@@_N@Z$1 00452ce8 f   BuilderUI.obj
 0001:00051cf0       __ehhandler$?loadImage@ImageManager@@SA?AVSimpleImage@@V?$basic_string@DU?$char_traits@D@std@@V?$allocator@D@2@@std@@_N@Z 00452cf0 f   BuilderUI.obj
 0001:00051d10       __unwindfunclet$?loadImage@RawImageData@@QAE_NV?$basic_string@DU?$char_traits@D@std@@V?$allocator@D@2@@std@@HHHHH_N@Z$0 00452d10 f   BuilderUI.obj
 0001:00051d18       __ehhandler$?loadImage@RawImageData@@QAE_NV?$basic_string@DU?$char_traits@D@std@@V?$allocator@D@2@@std@@HHHHH_N@Z 00452d18 f   BuilderUI.obj
 0001:00051d40       __ehhandler$?lock@?$weak_ptr@USpriteData@@@std@@QBE?AV?$shared_ptr@USpriteData@@@2@XZ 00452d40 f   BuilderUI.obj
 0001:00051d60       __ehhandler$?lock@?$weak_ptr@VRawImageData@@@std@@QBE?AV?$shared_ptr@VRawImageData@@@2@XZ 00452d60 f   BuilderUI.obj
 0001:00051d80       __unwindfunclet$?removeDisplayableObject@DisplayableObjectContainer@@QAE_NPAVDisplayableObject@@@Z$2 00452d80 f   BuilderUI.obj
 0001:00051d88       __unwindfunclet$?removeDisplayableObject@DisplayableObjectContainer@@QAE_NPAVDisplayableObject@@@Z$3 00452d88 f   BuilderUI.obj
 0001:00051d90       __ehhandler$?removeDisplayableObject@DisplayableObjectContainer@@QAE_NPAVDisplayableObject@@@Z 00452d90 f   BuilderUI.obj
 0001:00051db0       __unwindfunclet$?virtMouseDown@PartCatalogue@@UAEXHHH@Z$0 00452db0 f   BuilderUI.obj
 0001:00051dbf       __unwindfunclet$?virtMouseDown@PartCatalogue@@UAEXHHH@Z$2 00452dbf f   BuilderUI.obj
 0001:00051dce       __ehhandler$?virtMouseDown@PartCatalogue@@UAEXHHH@Z 00452dce f   BuilderUI.obj
 0001:00051df0       __unwindfunclet$?virtMouseUp@PartCatalogue@@UAEXHHH@Z$0 00452df0 f   BuilderUI.obj
 0001:00051dff       __ehhandler$?virtMouseUp@PartCatalogue@@UAEXHHH@Z 00452dff f   BuilderUI.obj
 0001:00051e20       __unwindfunclet$?setupSpacecraftControls@GUIManager@@QAEXPAVBasicSpacecraft@@@Z$0 00452e20 f   GUIManager.obj
 0001:00051e2f       __ehhandler$?setupSpacecraftControls@GUIManager@@QAEXPAVBasicSpacecraft@@@Z 00452e2f f   GUIManager.obj
 0001:00051e4a       __unwindfunclet$??0GUIManager@@AAE@PAVKSP2D@@@Z$0 00452e4a f   GUIManager.obj
 0001:00051e55       __unwindfunclet$??0GUIManager@@AAE@PAVKSP2D@@@Z$1 00452e55 f   GUIManager.obj
 0001:00051e64       __ehhandler$??0GUIManager@@AAE@PAVKSP2D@@@Z 00452e64 f   GUIManager.obj
 0001:00051e80       __unwindfunclet$??0SpacecraftControls@@QAE@PAVKSP2D@@PAVBasicSpacecraft@@@Z$0 00452e80 f   SpacecraftControls.obj
 0001:00051e88       __unwindfunclet$??0SpacecraftControls@@QAE@PAVKSP2D@@PAVBasicSpacecraft@@@Z$1 00452e88 f   SpacecraftControls.obj
 0001:00051e93       __unwindfunclet$??0SpacecraftControls@@QAE@PAVKSP2D@@PAVBasicSpacecraft@@@Z$2 00452e93 f   SpacecraftControls.obj
 0001:00051ea5       __unwindfunclet$??0SpacecraftControls@@QAE@PAVKSP2D@@PAVBasicSpacecraft@@@Z$4 00452ea5 f   SpacecraftControls.obj
 0001:00051eb7       __unwindfunclet$??0SpacecraftControls@@QAE@PAVKSP2D@@PAVBasicSpacecraft@@@Z$6 00452eb7 f   SpacecraftControls.obj
 0001:00051ec9       __ehhandler$??0SpacecraftControls@@QAE@PAVKSP2D@@PAVBasicSpacecraft@@@Z 00452ec9 f   SpacecraftControls.obj
 0001:00051ee4       __unwindfunclet$?draw@SpacecraftControls@@QAEXH@Z$0 00452ee4 f   SpacecraftControls.obj
 0001:00051eec       __unwindfunclet$?draw@SpacecraftControls@@QAEXH@Z$1 00452eec f   SpacecraftControls.obj
 0001:00051ef4       __unwindfunclet$?draw@SpacecraftControls@@QAEXH@Z$2 00452ef4 f   SpacecraftControls.obj
 0001:00051eff       __unwindfunclet$?draw@SpacecraftControls@@QAEXH@Z$3 00452eff f   SpacecraftControls.obj
 0001:00051f0a       __unwindfunclet$?draw@SpacecraftControls@@QAEXH@Z$4 00452f0a f   SpacecraftControls.obj
 0001:00051f15       __unwindfunclet$?draw@SpacecraftControls@@QAEXH@Z$5 00452f15 f   SpacecraftControls.obj
 0001:00051f20       __unwindfunclet$?draw@SpacecraftControls@@QAEXH@Z$6 00452f20 f   SpacecraftControls.obj
 0001:00051f2b       __ehhandler$?draw@SpacecraftControls@@QAEXH@Z 00452f2b f   SpacecraftControls.obj
 0001:00051f60       __unwindfunclet$??$?0V<lambda_1947b0fcc41a160ce2363252446458a1>@@X@?$function@$$A6AXO@Z@std@@QAE@V<lambda_1947b0fcc41a160ce2363252446458a1>@@@Z$0 00452f60 f   SpacecraftControls.obj
 0001:00051f68       __ehhandler$??$?0V<lambda_1947b0fcc41a160ce2363252446458a1>@@X@?$function@$$A6AXO@Z@std@@QAE@V<lambda_1947b0fcc41a160ce2363252446458a1>@@@Z 00452f68 f   SpacecraftControls.obj
 0001:00051f90       __unwindfunclet$??$?0V<lambda_7ea10a720369ab96e6aeba8866acc821>@@X@?$function@$$A6AXO@Z@std@@QAE@V<lambda_7ea10a720369ab96e6aeba8866acc821>@@@Z$0 00452f90 f   SpacecraftControls.obj
 0001:00051f98       __ehhandler$??$?0V<lambda_7ea10a720369ab96e6aeba8866acc821>@@X@?$function@$$A6AXO@Z@std@@QAE@V<lambda_7ea10a720369ab96e6aeba8866acc821>@@@Z 00452f98 f   SpacecraftControls.obj
 0001:00051fc0       __unwindfunclet$??$?HDU?$char_traits@D@std@@V?$allocator@D@1@@std@@YA?AV?$basic_string@DU?$char_traits@D@std@@V?$allocator@D@2@@0@ABV10@QBD@Z$0 00452fc0 f   SpacecraftControls.obj
 0001:00051fc8       __ehhandler$??$?HDU?$char_traits@D@std@@V?$allocator@D@1@@std@@YA?AV?$basic_string@DU?$char_traits@D@std@@V?$allocator@D@2@@0@ABV10@QBD@Z 00452fc8 f   SpacecraftControls.obj
 0001:00051ff0       __unwindfunclet$??$_Floating_to_string@N@std@@YA?AV?$basic_string@DU?$char_traits@D@std@@V?$allocator@D@2@@0@PBDN@Z$0 00452ff0 f   SpacecraftControls.obj
 0001:00051ff8       __ehhandler$??$_Floating_to_string@N@std@@YA?AV?$basic_string@DU?$char_traits@D@std@@V?$allocator@D@2@@0@PBDN@Z 00452ff8 f   SpacecraftControls.obj
 0001:00052020       __unwindfunclet$??$_Floating_to_string@O@std@@YA?AV?$basic_string@DU?$char_traits@D@std@@V?$allocator@D@2@@0@PBDO@Z$0 00453020 f   SpacecraftControls.obj
 0001:00052028       __ehhandler$??$_Floating_to_string@O@std@@YA?AV?$basic_string@DU?$char_traits@D@std@@V?$allocator@D@2@@0@PBDO@Z 00453028 f   SpacecraftControls.obj
 0001:00052050       __unwindfunclet$??0?$GUISlider@N@@QAE@PAVBaseEngine@@HHHAANNNV?$function@$$A6AXN@Z@std@@I_N@Z$0 00453050 f   SpacecraftControls.obj
 0001:00052058       __unwindfunclet$??0?$GUISlider@N@@QAE@PAVBaseEngine@@HHHAANNNV?$function@$$A6AXN@Z@std@@I_N@Z$1 00453058 f   SpacecraftControls.obj
 0001:00052060       __unwindfunclet$??0?$GUISlider@N@@QAE@PAVBaseEngine@@HHHAANNNV?$function@$$A6AXN@Z@std@@I_N@Z$2 00453060 f   SpacecraftControls.obj
 0001:0005206e       __ehhandler$??0?$GUISlider@N@@QAE@PAVBaseEngine@@HHHAANNNV?$function@$$A6AXN@Z@std@@I_N@Z 0045306e f   SpacecraftControls.obj
 0001:00052090       __unwindfunclet$??0?$GUISlider@O@@QAE@PAVBaseEngine@@HHHAAOOOV?$function@$$A6AXO@Z@std@@I_N@Z$0 00453090 f   SpacecraftControls.obj
 0001:00052098       __unwindfunclet$??0?$GUISlider@O@@QAE@PAVBaseEngine@@HHHAAOOOV?$function@$$A6AXO@Z@std@@I_N@Z$1 00453098 f   SpacecraftControls.obj
 0001:000520a0       __unwindfunclet$??0?$GUISlider@O@@QAE@PAVBaseEngine@@HHHAAOOOV?$function@$$A6AXO@Z@std@@I_N@Z$2 004530a0 f   SpacecraftControls.obj
 0001:000520ae       __ehhandler$??0?$GUISlider@O@@QAE@PAVBaseEngine@@HHHAAOOOV?$function@$$A6AXO@Z@std@@I_N@Z 004530ae f   SpacecraftControls.obj
 0001:000520d0       __unwindfunclet$??0?$basic_string@DU?$char_traits@D@std@@V?$allocator@D@2@@std@@QAE@ID@Z$0 004530d0 f   SpacecraftControls.obj
 0001:000520d8       __ehhandler$??0?$basic_string@DU?$char_traits@D@std@@V?$allocator@D@2@@std@@QAE@ID@Z 004530d8 f   SpacecraftControls.obj
 0001:00052100       __unwindfunclet$??0?$function@$$A6AXN@Z@std@@QAE@ABV01@@Z$0 00453100 f   SpacecraftControls.obj
 0001:00052108       __ehhandler$??0?$function@$$A6AXN@Z@std@@QAE@ABV01@@Z 00453108 f   SpacecraftControls.obj
 0001:00052130       __unwindfunclet$??0?$function@$$A6AXO@Z@std@@QAE@ABV01@@Z$0 00453130 f   SpacecraftControls.obj
 0001:00052138       __ehhandler$??0?$function@$$A6AXO@Z@std@@QAE@ABV01@@Z 00453138 f   SpacecraftControls.obj
 0001:00052160       __unwindfunclet$??0DragableObject@@QAE@PAVBaseEngine@@HH_N1@Z$0 00453160 f   SpacecraftControls.obj
 0001:00052168       __ehhandler$??0DragableObject@@QAE@PAVBaseEngine@@HH_N1@Z 00453168 f   SpacecraftControls.obj
 0001:00052190       __ehhandler$?_Delete_this@?$_Func_impl_no_alloc@V<lambda_1947b0fcc41a160ce2363252446458a1>@@XO@std@@EAEX_N@Z 00453190 f   SpacecraftControls.obj
 0001:000521b0       __ehhandler$?_Delete_this@?$_Func_impl_no_alloc@V<lambda_7ea10a720369ab96e6aeba8866acc821>@@XO@std@@EAEX_N@Z 004531b0 f   SpacecraftControls.obj
 0001:000521d0       __unwindfunclet$?draw@?$GUISlider@N@@QAEXXZ$0 004531d0 f   SpacecraftControls.obj
 0001:000521d8       __ehhandler$?draw@?$GUISlider@N@@QAEXXZ 004531d8 f   SpacecraftControls.obj
 0001:00052200       __unwindfunclet$?draw@?$GUISlider@O@@QAEXXZ$0 00453200 f   SpacecraftControls.obj
 0001:00052208       __ehhandler$?draw@?$GUISlider@O@@QAEXXZ 00453208 f   SpacecraftControls.obj
 0001:00052230       __unwindfunclet$??0KSP2D@@QAE@XZ$0 00453230 f   KSP2D.obj
 0001:00052238       __unwindfunclet$??0KSP2D@@QAE@XZ$1 00453238 f   KSP2D.obj
 0001:00052246       __unwindfunclet$??0KSP2D@@QAE@XZ$2 00453246 f   KSP2D.obj
 0001:00052254       __unwindfunclet$??0KSP2D@@QAE@XZ$3 00453254 f   KSP2D.obj
 0001:00052262       __unwindfunclet$??0KSP2D@@QAE@XZ$4 00453262 f   KSP2D.obj
 0001:00052270       __unwindfunclet$??0KSP2D@@QAE@XZ$5 00453270 f   KSP2D.obj
 0001:0005227e       __unwindfunclet$??0KSP2D@@QAE@XZ$6 0045327e f   KSP2D.obj
 0001:0005228c       __ehhandler$??0KSP2D@@QAE@XZ 0045328c f   KSP2D.obj
 0001:000522a7       __unwindfunclet$?virtInitialiseObjects@KSP2D@@UAEHXZ$0 004532a7 f   KSP2D.obj
 0001:000522b9       __unwindfunclet$?virtInitialiseObjects@KSP2D@@UAEHXZ$1 004532b9 f   KSP2D.obj
 0001:000522cb       __unwindfunclet$?virtInitialiseObjects@KSP2D@@UAEHXZ$2 004532cb f   KSP2D.obj
 0001:000522dd       __unwindfunclet$?virtInitialiseObjects@KSP2D@@UAEHXZ$3 004532dd f   KSP2D.obj
 0001:000522ef       __unwindfunclet$?virtInitialiseObjects@KSP2D@@UAEHXZ$4 004532ef f   KSP2D.obj
 0001:00052301       __unwindfunclet$?virtInitialiseObjects@KSP2D@@UAEHXZ$5 00453301 f   KSP2D.obj
 0001:00052313       __unwindfunclet$?virtInitialiseObjects@KSP2D@@UAEHXZ$6 00453313 f   KSP2D.obj
 0001:00052325       __unwindfunclet$?virtInitialiseObjects@KSP2D@@UAEHXZ$7 00453325 f   KSP2D.obj
 0001:00052334       __unwindfunclet$?virtInitialiseObjects@KSP2D@@UAEHXZ$8 00453334 f   KSP2D.obj
 0001:0005233f       __unwindfunclet$?virtInitialiseObjects@KSP2D@@UAEHXZ$9 0045333f f   KSP2D.obj
 0001:0005234e       __unwindfunclet$?virtInitialiseObjects@KSP2D@@UAEHXZ$10 0045334e f   KSP2D.obj
 0001:00052359       __unwindfunclet$?virtInitialiseObjects@KSP2D@@UAEHXZ$11 00453359 f   KSP2D.obj
 0001:00052368       __unwindfunclet$?virtInitialiseObjects@KSP2D@@UAEHXZ$12 00453368 f   KSP2D.obj
 0001:00052373       __unwindfunclet$?virtInitialiseObjects@KSP2D@@UAEHXZ$13 00453373 f   KSP2D.obj
 0001:00052382       __unwindfunclet$?virtInitialiseObjects@KSP2D@@UAEHXZ$14 00453382 f   KSP2D.obj
 0001:0005238d       __ehhandler$?virtInitialiseObjects@KSP2D@@UAEHXZ 0045338d f   KSP2D.obj
 0001:000523ab       __unwindfunclet$?drawForegroundArrow@KSP2D@@QAEXHHVVec2D@@HI@Z$0 004533ab f   KSP2D.obj
 0001:000523b3       __ehhandler$?drawForegroundArrow@KSP2D@@QAEXHHVVec2D@@HI@Z 004533b3 f   KSP2D.obj
 0001:000523ce       __unwindfunclet$?addNewSpacecraft@KSP2D@@QAEXXZ$0 004533ce f   KSP2D.obj
 0001:000523d9       __unwindfunclet$?addNewSpacecraft@KSP2D@@QAEXXZ$1 004533d9 f   KSP2D.obj
 0001:000523eb       __unwindfunclet$?addNewSpacecraft@KSP2D@@QAEXXZ$2 004533eb f   KSP2D.obj
 0001:00052407       __unwindfunclet$?addNewSpacecraft@KSP2D@@QAEXXZ$4 00453407 f   KSP2D.obj
 0001:00052412       __ehhandler$?addNewSpacecraft@KSP2D@@QAEXXZ 00453412 f   KSP2D.obj
 0001:00052430       __ehhandler$??$_Emplace_reallocate@ABQAVBasicSpacecraft@@@?$vector@PAVBasicSpacecraft@@V?$allocator@PAVBasicSpacecraft@@@std@@@std@@QAEPAPAVBasicSpacecraft@@QAPAV2@ABQAV2@@Z 00453430 f   KSP2D.obj
 0001:00052450       __ehhandler$??$_Emplace_reallocate@PAVCelestialBody@@@?$vector@PAVCelestialBody@@V?$allocator@PAVCelestialBody@@@std@@@std@@QAEPAPAVCelestialBody@@QAPAV2@$$QAPAV2@@Z 00453450 f   KSP2D.obj
 0001:00052470       __ehhandler$??$_Emplace_reallocate@PAVPlanetObject@@@?$vector@PAVPlanetObject@@V?$allocator@PAVPlanetObject@@@std@@@std@@QAEPAPAVPlanetObject@@QAPAV2@$$QAPAV2@@Z 00453470 f   KSP2D.obj
 0001:00052490       __ehhandler$??$_Resize@V<lambda_2afd52570c452b238925c6f475a76105>@@@?$vector@PAVDisplayableObject@@V?$allocator@PAVDisplayableObject@@@std@@@std@@AAEXIV<lambda_2afd52570c452b238925c6f475a76105>@@@Z 00453490 f   KSP2D.obj
 0001:000524b0       __unwindfunclet$??$emplace@ABQAVDisplayableObject@@@?$vector@PAVDisplayableObject@@V?$allocator@PAVDisplayableObject@@@std@@@std@@QAE?AV?$_Vector_iterator@V?$_Vector_val@U?$_Simple_types@PAVDisplayableObject@@@std@@@std@@@1@V?$_Vector_const_iterator@V?$_Vector_val@U?$_Simple_types@PAVDisplayableObject@@@std@@@std@@@1@ABQAVDisplayableObject@@@Z$0 004534b0 f   KSP2D.obj
 0001:000524b8       __ehhandler$??$emplace@ABQAVDisplayableObject@@@?$vector@PAVDisplayableObject@@V?$allocator@PAVDisplayableObject@@@std@@@std@@QAE?AV?$_Vector_iterator@V?$_Vector_val@U?$_Simple_types@PAVDisplayableObject@@@std@@@std@@@1@V?$_Vector_const_iterator@V?$_Vector_val@U?$_Simple_types@PAVDisplayableObject@@@std@@@std@@@1@ABQAVDisplayableObject@@@Z 004534b8 f   KSP2D.obj
 0001:000524e0       __ehhandler$??0?$vector@PAVBasicSpacecraft@@V?$allocator@PAVBasicSpacecraft@@@std@@@std@@QAE@XZ 004534e0 f   KSP2D.obj
 0001:00052500       __ehhandler$??0?$vector@PAVCelestialBody@@V?$allocator@PAVCelestialBody@@@std@@@std@@QAE@XZ 00453500 f   KSP2D.obj
 0001:00052520       __ehhandler$??0?$vector@PAVPlanetObject@@V?$allocator@PAVPlanetObject@@@std@@@std@@QAE@XZ 00453520 f   KSP2D.obj
 0001:00052540       __unwindfunclet$??0Planet@@QAE@PAVBaseEngine@@PBD11OOOOPAVVec2D@@NONPAVCelestialBody@@@Z$0 00453540 f   KSP2D.obj
 0001:00052548       __unwindfunclet$??0Planet@@QAE@PAVBaseEngine@@PBD11OOOOPAVVec2D@@NONPAVCelestialBody@@@Z$1 00453548 f   KSP2D.obj
 0001:0005255a       __unwindfunclet$??0Planet@@QAE@PAVBaseEngine@@PBD11OOOOPAVVec2D@@NONPAVCelestialBody@@@Z$2 0045355a f   KSP2D.obj
 0001:00052573       __unwindfunclet$??0Planet@@QAE@PAVBaseEngine@@PBD11OOOOPAVVec2D@@NONPAVCelestialBody@@@Z$3 00453573 f   KSP2D.obj
 0001:0005258c       __ehhandler$??0Planet@@QAE@PAVBaseEngine@@PBD11OOOOPAVVec2D@@NONPAVCelestialBody@@@Z 0045358c f   KSP2D.obj
 0001:000525b0       __unwindfunclet$??0Sun@@QAE@PAVBaseEngine@@PBD11OOOOPAVVec2D@@@Z$0 004535b0 f   KSP2D.obj
 0001:000525b8       __unwindfunclet$??0Sun@@QAE@PAVBaseEngine@@PBD11OOOOPAVVec2D@@@Z$1 004535b8 f   KSP2D.obj
 0001:000525ca       __unwindfunclet$??0Sun@@QAE@PAVBaseEngine@@PBD11OOOOPAVVec2D@@@Z$2 004535ca f   KSP2D.obj
 0001:000525e3       __unwindfunclet$??0Sun@@QAE@PAVBaseEngine@@PBD11OOOOPAVVec2D@@@Z$3 004535e3 f   KSP2D.obj
 0001:000525fc       __ehhandler$??0Sun@@QAE@PAVBaseEngine@@PBD11OOOOPAVVec2D@@@Z 004535fc f   KSP2D.obj
 0001:00052620       __ehhandler$??1?$_Vector_alloc@U?$_Vec_base_types@PAVBasicSpacecraft@@V?$allocator@PAVBasicSpacecraft@@@std@@@std@@@std@@QAE@XZ 00453620 f   KSP2D.obj
 0001:00052640       __ehhandler$??1?$_Vector_alloc@U?$_Vec_base_types@PAVCelestialBody@@V?$allocator@PAVCelestialBody@@@std@@@std@@@std@@QAE@XZ 00453640 f   KSP2D.obj
 0001:00052660       __ehhandler$??1?$_Vector_alloc@U?$_Vec_base_types@PAVPlanetObject@@V?$allocator@PAVPlanetObject@@@std@@@std@@@std@@QAE@XZ 00453660 f   KSP2D.obj
 0001:00052680       __ehhandler$??1?$vector@PAVBasicSpacecraft@@V?$allocator@PAVBasicSpacecraft@@@std@@@std@@QAE@XZ 00453680 f   KSP2D.obj
 0001:000526a0       __ehhandler$??1?$vector@PAVCelestialBody@@V?$allocator@PAVCelestialBody@@@std@@@std@@QAE@XZ 004536a0 f   KSP2D.obj
 0001:000526c0       __ehhandler$??1?$vector@PAVPlanetObject@@V?$allocator@PAVPlanetObject@@@std@@@std@@QAE@XZ 004536c0 f   KSP2D.obj
 0001:000526e0       __ehhandler$?_Make_iterator@?$_Vector_alloc@U?$_Vec_base_types@PAVDisplayableObject@@V?$allocator@PAVDisplayableObject@@@std@@@std@@@std@@QAE?AV?$_Vector_iterator@V?$_Vector_val@U?$_Simple_types@PAVDisplayableObject@@@std@@@std@@@2@QAPAVDisplayableObject@@@Z 004536e0 f   KSP2D.obj
 0001:00052700       __unwindfunclet$?_Orphan_range@?$vector@PAVBasicSpacecraft@@V?$allocator@PAVBasicSpacecraft@@@std@@@std@@ABEXPAPAVBasicSpacecraft@@0@Z$0 00453700 f   KSP2D.obj
 0001:00052709       __ehhandler$?_Orphan_range@?$vector@PAVBasicSpacecraft@@V?$allocator@PAVBasicSpacecraft@@@std@@@std@@ABEXPAPAVBasicSpacecraft@@0@Z 00453709 f   KSP2D.obj
 0001:00052730       __unwindfunclet$?_Orphan_range@?$vector@PAVCelestialBody@@V?$allocator@PAVCelestialBody@@@std@@@std@@ABEXPAPAVCelestialBody@@0@Z$0 00453730 f   KSP2D.obj
 0001:00052739       __ehhandler$?_Orphan_range@?$vector@PAVCelestialBody@@V?$allocator@PAVCelestialBody@@@std@@@std@@ABEXPAPAVCelestialBody@@0@Z 00453739 f   KSP2D.obj
 0001:00052760       __unwindfunclet$?_Orphan_range@?$vector@PAVPlanetObject@@V?$allocator@PAVPlanetObject@@@std@@@std@@ABEXPAPAVPlanetObject@@0@Z$0 00453760 f   KSP2D.obj
 0001:00052769       __ehhandler$?_Orphan_range@?$vector@PAVPlanetObject@@V?$allocator@PAVPlanetObject@@@std@@@std@@ABEXPAPAVPlanetObject@@0@Z 00453769 f   KSP2D.obj
 0001:00052790       __unwindfunclet$?applyGravity@PhysBody@@QAEXPAV1@@Z$0 00453790 f   KSP2D.obj
 0001:00052798       __unwindfunclet$?applyGravity@PhysBody@@QAEXPAV1@@Z$1 00453798 f   KSP2D.obj
 0001:000527a0       __ehhandler$?applyGravity@PhysBody@@QAEXPAV1@@Z 004537a0 f   KSP2D.obj
 0001:000527c0       __unwindfunclet$?init@GUIManager@@SAXPAVKSP2D@@@Z$0 004537c0 f   KSP2D.obj
 0001:000527cf       __ehhandler$?init@GUIManager@@SAXPAVKSP2D@@@Z 004537cf f   KSP2D.obj
 0001:000527f0       __unwindfunclet$?init@SimpleTrig@@SAXXZ$0 004537f0 f   KSP2D.obj
 0001:00052802       __ehhandler$?init@SimpleTrig@@SAXXZ 00453802 f   KSP2D.obj
 0001:00052820       __unwindfunclet$?insert@?$vector@PAVDisplayableObject@@V?$allocator@PAVDisplayableObject@@@std@@@std@@QAE?AV?$_Vector_iterator@V?$_Vector_val@U?$_Simple_types@PAVDisplayableObject@@@std@@@std@@@2@V?$_Vector_const_iterator@V?$_Vector_val@U?$_Simple_types@PAVDisplayableObject@@@std@@@std@@@2@ABQAVDisplayableObject@@@Z$0 00453820 f   KSP2D.obj
 0001:00052828       __ehhandler$?insert@?$vector@PAVDisplayableObject@@V?$allocator@PAVDisplayableObject@@@std@@@std@@QAE?AV?$_Vector_iterator@V?$_Vector_val@U?$_Simple_types@PAVDisplayableObject@@@std@@@std@@@2@V?$_Vector_const_iterator@V?$_Vector_val@U?$_Simple_types@PAVDisplayableObject@@@std@@@std@@@2@ABQAVDisplayableObject@@@Z 00453828 f   KSP2D.obj
 0001:00052850       __unwindfunclet$?doProgram@@YAHHQAPAD@Z$0 00453850 f   main.obj
 0001:0005285b       __ehhandler$?doProgram@@YAHHQAPAD@Z 0045385b f   main.obj
 0001:00052890       __unwindfunclet$??0CelestialBody@@QAE@PAVBaseEngine@@OOPBD11OPAVVec2D@@@Z$0 00453890 f   CelestialBody.obj
 0001:00052898       __unwindfunclet$??0CelestialBody@@QAE@PAVBaseEngine@@OOPBD11OPAVVec2D@@@Z$1 00453898 f   CelestialBody.obj
 0001:000528a3       __unwindfunclet$??0CelestialBody@@QAE@PAVBaseEngine@@OOPBD11OPAVVec2D@@@Z$2 004538a3 f   CelestialBody.obj
 0001:000528b1       __unwindfunclet$??0CelestialBody@@QAE@PAVBaseEngine@@OOPBD11OPAVVec2D@@@Z$3 004538b1 f   CelestialBody.obj
 0001:000528bf       __unwindfunclet$??0CelestialBody@@QAE@PAVBaseEngine@@OOPBD11OPAVVec2D@@@Z$4 004538bf f   CelestialBody.obj
 0001:000528cd       __unwindfunclet$??0CelestialBody@@QAE@PAVBaseEngine@@OOPBD11OPAVVec2D@@@Z$5 004538cd f   CelestialBody.obj
 0001:000528d5       __unwindfunclet$??0CelestialBody@@QAE@PAVBaseEngine@@OOPBD11OPAVVec2D@@@Z$7 004538d5 f   CelestialBody.obj
 0001:000528dd       __unwindfunclet$??0CelestialBody@@QAE@PAVBaseEngine@@OOPBD11OPAVVec2D@@@Z$9 004538dd f   CelestialBody.obj
 0001:000528ec       __unwindfunclet$??0CelestialBody@@QAE@PAVBaseEngine@@OOPBD11OPAVVec2D@@@Z$10 004538ec f   CelestialBody.obj
 0001:00052905       __ehhandler$??0CelestialBody@@QAE@PAVBaseEngine@@OOPBD11OPAVVec2D@@@Z 00453905 f   CelestialBody.obj
 0001:00052920       __unwindfunclet$?isOnScreen@CelestialBody@@SA_NAAVVec2D@@O@Z$0 00453920 f   CelestialBody.obj
 0001:00052928       __ehhandler$?isOnScreen@CelestialBody@@SA_NAAVVec2D@@O@Z 00453928 f   CelestialBody.obj
 0001:00052943       __unwindfunclet$?getPositionOnSurface@CelestialBody@@QAE?AVVec2D@@NO@Z$0 00453943 f   CelestialBody.obj
 0001:0005294b       __ehhandler$?getPositionOnSurface@CelestialBody@@QAE?AVVec2D@@NO@Z 0045394b f   CelestialBody.obj
 0001:00052970       __unwindfunclet$??0PhysObject@@QAE@PAVVec2D@@@Z$0 00453970 f   PhysObject.obj
 0001:0005297b       __ehhandler$??0PhysObject@@QAE@PAVVec2D@@@Z 0045397b f   PhysObject.obj
 0001:00052996       __unwindfunclet$??0PhysBody@@QAE@PAVPhysObject@@OABVVec2D@@1@Z$0 00453996 f   PhysObject.obj
 0001:000529a1       __unwindfunclet$??0PhysBody@@QAE@PAVPhysObject@@OABVVec2D@@1@Z$1 004539a1 f   PhysObject.obj
 0001:000529af       __unwindfunclet$??0PhysBody@@QAE@PAVPhysObject@@OABVVec2D@@1@Z$2 004539af f   PhysObject.obj
 0001:000529bd       __ehhandler$??0PhysBody@@QAE@PAVPhysObject@@OABVVec2D@@1@Z 004539bd f   PhysObject.obj
 0001:000529d8       __unwindfunclet$?resolveCollision@PhysBody@@SAXABUCollisionManifold@@@Z$0 004539d8 f   PhysObject.obj
 0001:000529e0       __unwindfunclet$?resolveCollision@PhysBody@@SAXABUCollisionManifold@@@Z$1 004539e0 f   PhysObject.obj
 0001:000529e8       __unwindfunclet$?resolveCollision@PhysBody@@SAXABUCollisionManifold@@@Z$2 004539e8 f   PhysObject.obj
 0001:000529f0       __unwindfunclet$?resolveCollision@PhysBody@@SAXABUCollisionManifold@@@Z$3 004539f0 f   PhysObject.obj
 0001:000529fb       __unwindfunclet$?resolveCollision@PhysBody@@SAXABUCollisionManifold@@@Z$4 004539fb f   PhysObject.obj
 0001:00052a06       __unwindfunclet$?resolveCollision@PhysBody@@SAXABUCollisionManifold@@@Z$5 00453a06 f   PhysObject.obj
 0001:00052a11       __unwindfunclet$?resolveCollision@PhysBody@@SAXABUCollisionManifold@@@Z$6 00453a11 f   PhysObject.obj
 0001:00052a1c       __unwindfunclet$?resolveCollision@PhysBody@@SAXABUCollisionManifold@@@Z$8 00453a1c f   PhysObject.obj
 0001:00052a27       __ehhandler$?resolveCollision@PhysBody@@SAXABUCollisionManifold@@@Z 00453a27 f   PhysObject.obj
 0001:00052a45       __unwindfunclet$?OBBCircleCollision@PhysBody@@SA_NAAUCollisionManifold@@@Z$0 00453a45 f   PhysObject.obj
 0001:00052a4d       __unwindfunclet$?OBBCircleCollision@PhysBody@@SA_NAAUCollisionManifold@@@Z$1 00453a4d f   PhysObject.obj
 0001:00052a55       __unwindfunclet$?OBBCircleCollision@PhysBody@@SA_NAAUCollisionManifold@@@Z$2 00453a55 f   PhysObject.obj
 0001:00052a60       __unwindfunclet$?OBBCircleCollision@PhysBody@@SA_NAAUCollisionManifold@@@Z$3 00453a60 f   PhysObject.obj
 0001:00052a6b       __unwindfunclet$?OBBCircleCollision@PhysBody@@SA_NAAUCollisionManifold@@@Z$4 00453a6b f   PhysObject.obj
 0001:00052a76       __unwindfunclet$?OBBCircleCollision@PhysBody@@SA_NAAUCollisionManifold@@@Z$5 00453a76 f   PhysObject.obj
 0001:00052a81       __unwindfunclet$?OBBCircleCollision@PhysBody@@SA_NAAUCollisionManifold@@@Z$6 00453a81 f   PhysObject.obj
 0001:00052a8c       __unwindfunclet$?OBBCircleCollision@PhysBody@@SA_NAAUCollisionManifold@@@Z$7 00453a8c f   PhysObject.obj
 0001:00052a97       __unwindfunclet$?OBBCircleCollision@PhysBody@@SA_NAAUCollisionManifold@@@Z$8 00453a97 f   PhysObject.obj
 0001:00052aa2       __unwindfunclet$?OBBCircleCollision@PhysBody@@SA_NAAUCollisionManifold@@@Z$9 00453aa2 f   PhysObject.obj
 0001:00052aad       __unwindfunclet$?OBBCircleCollision@PhysBody@@SA_NAAUCollisionManifold@@@Z$10 00453aad f   PhysObject.obj
 0001:00052ab8       __unwindfunclet$?OBBCircleCollision@PhysBody@@SA_NAAUCollisionManifold@@@Z$11 00453ab8 f   PhysObject.obj
 0001:00052ac3       __ehhandler$?OBBCircleCollision@PhysBody@@SA_NAAUCollisionManifold@@@Z 00453ac3 f   PhysObject.obj
 0001:00052ae1       __unwindfunclet$??0RailedPhysBody@@QAE@PAVPhysObject@@OABVVec2D@@1PAVPhysBody@@NON@Z$0 00453ae1 f   PhysObject.obj
 0001:00052ae9       __unwindfunclet$??0RailedPhysBody@@QAE@PAVPhysObject@@OABVVec2D@@1PAVPhysBody@@NON@Z$1 00453ae9 f   PhysObject.obj
 0001:00052af7       __unwindfunclet$??0RailedPhysBody@@QAE@PAVPhysObject@@OABVVec2D@@1PAVPhysBody@@NON@Z$2 00453af7 f   PhysObject.obj
 0001:00052b05       __ehhandler$??0RailedPhysBody@@QAE@PAVPhysObject@@OABVVec2D@@1PAVPhysBody@@NON@Z 00453b05 f   PhysObject.obj
 0001:00052b20       __unwindfunclet$?updatePosition@RailedPhysBody@@UAEXO@Z$1 00453b20 f   PhysObject.obj
 0001:00052b28       __ehhandler$?updatePosition@RailedPhysBody@@UAEXO@Z 00453b28 f   PhysObject.obj
 0001:00052b50       __ehhandler$??$_Emplace_reallocate@ABVVec2D@@@?$vector@VVec2D@@V?$allocator@VVec2D@@@std@@@std@@QAEPAVVec2D@@QAV2@ABV2@@Z 00453b50 f   PhysObject.obj
 0001:00052b70       __ehhandler$??$_Emplace_reallocate@VVec2D@@@?$vector@VVec2D@@V?$allocator@VVec2D@@@std@@@std@@QAEPAVVec2D@@QAV2@$$QAV2@@Z 00453b70 f   PhysObject.obj
 0001:00052b90       __unwindfunclet$??$_Uninitialized_move_al_unchecked@PAVVec2D@@PAV1@V?$allocator@VVec2D@@@std@@@std@@YAPAVVec2D@@PAV1@QAV1@1AAV?$allocator@VVec2D@@@0@U_General_ptr_iterator_tag@0@U_Unused_parameter@0@@Z$0 00453b90 f   PhysObject.obj
 0001:00052b98       __ehhandler$??$_Uninitialized_move_al_unchecked@PAVVec2D@@PAV1@V?$allocator@VVec2D@@@std@@@std@@YAPAVVec2D@@PAV1@QAV1@1AAV?$allocator@VVec2D@@@0@U_General_ptr_iterator_tag@0@U_Unused_parameter@0@@Z 00453b98 f   PhysObject.obj
 0001:00052bc0       __ehhandler$??0?$vector@VVec2D@@V?$allocator@VVec2D@@@std@@@std@@QAE@XZ 00453bc0 f   PhysObject.obj
 0001:00052be0       __ehhandler$??1?$_Uninitialized_backout_al@PAVVec2D@@V?$allocator@VVec2D@@@std@@@std@@QAE@XZ 00453be0 f   PhysObject.obj
 0001:00052c00       __ehhandler$??1?$_Vector_alloc@U?$_Vec_base_types@VVec2D@@V?$allocator@VVec2D@@@std@@@std@@@std@@QAE@XZ 00453c00 f   PhysObject.obj
 0001:00052c20       __ehhandler$??1?$vector@VVec2D@@V?$allocator@VVec2D@@@std@@@std@@QAE@XZ 00453c20 f   PhysObject.obj
 0001:00052c40       __unwindfunclet$?_Orphan_range@?$vector@VVec2D@@V?$allocator@VVec2D@@@std@@@std@@ABEXPAVVec2D@@0@Z$0 00453c40 f   PhysObject.obj
 0001:00052c49       __ehhandler$?_Orphan_range@?$vector@VVec2D@@V?$allocator@VVec2D@@@std@@@std@@ABEXPAVVec2D@@0@Z 00453c49 f   PhysObject.obj
 0001:00052c70       __unwindfunclet$?applyImpulse@PhysBody@@QAEXO@Z$0 00453c70 f   PhysObject.obj
 0001:00052c78       __unwindfunclet$?applyImpulse@PhysBody@@QAEXO@Z$1 00453c78 f   PhysObject.obj
 0001:00052c80       __ehhandler$?applyImpulse@PhysBody@@QAEXO@Z 00453c80 f   PhysObject.obj
 0001:00052ca0       __unwindfunclet$?projectCircle@Projection@@SA?AV1@ABVVec2D@@0O@Z$0 00453ca0 f   PhysObject.obj
 0001:00052ca8       __unwindfunclet$?projectCircle@Projection@@SA?AV1@ABVVec2D@@0O@Z$1 00453ca8 f   PhysObject.obj
 0001:00052cb0       __unwindfunclet$?projectCircle@Projection@@SA?AV1@ABVVec2D@@0O@Z$2 00453cb0 f   PhysObject.obj
 0001:00052cbb       __unwindfunclet$?projectCircle@Projection@@SA?AV1@ABVVec2D@@0O@Z$3 00453cbb f   PhysObject.obj
 0001:00052cc3       __unwindfunclet$?projectCircle@Projection@@SA?AV1@ABVVec2D@@0O@Z$4 00453cc3 f   PhysObject.obj
 0001:00052ccb       __ehhandler$?projectCircle@Projection@@SA?AV1@ABVVec2D@@0O@Z 00453ccb f   PhysObject.obj
 0001:00052cf0       __unwindfunclet$?updatePosition@PhysBody@@UAEXO@Z$0 00453cf0 f   PhysObject.obj
 0001:00052cf8       __ehhandler$?updatePosition@PhysBody@@UAEXO@Z 00453cf8 f   PhysObject.obj
 0001:00052d20       __unwindfunclet$??0PlanetObject@@QAE@PAVBaseEngine@@PAVCelestialBody@@NV?$basic_string@DU?$char_traits@D@std@@V?$allocator@D@2@@std@@OOO@Z$0 00453d20 f   PlanetObject.obj
 0001:00052d28       __unwindfunclet$??0PlanetObject@@QAE@PAVBaseEngine@@PAVCelestialBody@@NV?$basic_string@DU?$char_traits@D@std@@V?$allocator@D@2@@std@@OOO@Z$1 00453d28 f   PlanetObject.obj
 0001:00052d30       __unwindfunclet$??0PlanetObject@@QAE@PAVBaseEngine@@PAVCelestialBody@@NV?$basic_string@DU?$char_traits@D@std@@V?$allocator@D@2@@std@@OOO@Z$2 00453d30 f   PlanetObject.obj
 0001:00052d3b       __unwindfunclet$??0PlanetObject@@QAE@PAVBaseEngine@@PAVCelestialBody@@NV?$basic_string@DU?$char_traits@D@std@@V?$allocator@D@2@@std@@OOO@Z$3 00453d3b f   PlanetObject.obj
 0001:00052d43       __unwindfunclet$??0PlanetObject@@QAE@PAVBaseEngine@@PAVCelestialBody@@NV?$basic_string@DU?$char_traits@D@std@@V?$allocator@D@2@@std@@OOO@Z$4 00453d43 f   PlanetObject.obj
 0001:00052d4e       __unwindfunclet$??0PlanetObject@@QAE@PAVBaseEngine@@PAVCelestialBody@@NV?$basic_string@DU?$char_traits@D@std@@V?$allocator@D@2@@std@@OOO@Z$5 00453d4e f   PlanetObject.obj
 0001:00052d56       __ehhandler$??0PlanetObject@@QAE@PAVBaseEngine@@PAVCelestialBody@@NV?$basic_string@DU?$char_traits@D@std@@V?$allocator@D@2@@std@@OOO@Z 00453d56 f   PlanetObject.obj
 0001:00052d80       __unwindfunclet$?getPartData@KSPMetaManager@@QAE?AV?$shared_ptr@UPartData@@@std@@ABV?$basic_string@DU?$char_traits@D@std@@V?$allocator@D@2@@3@_N@Z$0 00453d80 f   KSPMetaManager.obj
 0001:00052d8b       __unwindfunclet$?getPartData@KSPMetaManager@@QAE?AV?$shared_ptr@UPartData@@@std@@ABV?$basic_string@DU?$char_traits@D@std@@V?$allocator@D@2@@3@_N@Z$1 00453d8b f   KSPMetaManager.obj
 0001:00052d96       __unwindfunclet$?getPartData@KSPMetaManager@@QAE?AV?$shared_ptr@UPartData@@@std@@ABV?$basic_string@DU?$char_traits@D@std@@V?$allocator@D@2@@3@_N@Z$3 00453d96 f   KSPMetaManager.obj
 0001:00052da1       __unwindfunclet$?getPartData@KSPMetaManager@@QAE?AV?$shared_ptr@UPartData@@@std@@ABV?$basic_string@DU?$char_traits@D@std@@V?$allocator@D@2@@3@_N@Z$4 00453da1 f   KSPMetaManager.obj
 0001:00052dac       __unwindfunclet$?getPartData@KSPMetaManager@@QAE?AV?$shared_ptr@UPartData@@@std@@ABV?$basic_string@DU?$char_traits@D@std@@V?$allocator@D@2@@3@_N@Z$5 00453dac f   KSPMetaManager.obj
 0001:00052db7       __unwindfunclet$?getPartData@KSPMetaManager@@QAE?AV?$shared_ptr@UPartData@@@std@@ABV?$basic_string@DU?$char_traits@D@std@@V?$allocator@D@2@@3@_N@Z$6 00453db7 f   KSPMetaManager.obj
 0001:00052dc2       __unwindfunclet$?getPartData@KSPMetaManager@@QAE?AV?$shared_ptr@UPartData@@@std@@ABV?$basic_string@DU?$char_traits@D@std@@V?$allocator@D@2@@3@_N@Z$7 00453dc2 f   KSPMetaManager.obj
 0001:00052dcd       __unwindfunclet$?getPartData@KSPMetaManager@@QAE?AV?$shared_ptr@UPartData@@@std@@ABV?$basic_string@DU?$char_traits@D@std@@V?$allocator@D@2@@3@_N@Z$8 00453dcd f   KSPMetaManager.obj
 0001:00052dd8       __unwindfunclet$?getPartData@KSPMetaManager@@QAE?AV?$shared_ptr@UPartData@@@std@@ABV?$basic_string@DU?$char_traits@D@std@@V?$allocator@D@2@@3@_N@Z$9 00453dd8 f   KSPMetaManager.obj
 0001:00052de3       __ehhandler$?getPartData@KSPMetaManager@@QAE?AV?$shared_ptr@UPartData@@@std@@ABV?$basic_string@DU?$char_traits@D@std@@V?$allocator@D@2@@3@_N@Z 00453de3 f   KSPMetaManager.obj
 0001:00052e0b       __unwindfunclet$?getPartDataCopy@KSPMetaManager@@QAEPAUPartData@@ABV?$basic_string@DU?$char_traits@D@std@@V?$allocator@D@2@@std@@_N@Z$0 00453e0b f   KSPMetaManager.obj
 0001:00052e13       __ehhandler$?getPartDataCopy@KSPMetaManager@@QAEPAUPartData@@ABV?$basic_string@DU?$char_traits@D@std@@V?$allocator@D@2@@std@@_N@Z 00453e13 f   KSPMetaManager.obj
 0001:00052e2e       __unwindfunclet$?newGadget@KSPMetaManager@@SAPAVGadget@@ABV?$basic_string@DU?$char_traits@D@std@@V?$allocator@D@2@@std@@ABH@Z$0 00453e2e f   KSPMetaManager.obj
 0001:00052e3d       __unwindfunclet$?newGadget@KSPMetaManager@@SAPAVGadget@@ABV?$basic_string@DU?$char_traits@D@std@@V?$allocator@D@2@@std@@ABH@Z$1 00453e3d f   KSPMetaManager.obj
 0001:00052e4c       __unwindfunclet$?newGadget@KSPMetaManager@@SAPAVGadget@@ABV?$basic_string@DU?$char_traits@D@std@@V?$allocator@D@2@@std@@ABH@Z$2 00453e4c f   KSPMetaManager.obj
 0001:00052e5b       __unwindfunclet$?newGadget@KSPMetaManager@@SAPAVGadget@@ABV?$basic_string@DU?$char_traits@D@std@@V?$allocator@D@2@@std@@ABH@Z$3 00453e5b f   KSPMetaManager.obj
 0001:00052e6a       __unwindfunclet$?newGadget@KSPMetaManager@@SAPAVGadget@@ABV?$basic_string@DU?$char_traits@D@std@@V?$allocator@D@2@@std@@ABH@Z$4 00453e6a f   KSPMetaManager.obj
 0001:00052e79       __unwindfunclet$?newGadget@KSPMetaManager@@SAPAVGadget@@ABV?$basic_string@DU?$char_traits@D@std@@V?$allocator@D@2@@std@@ABH@Z$5 00453e79 f   KSPMetaManager.obj
 0001:00052e88       __unwindfunclet$?newGadget@KSPMetaManager@@SAPAVGadget@@ABV?$basic_string@DU?$char_traits@D@std@@V?$allocator@D@2@@std@@ABH@Z$6 00453e88 f   KSPMetaManager.obj
 0001:00052e97       __unwindfunclet$?newGadget@KSPMetaManager@@SAPAVGadget@@ABV?$basic_string@DU?$char_traits@D@std@@V?$allocator@D@2@@std@@ABH@Z$7 00453e97 f   KSPMetaManager.obj
 0001:00052ea6       __unwindfunclet$?newGadget@KSPMetaManager@@SAPAVGadget@@ABV?$basic_string@DU?$char_traits@D@std@@V?$allocator@D@2@@std@@ABH@Z$8 00453ea6 f   KSPMetaManager.obj
 0001:00052eb5       __ehhandler$?newGadget@KSPMetaManager@@SAPAVGadget@@ABV?$basic_string@DU?$char_traits@D@std@@V?$allocator@D@2@@std@@ABH@Z 00453eb5 f   KSPMetaManager.obj
 0001:00052ed0       __ehhandler$??$_Buynode@U?$pair@V?$basic_string@DU?$char_traits@D@std@@V?$allocator@D@2@@std@@V?$shared_ptr@UPartData@@@2@@std@@@?$_Tree_comp_alloc@V?$_Tmap_traits@V?$basic_string@DU?$char_traits@D@std@@V?$allocator@D@2@@std@@V?$shared_ptr@UPartData@@@2@U?$less@V?$basic_string@DU?$char_traits@D@std@@V?$allocator@D@2@@std@@@2@V?$allocator@U?$pair@$$CBV?$basic_string@DU?$char_traits@D@std@@V?$allocator@D@2@@std@@V?$shared_ptr@UPartData@@@2@@std@@@2@$0A@@std@@@std@@QAEPAU?$_Tree_node@U?$pair@$$CBV?$basic_string@DU?$char_traits@D@std@@V?$allocator@D@2@@std@@V?$shared_ptr@UPartData@@@2@@std@@PAX@1@$$QAU?$pair@V?$basic_string@DU?$char_traits@D@std@@V?$allocator@D@2@@std@@V?$shared_ptr@UPartData@@@2@@1@@Z 00453ed0 f   KSPMetaManager.obj
 0001:00052ef0       __ehhandler$??$_Emplace_reallocate@PAVGadget@@@?$vector@PAVGadget@@V?$allocator@PAVGadget@@@std@@@std@@QAEPAPAVGadget@@QAPAV2@$$QAPAV2@@Z 00453ef0 f   KSPMetaManager.obj
 0001:00052f10       __unwindfunclet$??$_Insert_nohint@AAU?$pair@$$CBV?$basic_string@DU?$char_traits@D@std@@V?$allocator@D@2@@std@@V?$shared_ptr@UPartData@@@2@@std@@PAU?$_Tree_node@U?$pair@$$CBV?$basic_string@DU?$char_traits@D@std@@V?$allocator@D@2@@std@@V?$shared_ptr@UPartData@@@2@@std@@PAX@2@@?$_Tree@V?$_Tmap_traits@V?$basic_string@DU?$char_traits@D@std@@V?$allocator@D@2@@std@@V?$shared_ptr@UPartData@@@2@U?$less@V?$basic_string@DU?$char_traits@D@std@@V?$allocator@D@2@@std@@@2@V?$allocator@U?$pair@$$CBV?$basic_string@DU?$char_traits@D@std@@V?$allocator@D@2@@std@@V?$shared_ptr@UPartData@@@2@@std@@@2@$0A@@std@@@std@@IAE?AU?$pair@V?$_Tree_iterator@V?$_Tree_val@U?$_Tree_simple_types@U?$pair@$$CBV?$basic_string@DU?$char_traits@D@std@@V?$allocator@D@2@@std@@V?$shared_ptr@UPartData@@@2@@std@@@std@@@std@@@std@@_N@1@_NAAU?$pair@$$CBV?$basic_string@DU?$char_traits@D@std@@V?$allocator@D@2@@std@@V?$shared_ptr@UPartData@@@2@@1@PAU?$_Tree_node@U?$pair@$$CBV?$basic_string@DU?$char_traits@D@std@@V?$allocator@D@2@@std@@V?$shared_ptr@UPartData@@@2@@std@@PAX@1@@Z$4 00453f10 f   KSPMetaManager.obj
 0001:00052f18       __unwindfunclet$??$_Insert_nohint@AAU?$pair@$$CBV?$basic_string@DU?$char_traits@D@std@@V?$allocator@D@2@@std@@V?$shared_ptr@UPartData@@@2@@std@@PAU?$_Tree_node@U?$pair@$$CBV?$basic_string@DU?$char_traits@D@std@@V?$allocator@D@2@@std@@V?$shared_ptr@UPartData@@@2@@std@@PAX@2@@?$_Tree@V?$_Tmap_traits@V?$basic_string@DU?$char_traits@D@std@@V?$allocator@D@2@@std@@V?$shared_ptr@UPartData@@@2@U?$less@V?$basic_string@DU?$char_traits@D@std@@V?$allocator@D@2@@std@@@2@V?$allocator@U?$pair@$$CBV?$basic_string@DU?$char_traits@D@std@@V?$allocator@D@2@@std@@V?$shared_ptr@UPartData@@@2@@std@@@2@$0A@@std@@@std@@IAE?AU?$pair@V?$_Tree_iterator@V?$_Tree_val@U?$_Tree_simple_types@U?$pair@$$CBV?$basic_string@DU?$char_traits@D@std@@V?$allocator@D@2@@std@@V?$shared_ptr@UPartData@@@2@@std@@@std@@@std@@@std@@_N@1@_NAAU?$pair@$$CBV?$basic_string@DU?$char_traits@D@std@@V?$allocator@D@2@@std@@V?$shared_ptr@UPartData@@@2@@1@PAU?$_Tree_node@U?$pair@$$CBV?$basic_string@DU?$char_traits@D@std@@V?$allocator@D@2@@std@@V?$shared_ptr@UPartData@@@2@@std@@PAX@1@@Z$5 00453f18 f   KSPMetaManager.obj
 0001:00052f23       __ehhandler$??$_Insert_nohint@AAU?$pair@$$CBV?$basic_string@DU?$char_traits@D@std@@V?$allocator@D@2@@std@@V?$shared_ptr@UPartData@@@2@@std@@PAU?$_Tree_node@U?$pair@$$CBV?$basic_string@DU?$char_traits@D@std@@V?$allocator@D@2@@std@@V?$shared_ptr@UPartData@@@2@@std@@PAX@2@@?$_Tree@V?$_Tmap_traits@V?$basic_string@DU?$char_traits@D@std@@V?$allocator@D@2@@std@@V?$shared_ptr@UPartData@@@2@U?$less@V?$basic_string@DU?$char_traits@D@std@@V?$allocator@D@2@@std@@@2@V?$allocator@U?$pair@$$CBV?$basic_string@DU?$char_traits@D@std@@V?$allocator@D@2@@std@@V?$shared_ptr@UPartData@@@2@@std@@@2@$0A@@std@@@std@@IAE?AU?$pair@V?$_Tree_iterator@V?$_Tree_val@U?$_Tree_simple_types@U?$pair@$$CBV?$basic_string@DU?$char_traits@D@std@@V?$allocator@D@2@@std@@V?$shared_ptr@UPartData@@@2@@std@@@std@@@std@@@std@@_N@1@_NAAU?$pair@$$CBV?$basic_string@DU?$char_traits@D@std@@V?$allocator@D@2@@std@@V?$shared_ptr@UPartData@@@2@@1@PAU?$_Tree_node@U?$pair@$$CBV?$basic_string@DU?$char_traits@D@std@@V?$allocator@D@2@@std@@V?$shared_ptr@UPartData@@@2@@std@@PAX@1@@Z 00453f23 f   KSPMetaManager.obj
 0001:00052f50       __unwindfunclet$??$_Setp@UPartData@@@?$shared_ptr@UPartData@@@std@@AAEXPAUPartData@@U?$integral_constant@_N$0A@@1@@Z$2 00453f50 f   KSPMetaManager.obj
 0001:00052f5f       __ehhandler$??$_Setp@UPartData@@@?$shared_ptr@UPartData@@@std@@AAEXPAUPartData@@U?$integral_constant@_N$0A@@1@@Z 00453f5f f   KSPMetaManager.obj
 0001:00052f80       __ehhandler$??0?$shared_ptr@UPartData@@@std@@QAE@ABV01@@Z 00453f80 f   KSPMetaManager.obj
 0001:00052fa0       __ehhandler$??0?$vector@PAVGadget@@V?$allocator@PAVGadget@@@std@@@std@@QAE@XZ 00453fa0 f   KSPMetaManager.obj
 0001:00052fc0       __ehhandler$?_Buynode0@?$_Tree_comp_alloc@V?$_Tmap_traits@V?$basic_string@DU?$char_traits@D@std@@V?$allocator@D@2@@std@@V?$shared_ptr@UPartData@@@2@U?$less@V?$basic_string@DU?$char_traits@D@std@@V?$allocator@D@2@@std@@@2@V?$allocator@U?$pair@$$CBV?$basic_string@DU?$char_traits@D@std@@V?$allocator@D@2@@std@@V?$shared_ptr@UPartData@@@2@@std@@@2@$0A@@std@@@std@@QAEPAU?$_Tree_node@U?$pair@$$CBV?$basic_string@DU?$char_traits@D@std@@V?$allocator@D@2@@std@@V?$shared_ptr@UPartData@@@2@@std@@PAX@2@XZ 00453fc0 f   KSPMetaManager.obj
 0001:00052fe0       __ehhandler$?_Equal@?$basic_string@DU?$char_traits@D@std@@V?$allocator@D@2@@std@@QBE_NQBD@Z 00453fe0 f   KSPMetaManager.obj
 0001:00053000       __unwindfunclet$?_Orphan_range@?$vector@PAVGadget@@V?$allocator@PAVGadget@@@std@@@std@@ABEXPAPAVGadget@@0@Z$0 00454000 f   KSPMetaManager.obj
 0001:00053009       __ehhandler$?_Orphan_range@?$vector@PAVGadget@@V?$allocator@PAVGadget@@@std@@@std@@ABEXPAPAVGadget@@0@Z 00454009 f   KSPMetaManager.obj
 0001:00053030       __ehhandler$?begin@?$_Tree@V?$_Tmap_traits@V?$basic_string@DU?$char_traits@D@std@@V?$allocator@D@2@@std@@V?$shared_ptr@UPartData@@@2@U?$less@V?$basic_string@DU?$char_traits@D@std@@V?$allocator@D@2@@std@@@2@V?$allocator@U?$pair@$$CBV?$basic_string@DU?$char_traits@D@std@@V?$allocator@D@2@@std@@V?$shared_ptr@UPartData@@@2@@std@@@2@$0A@@std@@@std@@QAE?AV?$_Tree_iterator@V?$_Tree_val@U?$_Tree_simple_types@U?$pair@$$CBV?$basic_string@DU?$char_traits@D@std@@V?$allocator@D@2@@std@@V?$shared_ptr@UPartData@@@2@@std@@@std@@@std@@@2@XZ 00454030 f   KSPMetaManager.obj
 0001:00053050       __ehhandler$?end@?$_Tree@V?$_Tmap_traits@V?$basic_string@DU?$char_traits@D@std@@V?$allocator@D@2@@std@@V?$shared_ptr@UPartData@@@2@U?$less@V?$basic_string@DU?$char_traits@D@std@@V?$allocator@D@2@@std@@@2@V?$allocator@U?$pair@$$CBV?$basic_string@DU?$char_traits@D@std@@V?$allocator@D@2@@std@@V?$shared_ptr@UPartData@@@2@@std@@@2@$0A@@std@@@std@@QAE?AV?$_Tree_iterator@V?$_Tree_val@U?$_Tree_simple_types@U?$pair@$$CBV?$basic_string@DU?$char_traits@D@std@@V?$allocator@D@2@@std@@V?$shared_ptr@UPartData@@@2@@std@@@std@@@std@@@2@XZ 00454050 f   KSPMetaManager.obj
 0001:00053070       __unwindfunclet$?find@?$_Tree@V?$_Tmap_traits@V?$basic_string@DU?$char_traits@D@std@@V?$allocator@D@2@@std@@V?$shared_ptr@UPartData@@@2@U?$less@V?$basic_string@DU?$char_traits@D@std@@V?$allocator@D@2@@std@@@2@V?$allocator@U?$pair@$$CBV?$basic_string@DU?$char_traits@D@std@@V?$allocator@D@2@@std@@V?$shared_ptr@UPartData@@@2@@std@@@2@$0A@@std@@@std@@QAE?AV?$_Tree_iterator@V?$_Tree_val@U?$_Tree_simple_types@U?$pair@$$CBV?$basic_string@DU?$char_traits@D@std@@V?$allocator@D@2@@std@@V?$shared_ptr@UPartData@@@2@@std@@@std@@@std@@@2@ABV?$basic_string@DU?$char_traits@D@std@@V?$allocator@D@2@@2@@Z$0 00454070 f   KSPMetaManager.obj
 0001:00053078       __unwindfunclet$?find@?$_Tree@V?$_Tmap_traits@V?$basic_string@DU?$char_traits@D@std@@V?$allocator@D@2@@std@@V?$shared_ptr@UPartData@@@2@U?$less@V?$basic_string@DU?$char_traits@D@std@@V?$allocator@D@2@@std@@@2@V?$allocator@U?$pair@$$CBV?$basic_string@DU?$char_traits@D@std@@V?$allocator@D@2@@std@@V?$shared_ptr@UPartData@@@2@@std@@@2@$0A@@std@@@std@@QAE?AV?$_Tree_iterator@V?$_Tree_val@U?$_Tree_simple_types@U?$pair@$$CBV?$basic_string@DU?$char_traits@D@std@@V?$allocator@D@2@@std@@V?$shared_ptr@UPartData@@@2@@std@@@std@@@std@@@2@ABV?$basic_string@DU?$char_traits@D@std@@V?$allocator@D@2@@2@@Z$1 00454078 f   KSPMetaManager.obj
 0001:00053091       __ehhandler$?find@?$_Tree@V?$_Tmap_traits@V?$basic_string@DU?$char_traits@D@std@@V?$allocator@D@2@@std@@V?$shared_ptr@UPartData@@@2@U?$less@V?$basic_string@DU?$char_traits@D@std@@V?$allocator@D@2@@std@@@2@V?$allocator@U?$pair@$$CBV?$basic_string@DU?$char_traits@D@std@@V?$allocator@D@2@@std@@V?$shared_ptr@UPartData@@@2@@std@@@2@$0A@@std@@@std@@QAE?AV?$_Tree_iterator@V?$_Tree_val@U?$_Tree_simple_types@U?$pair@$$CBV?$basic_string@DU?$char_traits@D@std@@V?$allocator@D@2@@std@@V?$shared_ptr@UPartData@@@2@@std@@@std@@@std@@@2@ABV?$basic_string@DU?$char_traits@D@std@@V?$allocator@D@2@@2@@Z 00454091 f   KSPMetaManager.obj
 0001:000530b0       __unwindfunclet$??0PartSprite@@QAE@V?$basic_string@DU?$char_traits@D@std@@V?$allocator@D@2@@std@@PAVBaseEngine@@HH@Z$0 004540b0 f   PartSprite.obj
 0001:000530b8       __unwindfunclet$??0PartSprite@@QAE@V?$basic_string@DU?$char_traits@D@std@@V?$allocator@D@2@@std@@PAVBaseEngine@@HH@Z$1 004540b8 f   PartSprite.obj
 0001:000530c0       __unwindfunclet$??0PartSprite@@QAE@V?$basic_string@DU?$char_traits@D@std@@V?$allocator@D@2@@std@@PAVBaseEngine@@HH@Z$2 004540c0 f   PartSprite.obj
 0001:000530c8       __unwindfunclet$??0PartSprite@@QAE@V?$basic_string@DU?$char_traits@D@std@@V?$allocator@D@2@@std@@PAVBaseEngine@@HH@Z$3 004540c8 f   PartSprite.obj
 0001:000530d3       __unwindfunclet$??0PartSprite@@QAE@V?$basic_string@DU?$char_traits@D@std@@V?$allocator@D@2@@std@@PAVBaseEngine@@HH@Z$4 004540d3 f   PartSprite.obj
 0001:000530de       __unwindfunclet$??0PartSprite@@QAE@V?$basic_string@DU?$char_traits@D@std@@V?$allocator@D@2@@std@@PAVBaseEngine@@HH@Z$5 004540de f   PartSprite.obj
 0001:000530e6       __ehhandler$??0PartSprite@@QAE@V?$basic_string@DU?$char_traits@D@std@@V?$allocator@D@2@@std@@PAVBaseEngine@@HH@Z 004540e6 f   PartSprite.obj
 0001:00053101       __ehhandler$??1PartSprite@@UAE@XZ 00454101 f   PartSprite.obj
 0001:00053120       __ehhandler$??1RocketPart@@QAE@XZ 00454120 f   RocketPart.obj
 0001:00053140       __ehhandler$??1?$_Vector_alloc@U?$_Vec_base_types@PAVGadget@@V?$allocator@PAVGadget@@@std@@@std@@@std@@QAE@XZ 00454140 f   RocketPart.obj
 0001:00053160       __ehhandler$??1?$vector@PAVGadget@@V?$allocator@PAVGadget@@@std@@@std@@QAE@XZ 00454160 f   RocketPart.obj
 0001:00053180       __unwindfunclet$??0SpacecraftParts@@QAE@HHPAVRocketPart@@@Z$0 00454180 f   SpacecraftParts.obj
 0001:00053188       __ehhandler$??0SpacecraftParts@@QAE@HHPAVRocketPart@@@Z 00454188 f   SpacecraftParts.obj
 0001:000531a3       __unwindfunclet$?generateSpacecraft@SpacecraftParts@@QAEPAVSpacecraft@@PAVKSP2D@@ABVVec2D@@1OPAV4@@Z$0 004541a3 f   SpacecraftParts.obj
 0001:000531b5       __ehhandler$?generateSpacecraft@SpacecraftParts@@QAEPAVSpacecraft@@PAVKSP2D@@ABVVec2D@@1OPAV4@@Z 004541b5 f   SpacecraftParts.obj
 0001:000531d0       __unwindfunclet$?getDraggedPart@SpacecraftParts@@QAEPAVRocketPart@@XZ$0 004541d0 f   SpacecraftParts.obj
 0001:000531d8       __unwindfunclet$?getDraggedPart@SpacecraftParts@@QAEPAVRocketPart@@XZ$2 004541d8 f   SpacecraftParts.obj
 0001:000531e0       __unwindfunclet$?getDraggedPart@SpacecraftParts@@QAEPAVRocketPart@@XZ$5 004541e0 f   SpacecraftParts.obj
 0001:000531eb       __ehhandler$?getDraggedPart@SpacecraftParts@@QAEPAVRocketPart@@XZ 004541eb f   SpacecraftParts.obj
 0001:00053210       __ehhandler$??$_Emplace_reallocate@ABQAVRocketPart@@@?$vector@PAVRocketPart@@V?$allocator@PAVRocketPart@@@std@@@std@@QAEPAPAVRocketPart@@QAPAV2@ABQAV2@@Z 00454210 f   SpacecraftParts.obj
 0001:00053230       __ehhandler$??0?$vector@PAVRocketPart@@V?$allocator@PAVRocketPart@@@std@@@std@@QAE@XZ 00454230 f   SpacecraftParts.obj
 0001:00053250       __unwindfunclet$??E?$_Vector_iterator@V?$_Vector_val@U?$_Simple_types@PAVRocketPart@@@std@@@std@@@std@@QAE?AV01@H@Z$0 00454250 f   SpacecraftParts.obj
 0001:00053258       __ehhandler$??E?$_Vector_iterator@V?$_Vector_val@U?$_Simple_types@PAVRocketPart@@@std@@@std@@@std@@QAE?AV01@H@Z 00454258 f   SpacecraftParts.obj
 0001:00053280       __unwindfunclet$?_Orphan_range@?$vector@PAVRocketPart@@V?$allocator@PAVRocketPart@@@std@@@std@@ABEXPAPAVRocketPart@@0@Z$0 00454280 f   SpacecraftParts.obj
 0001:00053289       __ehhandler$?_Orphan_range@?$vector@PAVRocketPart@@V?$allocator@PAVRocketPart@@@std@@@std@@ABEXPAPAVRocketPart@@0@Z 00454289 f   SpacecraftParts.obj
 0001:000532b0       __ehhandler$?begin@?$vector@PAVRocketPart@@V?$allocator@PAVRocketPart@@@std@@@std@@QAE?AV?$_Vector_iterator@V?$_Vector_val@U?$_Simple_types@PAVRocketPart@@@std@@@std@@@2@XZ 004542b0 f   SpacecraftParts.obj
 0001:000532d0       __ehhandler$?end@?$vector@PAVRocketPart@@V?$allocator@PAVRocketPart@@@std@@@std@@QAE?AV?$_Vector_iterator@V?$_Vector_val@U?$_Simple_types@PAVRocketPart@@@std@@@std@@@2@XZ 004542d0 f   SpacecraftParts.obj
 0001:000532f0       __unwindfunclet$?erase@?$vector@PAVRocketPart@@V?$allocator@PAVRocketPart@@@std@@@std@@QAE?AV?$_Vector_iterator@V?$_Vector_val@U?$_Simple_types@PAVRocketPart@@@std@@@std@@@2@V?$_Vector_const_iterator@V?$_Vector_val@U?$_Simple_types@PAVRocketPart@@@std@@@std@@@2@@Z$0 004542f0 f   SpacecraftParts.obj
 0001:000532f8       __ehhandler$?erase@?$vector@PAVRocketPart@@V?$allocator@PAVRocketPart@@@std@@@std@@QAE?AV?$_Vector_iterator@V?$_Vector_val@U?$_Simple_types@PAVRocketPart@@@std@@@std@@@2@V?$_Vector_const_iterator@V?$_Vector_val@U?$_Simple_types@PAVRocketPart@@@std@@@std@@@2@@Z 004542f8 f   SpacecraftParts.obj
 0001:00053320       __unwindfunclet$??0BasicSpacecraft@@QAE@PAVKSP2D@@V?$basic_string@DU?$char_traits@D@std@@V?$allocator@D@2@@std@@ABVVec2D@@2OPAV4@@Z$0 00454320 f   BasicSpacecraft.obj
 0001:00053328       __unwindfunclet$??0BasicSpacecraft@@QAE@PAVKSP2D@@V?$basic_string@DU?$char_traits@D@std@@V?$allocator@D@2@@std@@ABVVec2D@@2OPAV4@@Z$1 00454328 f   BasicSpacecraft.obj
 0001:00053330       __unwindfunclet$??0BasicSpacecraft@@QAE@PAVKSP2D@@V?$basic_string@DU?$char_traits@D@std@@V?$allocator@D@2@@std@@ABVVec2D@@2OPAV4@@Z$2 00454330 f   BasicSpacecraft.obj
 0001:0005333b       __unwindfunclet$??0BasicSpacecraft@@QAE@PAVKSP2D@@V?$basic_string@DU?$char_traits@D@std@@V?$allocator@D@2@@std@@ABVVec2D@@2OPAV4@@Z$3 0045433b f   BasicSpacecraft.obj
 0001:00053349       __unwindfunclet$??0BasicSpacecraft@@QAE@PAVKSP2D@@V?$basic_string@DU?$char_traits@D@std@@V?$allocator@D@2@@std@@ABVVec2D@@2OPAV4@@Z$4 00454349 f   BasicSpacecraft.obj
 0001:00053357       __unwindfunclet$??0BasicSpacecraft@@QAE@PAVKSP2D@@V?$basic_string@DU?$char_traits@D@std@@V?$allocator@D@2@@std@@ABVVec2D@@2OPAV4@@Z$5 00454357 f   BasicSpacecraft.obj
 0001:0005335f       __unwindfunclet$??0BasicSpacecraft@@QAE@PAVKSP2D@@V?$basic_string@DU?$char_traits@D@std@@V?$allocator@D@2@@std@@ABVVec2D@@2OPAV4@@Z$6 0045435f f   BasicSpacecraft.obj
 0001:0005336d       __unwindfunclet$??0BasicSpacecraft@@QAE@PAVKSP2D@@V?$basic_string@DU?$char_traits@D@std@@V?$allocator@D@2@@std@@ABVVec2D@@2OPAV4@@Z$7 0045436d f   BasicSpacecraft.obj
 0001:0005337b       __unwindfunclet$??0BasicSpacecraft@@QAE@PAVKSP2D@@V?$basic_string@DU?$char_traits@D@std@@V?$allocator@D@2@@std@@ABVVec2D@@2OPAV4@@Z$8 0045437b f   BasicSpacecraft.obj
 0001:00053389       __unwindfunclet$??0BasicSpacecraft@@QAE@PAVKSP2D@@V?$basic_string@DU?$char_traits@D@std@@V?$allocator@D@2@@std@@ABVVec2D@@2OPAV4@@Z$9 00454389 f   BasicSpacecraft.obj
 0001:00053397       __unwindfunclet$??0BasicSpacecraft@@QAE@PAVKSP2D@@V?$basic_string@DU?$char_traits@D@std@@V?$allocator@D@2@@std@@ABVVec2D@@2OPAV4@@Z$10 00454397 f   BasicSpacecraft.obj
 0001:0005339f       __unwindfunclet$??0BasicSpacecraft@@QAE@PAVKSP2D@@V?$basic_string@DU?$char_traits@D@std@@V?$allocator@D@2@@std@@ABVVec2D@@2OPAV4@@Z$12 0045439f f   BasicSpacecraft.obj
 0001:000533b1       __unwindfunclet$??0BasicSpacecraft@@QAE@PAVKSP2D@@V?$basic_string@DU?$char_traits@D@std@@V?$allocator@D@2@@std@@ABVVec2D@@2OPAV4@@Z$13 004543b1 f   BasicSpacecraft.obj
 0001:000533b9       __unwindfunclet$??0BasicSpacecraft@@QAE@PAVKSP2D@@V?$basic_string@DU?$char_traits@D@std@@V?$allocator@D@2@@std@@ABVVec2D@@2OPAV4@@Z$14 004543b9 f   BasicSpacecraft.obj
 0001:000533c1       __unwindfunclet$??0BasicSpacecraft@@QAE@PAVKSP2D@@V?$basic_string@DU?$char_traits@D@std@@V?$allocator@D@2@@std@@ABVVec2D@@2OPAV4@@Z$15 004543c1 f   BasicSpacecraft.obj
 0001:000533d3       __ehhandler$??0BasicSpacecraft@@QAE@PAVKSP2D@@V?$basic_string@DU?$char_traits@D@std@@V?$allocator@D@2@@std@@ABVVec2D@@2OPAV4@@Z 004543d3 f   BasicSpacecraft.obj
 0001:000533f1       __unwindfunclet$?checkProximityChange@BasicSpacecraft@@QAE_NPAVCelestialBody@@@Z$0 004543f1 f   BasicSpacecraft.obj
 0001:000533f9       __ehhandler$?checkProximityChange@BasicSpacecraft@@QAE_NPAVCelestialBody@@@Z 004543f9 f   BasicSpacecraft.obj
 0001:00053414       __unwindfunclet$?checkSurfaceCollision@BasicSpacecraft@@QAEXPAVCelestialBody@@@Z$0 00454414 f   BasicSpacecraft.obj
 0001:0005341c       __unwindfunclet$?checkSurfaceCollision@BasicSpacecraft@@QAEXPAVCelestialBody@@@Z$1 0045441c f   BasicSpacecraft.obj
 0001:00053424       __ehhandler$?checkSurfaceCollision@BasicSpacecraft@@QAEXPAVCelestialBody@@@Z 00454424 f   BasicSpacecraft.obj
 0001:00053440       __unwindfunclet$??0AnimatedSprite@@QAE@PBDHH@Z$0 00454440 f   BasicSpacecraft.obj
 0001:0005344b       __unwindfunclet$??0AnimatedSprite@@QAE@PBDHH@Z$1 0045444b f   BasicSpacecraft.obj
 0001:00053453       __ehhandler$??0AnimatedSprite@@QAE@PBDHH@Z 00454453 f   BasicSpacecraft.obj
 0001:00053470       __unwindfunclet$??0CollisionManifold@@QAE@PAVPhysObject@@0@Z$0 00454470 f   BasicSpacecraft.obj
 0001:0005347b       __ehhandler$??0CollisionManifold@@QAE@PAVPhysObject@@0@Z 0045447b f   BasicSpacecraft.obj
 0001:000534a0       __unwindfunclet$??0OBB@@QAE@ABVVec2D@@00ABVMat22@@@Z$0 004544a0 f   BasicSpacecraft.obj
 0001:000534ab       __unwindfunclet$??0OBB@@QAE@ABVVec2D@@00ABVMat22@@@Z$1 004544ab f   BasicSpacecraft.obj
 0001:000534b6       __unwindfunclet$??0OBB@@QAE@ABVVec2D@@00ABVMat22@@@Z$2 004544b6 f   BasicSpacecraft.obj
 0001:000534c1       __unwindfunclet$??0OBB@@QAE@ABVVec2D@@00ABVMat22@@@Z$3 004544c1 f   BasicSpacecraft.obj
 0001:000534cc       __unwindfunclet$??0OBB@@QAE@ABVVec2D@@00ABVMat22@@@Z$4 004544cc f   BasicSpacecraft.obj
 0001:000534da       __unwindfunclet$??0OBB@@QAE@ABVVec2D@@00ABVMat22@@@Z$5 004544da f   BasicSpacecraft.obj
 0001:000534e8       __ehhandler$??0OBB@@QAE@ABVVec2D@@00ABVMat22@@@Z 004544e8 f   BasicSpacecraft.obj
 0001:00053510       __unwindfunclet$?applyForceFromDir@PhysBody@@QAEXVMat22@@N@Z$0 00454510 f   BasicSpacecraft.obj
 0001:00053518       __unwindfunclet$?applyForceFromDir@PhysBody@@QAEXVMat22@@N@Z$1 00454518 f   BasicSpacecraft.obj
 0001:00053520       __unwindfunclet$?applyForceFromDir@PhysBody@@QAEXVMat22@@N@Z$2 00454520 f   BasicSpacecraft.obj
 0001:00053528       __ehhandler$?applyForceFromDir@PhysBody@@QAEXVMat22@@N@Z 00454528 f   BasicSpacecraft.obj
 0001:00053550       __unwindfunclet$?filter@FilterPointsZoom@@UAE_NPAVDrawingSurface@@AAH1AAI@Z$0 00454550 f   BasicSpacecraft.obj
 0001:00053558       __unwindfunclet$?filter@FilterPointsZoom@@UAE_NPAVDrawingSurface@@AAH1AAI@Z$1 00454558 f   BasicSpacecraft.obj
 0001:00053560       __ehhandler$?filter@FilterPointsZoom@@UAE_NPAVDrawingSurface@@AAH1AAI@Z 00454560 f   BasicSpacecraft.obj
 0001:00053580       __unwindfunclet$?transform@FilterPointsRotate@@QAEXPAVDrawingSurface@@AAH1AAI@Z$0 00454580 f   BasicSpacecraft.obj
 0001:00053588       __unwindfunclet$?transform@FilterPointsRotate@@QAEXPAVDrawingSurface@@AAH1AAI@Z$1 00454588 f   BasicSpacecraft.obj
 0001:00053590       __ehhandler$?transform@FilterPointsRotate@@QAEXPAVDrawingSurface@@AAH1AAI@Z 00454590 f   BasicSpacecraft.obj
 0001:000535b0       __unwindfunclet$?updateShape@OBB@@UAEXABVVec2D@@ABVMat22@@@Z$0 004545b0 f   BasicSpacecraft.obj
 0001:000535b8       __unwindfunclet$?updateShape@OBB@@UAEXABVVec2D@@ABVMat22@@@Z$2 004545b8 f   BasicSpacecraft.obj
 0001:000535c3       __unwindfunclet$?updateShape@OBB@@UAEXABVVec2D@@ABVMat22@@@Z$3 004545c3 f   BasicSpacecraft.obj
 0001:000535ce       __unwindfunclet$?updateShape@OBB@@UAEXABVVec2D@@ABVMat22@@@Z$5 004545ce f   BasicSpacecraft.obj
 0001:000535d9       __unwindfunclet$?updateShape@OBB@@UAEXABVVec2D@@ABVMat22@@@Z$6 004545d9 f   BasicSpacecraft.obj
 0001:000535e4       __unwindfunclet$?updateShape@OBB@@UAEXABVVec2D@@ABVMat22@@@Z$8 004545e4 f   BasicSpacecraft.obj
 0001:000535ef       __ehhandler$?updateShape@OBB@@UAEXABVVec2D@@ABVMat22@@@Z 004545ef f   BasicSpacecraft.obj
 0001:00053610       __unwindfunclet$??0Spacecraft@@QAE@PAVKSP2D@@ABVVec2D@@1OPAV2@AAV?$vector@PAVRocketPart@@V?$allocator@PAVRocketPart@@@std@@@std@@@Z$0 00454610 f   Spacecraft.obj
 0001:00053618       __unwindfunclet$??0Spacecraft@@QAE@PAVKSP2D@@ABVVec2D@@1OPAV2@AAV?$vector@PAVRocketPart@@V?$allocator@PAVRocketPart@@@std@@@std@@@Z$1 00454618 f   Spacecraft.obj
 0001:00053623       __unwindfunclet$??0Spacecraft@@QAE@PAVKSP2D@@ABVVec2D@@1OPAV2@AAV?$vector@PAVRocketPart@@V?$allocator@PAVRocketPart@@@std@@@std@@@Z$2 00454623 f   Spacecraft.obj
 0001:00053631       __unwindfunclet$??0Spacecraft@@QAE@PAVKSP2D@@ABVVec2D@@1OPAV2@AAV?$vector@PAVRocketPart@@V?$allocator@PAVRocketPart@@@std@@@std@@@Z$3 00454631 f   Spacecraft.obj
 0001:0005363f       __unwindfunclet$??0Spacecraft@@QAE@PAVKSP2D@@ABVVec2D@@1OPAV2@AAV?$vector@PAVRocketPart@@V?$allocator@PAVRocketPart@@@std@@@std@@@Z$4 0045463f f   Spacecraft.obj
 0001:0005364d       __unwindfunclet$??0Spacecraft@@QAE@PAVKSP2D@@ABVVec2D@@1OPAV2@AAV?$vector@PAVRocketPart@@V?$allocator@PAVRocketPart@@@std@@@std@@@Z$5 0045464d f   Spacecraft.obj
 0001:0005365b       __unwindfunclet$??0Spacecraft@@QAE@PAVKSP2D@@ABVVec2D@@1OPAV2@AAV?$vector@PAVRocketPart@@V?$allocator@PAVRocketPart@@@std@@@std@@@Z$6 0045465b f   Spacecraft.obj
 0001:00053669       __unwindfunclet$??0Spacecraft@@QAE@PAVKSP2D@@ABVVec2D@@1OPAV2@AAV?$vector@PAVRocketPart@@V?$allocator@PAVRocketPart@@@std@@@std@@@Z$7 00454669 f   Spacecraft.obj
 0001:00053677       __unwindfunclet$??0Spacecraft@@QAE@PAVKSP2D@@ABVVec2D@@1OPAV2@AAV?$vector@PAVRocketPart@@V?$allocator@PAVRocketPart@@@std@@@std@@@Z$8 00454677 f   Spacecraft.obj
 0001:00053689       __unwindfunclet$??0Spacecraft@@QAE@PAVKSP2D@@ABVVec2D@@1OPAV2@AAV?$vector@PAVRocketPart@@V?$allocator@PAVRocketPart@@@std@@@std@@@Z$9 00454689 f   Spacecraft.obj
 0001:00053691       __unwindfunclet$??0Spacecraft@@QAE@PAVKSP2D@@ABVVec2D@@1OPAV2@AAV?$vector@PAVRocketPart@@V?$allocator@PAVRocketPart@@@std@@@std@@@Z$10 00454691 f   Spacecraft.obj
 0001:00053699       __unwindfunclet$??0Spacecraft@@QAE@PAVKSP2D@@ABVVec2D@@1OPAV2@AAV?$vector@PAVRocketPart@@V?$allocator@PAVRocketPart@@@std@@@std@@@Z$11 00454699 f   Spacecraft.obj
 0001:000536ab       __ehhandler$??0Spacecraft@@QAE@PAVKSP2D@@ABVVec2D@@1OPAV2@AAV?$vector@PAVRocketPart@@V?$allocator@PAVRocketPart@@@std@@@std@@@Z 004546ab f   Spacecraft.obj
 0001:000536c9       __unwindfunclet$?checkProximityChange@Spacecraft@@QAE_NPAVCelestialBody@@@Z$0 004546c9 f   Spacecraft.obj
 0001:000536d1       __ehhandler$?checkProximityChange@Spacecraft@@QAE_NPAVCelestialBody@@@Z 004546d1 f   Spacecraft.obj
 0001:000536ec       __unwindfunclet$?checkSurfaceCollision@Spacecraft@@QAEXPAVCelestialBody@@@Z$0 004546ec f   Spacecraft.obj
 0001:000536f4       __unwindfunclet$?checkSurfaceCollision@Spacecraft@@QAEXPAVCelestialBody@@@Z$1 004546f4 f   Spacecraft.obj
 0001:000536fc       __ehhandler$?checkSurfaceCollision@Spacecraft@@QAEXPAVCelestialBody@@@Z 004546fc f   Spacecraft.obj
 0001:00053720       __unwindfunclet$??0BaseEngine@@QAE@XZ$0 00454720 f   BaseEngine.obj
 0001:00053728       __unwindfunclet$??0BaseEngine@@QAE@XZ$1 00454728 f   BaseEngine.obj
 0001:00053736       __unwindfunclet$??0BaseEngine@@QAE@XZ$2 00454736 f   BaseEngine.obj
 0001:00053744       __ehhandler$??0BaseEngine@@QAE@XZ 00454744 f   BaseEngine.obj
 0001:0005375f       __unwindfunclet$?handleEvent@BaseEngine@@QAE_NPATSDL_Event@@@Z$6 0045475f f   BaseEngine.obj
 0001:00053767       __unwindfunclet$?handleEvent@BaseEngine@@QAE_NPATSDL_Event@@@Z$8 00454767 f   BaseEngine.obj
 0001:00053772       __unwindfunclet$?handleEvent@BaseEngine@@QAE_NPATSDL_Event@@@Z$9 00454772 f   BaseEngine.obj
 0001:0005377a       __unwindfunclet$?handleEvent@BaseEngine@@QAE_NPATSDL_Event@@@Z$11 0045477a f   BaseEngine.obj
 0001:00053785       __ehhandler$?handleEvent@BaseEngine@@QAE_NPATSDL_Event@@@Z 00454785 f   BaseEngine.obj
 0001:000537a3       __unwindfunclet$?drawAllObjects@BaseEngine@@UAEXXZ$0 004547a3 f   BaseEngine.obj
 0001:000537ab       __unwindfunclet$?drawAllObjects@BaseEngine@@UAEXXZ$2 004547ab f   BaseEngine.obj
 0001:000537b3       __unwindfunclet$?drawAllObjects@BaseEngine@@UAEXXZ$3 004547b3 f   BaseEngine.obj
 0001:000537bb       __unwindfunclet$?drawAllObjects@BaseEngine@@UAEXXZ$5 004547bb f   BaseEngine.obj
 0001:000537c3       __ehhandler$?drawAllObjects@BaseEngine@@UAEXXZ 004547c3 f   BaseEngine.obj
 0001:000537de       __unwindfunclet$?updateAllObjects@BaseEngine@@UAEXH@Z$0 004547de f   BaseEngine.obj
 0001:000537e6       __unwindfunclet$?updateAllObjects@BaseEngine@@UAEXH@Z$2 004547e6 f   BaseEngine.obj
 0001:000537ee       __unwindfunclet$?updateAllObjects@BaseEngine@@UAEXH@Z$3 004547ee f   BaseEngine.obj
 0001:000537f6       __unwindfunclet$?updateAllObjects@BaseEngine@@UAEXH@Z$5 004547f6 f   BaseEngine.obj
 0001:000537fe       __ehhandler$?updateAllObjects@BaseEngine@@UAEXH@Z 004547fe f   BaseEngine.obj
 0001:00053820       __unwindfunclet$??$for_each@V?$_Vector_iterator@V?$_Vector_val@U?$_Simple_types@PAVDisplayableObject@@@std@@@std@@@std@@V<lambda_497fa3cc95cba17f614bb29ddf1eb27b>@@@std@@YA?AV<lambda_497fa3cc95cba17f614bb29ddf1eb27b>@@V?$_Vector_iterator@V?$_Vector_val@U?$_Simple_types@PAVDisplayableObject@@@std@@@std@@@0@0V1@@Z$0 00454820 f   BaseEngine.obj
 0001:00053828       __unwindfunclet$??$for_each@V?$_Vector_iterator@V?$_Vector_val@U?$_Simple_types@PAVDisplayableObject@@@std@@@std@@@std@@V<lambda_497fa3cc95cba17f614bb29ddf1eb27b>@@@std@@YA?AV<lambda_497fa3cc95cba17f614bb29ddf1eb27b>@@V?$_Vector_iterator@V?$_Vector_val@U?$_Simple_types@PAVDisplayableObject@@@std@@@std@@@0@0V1@@Z$1 00454828 f   BaseEngine.obj
 0001:00053830       __ehhandler$??$for_each@V?$_Vector_iterator@V?$_Vector_val@U?$_Simple_types@PAVDisplayableObject@@@std@@@std@@@std@@V<lambda_497fa3cc95cba17f614bb29ddf1eb27b>@@@std@@YA?AV<lambda_497fa3cc95cba17f614bb29ddf1eb27b>@@V?$_Vector_iterator@V?$_Vector_val@U?$_Simple_types@PAVDisplayableObject@@@std@@@std@@@0@0V1@@Z 00454830 f   BaseEngine.obj
 0001:00053850       __unwindfunclet$??$for_each@V?$_Vector_iterator@V?$_Vector_val@U?$_Simple_types@PAVDisplayableObject@@@std@@@std@@@std@@V<lambda_93a465d5bb5690ea0824b19da678a0f2>@@@std@@YA?AV<lambda_93a465d5bb5690ea0824b19da678a0f2>@@V?$_Vector_iterator@V?$_Vector_val@U?$_Simple_types@PAVDisplayableObject@@@std@@@std@@@0@0V1@@Z$0 00454850 f   BaseEngine.obj
 0001:00053858       __unwindfunclet$??$for_each@V?$_Vector_iterator@V?$_Vector_val@U?$_Simple_types@PAVDisplayableObject@@@std@@@std@@@std@@V<lambda_93a465d5bb5690ea0824b19da678a0f2>@@@std@@YA?AV<lambda_93a465d5bb5690ea0824b19da678a0f2>@@V?$_Vector_iterator@V?$_Vector_val@U?$_Simple_types@PAVDisplayableObject@@@std@@@std@@@0@0V1@@Z$1 00454858 f   BaseEngine.obj
 0001:00053860       __ehhandler$??$for_each@V?$_Vector_iterator@V?$_Vector_val@U?$_Simple_types@PAVDisplayableObject@@@std@@@std@@@std@@V<lambda_93a465d5bb5690ea0824b19da678a0f2>@@@std@@YA?AV<lambda_93a465d5bb5690ea0824b19da678a0f2>@@V?$_Vector_iterator@V?$_Vector_val@U?$_Simple_types@PAVDisplayableObject@@@std@@@std@@@0@0V1@@Z 00454860 f   BaseEngine.obj
 0001:00053880       __unwindfunclet$??$for_each@V?$_Vector_iterator@V?$_Vector_val@U?$_Simple_types@PAVDisplayableObject@@@std@@@std@@@std@@V<lambda_bcac8b0bc9596c88896ad01f260fa24a>@@@std@@YA?AV<lambda_bcac8b0bc9596c88896ad01f260fa24a>@@V?$_Vector_iterator@V?$_Vector_val@U?$_Simple_types@PAVDisplayableObject@@@std@@@std@@@0@0V1@@Z$0 00454880 f   BaseEngine.obj
 0001:00053888       __unwindfunclet$??$for_each@V?$_Vector_iterator@V?$_Vector_val@U?$_Simple_types@PAVDisplayableObject@@@std@@@std@@@std@@V<lambda_bcac8b0bc9596c88896ad01f260fa24a>@@@std@@YA?AV<lambda_bcac8b0bc9596c88896ad01f260fa24a>@@V?$_Vector_iterator@V?$_Vector_val@U?$_Simple_types@PAVDisplayableObject@@@std@@@std@@@0@0V1@@Z$1 00454888 f   BaseEngine.obj
 0001:00053890       __ehhandler$??$for_each@V?$_Vector_iterator@V?$_Vector_val@U?$_Simple_types@PAVDisplayableObject@@@std@@@std@@@std@@V<lambda_bcac8b0bc9596c88896ad01f260fa24a>@@@std@@YA?AV<lambda_bcac8b0bc9596c88896ad01f260fa24a>@@V?$_Vector_iterator@V?$_Vector_val@U?$_Simple_types@PAVDisplayableObject@@@std@@@std@@@0@0V1@@Z 00454890 f   BaseEngine.obj
 0001:000538b0       __unwindfunclet$??0?$vector@PAVDisplayableObject@@V?$allocator@PAVDisplayableObject@@@std@@@std@@QAE@IABV?$allocator@PAVDisplayableObject@@@1@@Z$2 004548b0 f   BaseEngine.obj
 0001:000538b8       __ehhandler$??0?$vector@PAVDisplayableObject@@V?$allocator@PAVDisplayableObject@@@std@@@std@@QAE@IABV?$allocator@PAVDisplayableObject@@@1@@Z 004548b8 f   BaseEngine.obj
 0001:000538e0       __ehhandler$??1?$_Vector_alloc@U?$_Vec_base_types@PAVDisplayableObject@@V?$allocator@PAVDisplayableObject@@@std@@@std@@@std@@QAE@XZ 004548e0 f   BaseEngine.obj
 0001:00053900       __ehhandler$??1?$vector@PAVDisplayableObject@@V?$allocator@PAVDisplayableObject@@@std@@@std@@QAE@XZ 00454900 f   BaseEngine.obj
 0001:00053920       __ehhandler$??1DisplayableObjectContainer@@UAE@XZ 00454920 f   BaseEngine.obj
 0001:00053940       __unwindfunclet$??E?$_Vector_iterator@V?$_Vector_val@U?$_Simple_types@PAVDisplayableObject@@@std@@@std@@@std@@QAE?AV01@H@Z$0 00454940 f   BaseEngine.obj
 0001:00053948       __ehhandler$??E?$_Vector_iterator@V?$_Vector_val@U?$_Simple_types@PAVDisplayableObject@@@std@@@std@@@std@@QAE?AV01@H@Z 00454948 f   BaseEngine.obj
 0001:00053970       __unwindfunclet$?getFont@FontManager@@QAEPAVFont@@PBDH@Z$0 00454970 f   FontManager.obj
 0001:0005397f       __ehhandler$?getFont@FontManager@@QAEPAVFont@@PBDH@Z 0045497f f   FontManager.obj
 0001:000539a0       __unwindfunclet$??0RawImageData@@QAE@ABV?$shared_ptr@VRawImageData@@@std@@H@Z$0 004549a0 f   RawImage.obj
 0001:000539ab       __ehhandler$??0RawImageData@@QAE@ABV?$shared_ptr@VRawImageData@@@std@@H@Z 004549ab f   RawImage.obj
 0001:000539c6       __unwindfunclet$??0RawImageData@@QAE@HHABV?$shared_ptr@VRawImageData@@@std@@@Z$0 004549c6 f   RawImage.obj
 0001:000539d1       __ehhandler$??0RawImageData@@QAE@HHABV?$shared_ptr@VRawImageData@@@std@@@Z 004549d1 f   RawImage.obj
 0001:000539ec       __unwindfunclet$??0RawImageData@@QAE@HHHHABV?$shared_ptr@VRawImageData@@@std@@@Z$0 004549ec f   RawImage.obj
 0001:000539f7       __ehhandler$??0RawImageData@@QAE@HHHHABV?$shared_ptr@VRawImageData@@@std@@@Z 004549f7 f   RawImage.obj
 0001:00053a20       __ehhandler$?__scrt_initialize_thread_safe_statics_platform_specific@@YAXXZ 00454a20 f   MSVCRTD:thread_safe_statics.obj
 0001:00053a40       __ehhandler$?__scrt_uninitialize_thread_safe_statics@@YAXXZ 00454a40 f   MSVCRTD:thread_safe_statics.obj
 0001:00053a60       ??__FrotationNormalAxis@@YAXXZ 00454a60 f   BuilderUI.obj
 0001:00053a70       ??__FscreenCenter@@YAXXZ   00454a70 f   BuilderUI.obj
 0001:00053a80       ??__FscreenDimensions@@YAXXZ 00454a80 f   BuilderUI.obj
 0001:00053a90       ??__FrotationNormalAxis@@YAXXZ 00454a90 f   GUIManager.obj
 0001:00053aa0       ??__FscreenCenter@@YAXXZ   00454aa0 f   GUIManager.obj
 0001:00053ab0       ??__FscreenDimensions@@YAXXZ 00454ab0 f   GUIManager.obj
 0001:00053ac0       ??__FrotationNormalAxis@@YAXXZ 00454ac0 f   SpacecraftControls.obj
 0001:00053ad0       ??__FscreenCenter@@YAXXZ   00454ad0 f   SpacecraftControls.obj
 0001:00053ae0       ??__FscreenDimensions@@YAXXZ 00454ae0 f   SpacecraftControls.obj
 0001:00053af0       ??__FrotationNormalAxis@@YAXXZ 00454af0 f   KSP2D.obj
 0001:00053b00       ??__FscreenCenter@@YAXXZ   00454b00 f   KSP2D.obj
 0001:00053b10       ??__FscreenDimensions@@YAXXZ 00454b10 f   KSP2D.obj
 0001:00053b20       ??__FrotationNormalAxis@@YAXXZ 00454b20 f   main.obj
 0001:00053b30       ??__FscreenCenter@@YAXXZ   00454b30 f   main.obj
 0001:00053b40       ??__FscreenDimensions@@YAXXZ 00454b40 f   main.obj
 0001:00053b50       ??__FrotationNormalAxis@@YAXXZ 00454b50 f   CelestialBody.obj
 0001:00053b60       ??__FscreenCenter@@YAXXZ   00454b60 f   CelestialBody.obj
 0001:00053b70       ??__FscreenDimensions@@YAXXZ 00454b70 f   CelestialBody.obj
 0001:00053b80       ??__FrotationNormalAxis@@YAXXZ 00454b80 f   PhysObject.obj
 0001:00053b90       ??__FscreenCenter@@YAXXZ   00454b90 f   PhysObject.obj
 0001:00053ba0       ??__FscreenDimensions@@YAXXZ 00454ba0 f   PhysObject.obj
 0001:00053bb0       ??__FrotationNormalAxis@@YAXXZ 00454bb0 f   PlanetObject.obj
 0001:00053bc0       ??__FscreenCenter@@YAXXZ   00454bc0 f   PlanetObject.obj
 0001:00053bd0       ??__FscreenDimensions@@YAXXZ 00454bd0 f   PlanetObject.obj
 0001:00053be0       ??__FrotationNormalAxis@@YAXXZ 00454be0 f   SpacecraftParts.obj
 0001:00053bf0       ??__FscreenCenter@@YAXXZ   00454bf0 f   SpacecraftParts.obj
 0001:00053c00       ??__FscreenDimensions@@YAXXZ 00454c00 f   SpacecraftParts.obj
 0001:00053c10       ??__FrotationNormalAxis@@YAXXZ 00454c10 f   BasicSpacecraft.obj
 0001:00053c20       ??__FscreenCenter@@YAXXZ   00454c20 f   BasicSpacecraft.obj
 0001:00053c30       ??__FscreenDimensions@@YAXXZ 00454c30 f   BasicSpacecraft.obj
 0001:00053c40       ??__FrotationNormalAxis@@YAXXZ 00454c40 f   Spacecraft.obj
 0001:00053c50       ??__FscreenCenter@@YAXXZ   00454c50 f   Spacecraft.obj
 0001:00053c60       ??__FscreenDimensions@@YAXXZ 00454c60 f   Spacecraft.obj
 0002:000002e8       ?pre_cpp_initializer@@3P6AXXZA 004552e8     MSVCRTD:exe_main.obj
 0002:000002ec       ?screenDimensions$initializer$@@3P6AXXZA 004552ec     BuilderUI.obj
 0002:000002f0       ?screenCenter$initializer$@@3P6AXXZA 004552f0     BuilderUI.obj
 0002:000002f4       ?screenViewRadius$initializer$@@3P6AXXZA 004552f4     BuilderUI.obj
 0002:000002f8       ?rotationNormalAxis$initializer$@@3P6AXXZA 004552f8     BuilderUI.obj
 0002:000002fc       ?rotationNormalAxisMag$initializer$@@3P6AXXZA 004552fc     BuilderUI.obj
 0002:00000300       ?screenDimensions$initializer$@@3P6AXXZA 00455300     GUIManager.obj
 0002:00000304       ?screenCenter$initializer$@@3P6AXXZA 00455304     GUIManager.obj
 0002:00000308       ?screenViewRadius$initializer$@@3P6AXXZA 00455308     GUIManager.obj
 0002:0000030c       ?rotationNormalAxis$initializer$@@3P6AXXZA 0045530c     GUIManager.obj
 0002:00000310       ?rotationNormalAxisMag$initializer$@@3P6AXXZA 00455310     GUIManager.obj
 0002:00000314       ?screenDimensions$initializer$@@3P6AXXZA 00455314     SpacecraftControls.obj
 0002:00000318       ?screenCenter$initializer$@@3P6AXXZA 00455318     SpacecraftControls.obj
 0002:0000031c       ?screenViewRadius$initializer$@@3P6AXXZA 0045531c     SpacecraftControls.obj
 0002:00000320       ?rotationNormalAxis$initializer$@@3P6AXXZA 00455320     SpacecraftControls.obj
 0002:00000324       ?rotationNormalAxisMag$initializer$@@3P6AXXZA 00455324     SpacecraftControls.obj
 0002:00000328       ?screenDimensions$initializer$@@3P6AXXZA 00455328     KSP2D.obj
 0002:0000032c       ?screenCenter$initializer$@@3P6AXXZA 0045532c     KSP2D.obj
 0002:00000330       ?screenViewRadius$initializer$@@3P6AXXZA 00455330     KSP2D.obj
 0002:00000334       ?rotationNormalAxis$initializer$@@3P6AXXZA 00455334     KSP2D.obj
 0002:00000338       ?rotationNormalAxisMag$initializer$@@3P6AXXZA 00455338     KSP2D.obj
 0002:0000033c       ?screenDimensions$initializer$@@3P6AXXZA 0045533c     main.obj
 0002:00000340       ?screenCenter$initializer$@@3P6AXXZA 00455340     main.obj
 0002:00000344       ?screenViewRadius$initializer$@@3P6AXXZA 00455344     main.obj
 0002:00000348       ?rotationNormalAxis$initializer$@@3P6AXXZA 00455348     main.obj
 0002:0000034c       ?rotationNormalAxisMag$initializer$@@3P6AXXZA 0045534c     main.obj
 0002:00000350       ?screenDimensions$initializer$@@3P6AXXZA 00455350     CelestialBody.obj
 0002:00000354       ?screenCenter$initializer$@@3P6AXXZA 00455354     CelestialBody.obj
 0002:00000358       ?screenViewRadius$initializer$@@3P6AXXZA 00455358     CelestialBody.obj
 0002:0000035c       ?rotationNormalAxis$initializer$@@3P6AXXZA 0045535c     CelestialBody.obj
 0002:00000360       ?rotationNormalAxisMag$initializer$@@3P6AXXZA 00455360     CelestialBody.obj
 0002:00000364       ?screenDimensions$initializer$@@3P6AXXZA 00455364     PhysObject.obj
 0002:00000368       ?screenCenter$initializer$@@3P6AXXZA 00455368     PhysObject.obj
 0002:0000036c       ?screenViewRadius$initializer$@@3P6AXXZA 0045536c     PhysObject.obj
 0002:00000370       ?rotationNormalAxis$initializer$@@3P6AXXZA 00455370     PhysObject.obj
 0002:00000374       ?rotationNormalAxisMag$initializer$@@3P6AXXZA 00455374     PhysObject.obj
 0002:00000378       ??G$initializer$@PhysBody@@2P6AXXZA@@3P6AXXZA 00455378     PhysObject.obj
 0002:0000037c       ?screenDimensions$initializer$@@3P6AXXZA 0045537c     PlanetObject.obj
 0002:00000380       ?screenCenter$initializer$@@3P6AXXZA 00455380     PlanetObject.obj
 0002:00000384       ?screenViewRadius$initializer$@@3P6AXXZA 00455384     PlanetObject.obj
 0002:00000388       ?rotationNormalAxis$initializer$@@3P6AXXZA 00455388     PlanetObject.obj
 0002:0000038c       ?rotationNormalAxisMag$initializer$@@3P6AXXZA 0045538c     PlanetObject.obj
 0002:00000390       ?screenDimensions$initializer$@@3P6AXXZA 00455390     SpacecraftParts.obj
 0002:00000394       ?screenCenter$initializer$@@3P6AXXZA 00455394     SpacecraftParts.obj
 0002:00000398       ?screenViewRadius$initializer$@@3P6AXXZA 00455398     SpacecraftParts.obj
 0002:0000039c       ?rotationNormalAxis$initializer$@@3P6AXXZA 0045539c     SpacecraftParts.obj
 0002:000003a0       ?rotationNormalAxisMag$initializer$@@3P6AXXZA 004553a0     SpacecraftParts.obj
 0002:000003a4       ?screenDimensions$initializer$@@3P6AXXZA 004553a4     BasicSpacecraft.obj
 0002:000003a8       ?screenCenter$initializer$@@3P6AXXZA 004553a8     BasicSpacecraft.obj
 0002:000003ac       ?screenViewRadius$initializer$@@3P6AXXZA 004553ac     BasicSpacecraft.obj
 0002:000003b0       ?rotationNormalAxis$initializer$@@3P6AXXZA 004553b0     BasicSpacecraft.obj
 0002:000003b4       ?rotationNormalAxisMag$initializer$@@3P6AXXZA 004553b4     BasicSpacecraft.obj
 0002:000003b8       ?screenDimensions$initializer$@@3P6AXXZA 004553b8     Spacecraft.obj
 0002:000003bc       ?screenCenter$initializer$@@3P6AXXZA 004553bc     Spacecraft.obj
 0002:000003c0       ?screenViewRadius$initializer$@@3P6AXXZA 004553c0     Spacecraft.obj
 0002:000003c4       ?rotationNormalAxis$initializer$@@3P6AXXZA 004553c4     Spacecraft.obj
 0002:000003c8       ?rotationNormalAxisMag$initializer$@@3P6AXXZA 004553c8     Spacecraft.obj
 0002:000003cc       ?nullMapping$initializer$@@3P6AXXZA 004553cc     SimpleImage.obj
 0002:000003d8       ?pre_c_initializer@@3P6AHXZA 004553d8     MSVCRTD:exe_main.obj
 0002:000003dc       ?post_pgo_initializer@@3P6AHXZA 004553dc     MSVCRTD:exe_main.obj
 0002:000003e0       ?__scrt_initialize_tss_var@@3P6AHXZA 004553e0     MSVCRTD:thread_safe_statics.obj
 0002:00000400       $SG97508                   00455400     BuilderUI.obj
 0002:0000040c       $SG97511                   0045540c     BuilderUI.obj
 0002:00000418       $SG97513                   00455418     BuilderUI.obj
 0002:00000424       $SG97515                   00455424     BuilderUI.obj
 0002:00000430       $SG97533                   00455430     BuilderUI.obj
 0002:00000440       $SG97534                   00455440     BuilderUI.obj
 0002:00004e04       ??_7?$_Func_impl_no_alloc@V<lambda_7c2dbb44a5d32349ebb3491b2c88eec0>@@X$$V@std@@6B@ 00459e04     BuilderUI.obj
 0002:00004e20       ??_7?$_Func_impl_no_alloc@V<lambda_3a905bc70563c738712533e87930e958>@@X$$V@std@@6B@ 00459e20     BuilderUI.obj
 0002:00004e3c       ??_7?$_Func_impl_no_alloc@V<lambda_8e08e5546d00afac20621fd5d0739336>@@X$$V@std@@6B@ 00459e3c     BuilderUI.obj
 0002:00006240       $SG96890                   0045b240     GUIManager.obj
 0002:00006244       $SG96961                   0045b244     GUIManager.obj
 0002:00006270       $SG94500                   0045b270     SpacecraftControls.obj
 0002:00006284       $SG94537                   0045b284     SpacecraftControls.obj
 0002:00006294       $SG94538                   0045b294     SpacecraftControls.obj
 0002:0000629c       $SG94539                   0045b29c     SpacecraftControls.obj
 0002:000062ac       $SG94540                   0045b2ac     SpacecraftControls.obj
 0002:000062b0       $SG94543                   0045b2b0     SpacecraftControls.obj
 0002:000062c0       $SG94544                   0045b2c0     SpacecraftControls.obj
 0002:0000665c       ??_7?$_Func_impl_no_alloc@V<lambda_7ea10a720369ab96e6aeba8866acc821>@@XO@std@@6B@ 0045b65c     SpacecraftControls.obj
 0002:00006678       ??_7?$_Func_impl_no_alloc@V<lambda_1947b0fcc41a160ce2363252446458a1>@@XO@std@@6B@ 0045b678     SpacecraftControls.obj
 0002:000066f8       $SG93365                   0045b6f8     KSP2D.obj
 0002:00006704       $SG93423                   0045b704     KSP2D.obj
 0002:00006714       $SG93424                   0045b714     KSP2D.obj
 0002:0000671c       $SG93425                   0045b71c     KSP2D.obj
 0002:00006720       $SG93427                   0045b720     KSP2D.obj
 0002:0000672c       $SG93428                   0045b72c     KSP2D.obj
 0002:00006738       $SG93429                   0045b738     KSP2D.obj
 0002:00006740       $SG93431                   0045b740     KSP2D.obj
 0002:00006750       $SG93432                   0045b750     KSP2D.obj
 0002:0000675c       $SG93433                   0045b75c     KSP2D.obj
 0002:00006768       $SG93435                   0045b768     KSP2D.obj
 0002:00006778       $SG93436                   0045b778     KSP2D.obj
 0002:00006780       $SG93437                   0045b780     KSP2D.obj
 0002:0000678c       $SG93439                   0045b78c     KSP2D.obj
 0002:0000679c       $SG93440                   0045b79c     KSP2D.obj
 0002:000067a4       $SG93441                   0045b7a4     KSP2D.obj
 0002:000067ac       $SG93443                   0045b7ac     KSP2D.obj
 0002:000067b8       $SG93444                   0045b7b8     KSP2D.obj
 0002:000067c0       $SG93445                   0045b7c0     KSP2D.obj
 0002:000067c8       $SG93447                   0045b7c8     KSP2D.obj
 0002:000067d8       $SG93448                   0045b7d8     KSP2D.obj
 0002:000067e4       $SG93449                   0045b7e4     KSP2D.obj
 0002:000067f4       $SG93451                   0045b7f4     KSP2D.obj
 0002:00006800       $SG93453                   0045b800     KSP2D.obj
 0002:0000680c       $SG93455                   0045b80c     KSP2D.obj
 0002:00006818       $SG93457                   0045b818     KSP2D.obj
 0002:00006820       $SG93458                   0045b820     KSP2D.obj
 0002:00006840       $SG93507                   0045b840     KSP2D.obj
 0002:0000685c       $SG93509                   0045b85c     KSP2D.obj
 0002:0000686c       $SG93510                   0045b86c     KSP2D.obj
 0002:00006880       $SG93618                   0045b880     KSP2D.obj
 0002:00006f00       $SG93387                   0045bf00     main.obj
 0002:00006f30       $SG93388                   0045bf30     main.obj
 0002:00006fe0       $SG43117                   0045bfe0     PhysObject.obj
 0002:00007128       $SG86614                   0045c128     KSPMetaManager.obj
 0002:00007168       $SG86615                   0045c168     KSPMetaManager.obj
 0002:0000716c       $SG86616                   0045c16c     KSPMetaManager.obj
 0002:00007178       $SG86618                   0045c178     KSPMetaManager.obj
 0002:00007180       $SG86619                   0045c180     KSPMetaManager.obj
 0002:00007188       $SG86620                   0045c188     KSPMetaManager.obj
 0002:00007190       $SG86621                   0045c190     KSPMetaManager.obj
 0002:00007198       $SG86622                   0045c198     KSPMetaManager.obj
 0002:000071a4       $SG86623                   0045c1a4     KSPMetaManager.obj
 0002:000071b0       $SG86624                   0045c1b0     KSPMetaManager.obj
 0002:000071b8       $SG86625                   0045c1b8     KSPMetaManager.obj
 0002:000071c4       $SG86626                   0045c1c4     KSPMetaManager.obj
 0002:000071d0       $SG86627                   0045c1d0     KSPMetaManager.obj
 0002:000071dc       $SG86628                   0045c1dc     KSPMetaManager.obj
 0002:000071e8       $SG86629                   0045c1e8     KSPMetaManager.obj
 0002:000071f0       $SG86630                   0045c1f0     KSPMetaManager.obj
 0002:000071f8       $SG86631                   0045c1f8     KSPMetaManager.obj
 0002:00007200       $SG86632                   0045c200     KSPMetaManager.obj
 0002:00007208       $SG86633                   0045c208     KSPMetaManager.obj
 0002:00007210       $SG86634                   0045c210     KSPMetaManager.obj
 0002:0000721c       $SG86635                   0045c21c     KSPMetaManager.obj
 0002:00007224       $SG86636                   0045c224     KSPMetaManager.obj
 0002:0000722c       $SG86637                   0045c22c     KSPMetaManager.obj
 0002:00007234       $SG86638                   0045c234     KSPMetaManager.obj
 0002:00007240       $SG86639                   0045c240     KSPMetaManager.obj
 0002:00007248       $SG86640                   0045c248     KSPMetaManager.obj
 0002:00007250       $SG86641                   0045c250     KSPMetaManager.obj
 0002:00007258       $SG86642                   0045c258     KSPMetaManager.obj
 0002:00007260       $SG86643                   0045c260     KSPMetaManager.obj
 0002:00007268       $SG86644                   0045c268     KSPMetaManager.obj
 0002:00007274       $SG86645                   0045c274     KSPMetaManager.obj
 0002:000072b4       $SG86834                   0045c2b4     KSPMetaManager.obj
 0002:000072c0       $SG86838                   0045c2c0     KSPMetaManager.obj
 0002:000072d0       $SG86842                   0045c2d0     KSPMetaManager.obj
 0002:000072dc       $SG86846                   0045c2dc     KSPMetaManager.obj
 0002:000072e8       $SG86850                   0045c2e8     KSPMetaManager.obj
 0002:000072f0       $SG86854                   0045c2f0     KSPMetaManager.obj
 0002:00007300       $SG86858                   0045c300     KSPMetaManager.obj
 0002:00007314       $SG86862                   0045c314     KSPMetaManager.obj
 0002:00007320       $SG86865                   0045c320     KSPMetaManager.obj
 0002:00007330       $SG86867                   0045c330     KSPMetaManager.obj
 0002:00007340       $SG86868                   0045c340     KSPMetaManager.obj
 0002:0000822c       $SG93418                   0045d22c     BasicSpacecraft.obj
 0002:00008310       $SG93404                   0045d310     Spacecraft.obj
 0002:00008498       $SG141606                  0045d498     BaseEngine.obj
 0002:000084c8       $SG141639                  0045d4c8     BaseEngine.obj
 0002:000087b4       $SG64417                   0045d7b4     FontManager.obj
 0002:000087d0       $SG64421                   0045d7d0     FontManager.obj
 0002:00008980       _Int32ToUInt32             0045d980     MSVCRTD:ftol3.obj
 0002:00008988       _DP2to32                   0045d988     MSVCRTD:ftol3.obj
 0002:00008990       _MantissaMask              0045d990     MSVCRTD:ftol3.obj
 0002:00008998       _IntegerBit                0045d998     MSVCRTD:ftol3.obj
 0002:000089a0       _SignBit64                 0045d9a0     MSVCRTD:ftol3.obj
 0002:000089a8       _MinFP64                   0045d9a8     MSVCRTD:ftol3.obj
 0002:000089b0       _MinInt64                  0045d9b0     MSVCRTD:ftol3.obj
 0002:000089b8       _MaxInt64                  0045d9b8     MSVCRTD:ftol3.obj
 0002:000089c0       _MaxUInt64                 0045d9c0     MSVCRTD:ftol3.obj
 0002:000089c8       _MaxFP32                   0045d9c8     MSVCRTD:ftol3.obj
 0002:000089d0       _MinFP32                   0045d9d0     MSVCRTD:ftol3.obj
 0002:000089d8       _MinSubInexact             0045d9d8     MSVCRTD:ftol3.obj
 0002:000089e0       _FpExcptTable              0045d9e0     MSVCRTD:ftol3.obj
 0002:000089f0       _i1075                     0045d9f0     MSVCRTD:ftol3.obj
 0002:000089f4       _i1087                     0045d9f4     MSVCRTD:ftol3.obj
 0002:000089f8       _x0800                     0045d9f8     MSVCRTD:ftol3.obj
 0002:000089fc       _x17FF                     0045d9fc     MSVCRTD:ftol3.obj
 0002:00008a00       _CWMask                    0045da00     MSVCRTD:ftol3.obj
 0002:00008a6c       _GS_ExceptionPointers      0045da6c     MSVCRTD:gs_report.obj
 0002:00008e44       ??_R4?$_Func_impl_no_alloc@V<lambda_7c2dbb44a5d32349ebb3491b2c88eec0>@@X$$V@std@@6B@ 0045de44     BuilderUI.obj
 0002:00008e58       ??_R3?$_Func_impl_no_alloc@V<lambda_7c2dbb44a5d32349ebb3491b2c88eec0>@@X$$V@std@@8 0045de58     BuilderUI.obj
 0002:00008e68       ??_R2?$_Func_impl_no_alloc@V<lambda_7c2dbb44a5d32349ebb3491b2c88eec0>@@X$$V@std@@8 0045de68     BuilderUI.obj
 0002:00008e74       ??_R1A@?0A@EA@?$_Func_impl_no_alloc@V<lambda_7c2dbb44a5d32349ebb3491b2c88eec0>@@X$$V@std@@8 0045de74     BuilderUI.obj
 0002:00008e90       ??_R4?$_Func_impl_no_alloc@V<lambda_3a905bc70563c738712533e87930e958>@@X$$V@std@@6B@ 0045de90     BuilderUI.obj
 0002:00008ea4       ??_R3?$_Func_impl_no_alloc@V<lambda_3a905bc70563c738712533e87930e958>@@X$$V@std@@8 0045dea4     BuilderUI.obj
 0002:00008eb4       ??_R2?$_Func_impl_no_alloc@V<lambda_3a905bc70563c738712533e87930e958>@@X$$V@std@@8 0045deb4     BuilderUI.obj
 0002:00008ec0       ??_R1A@?0A@EA@?$_Func_impl_no_alloc@V<lambda_3a905bc70563c738712533e87930e958>@@X$$V@std@@8 0045dec0     BuilderUI.obj
 0002:00008edc       ??_R4?$_Func_impl_no_alloc@V<lambda_8e08e5546d00afac20621fd5d0739336>@@X$$V@std@@6B@ 0045dedc     BuilderUI.obj
 0002:00008ef0       ??_R3?$_Func_impl_no_alloc@V<lambda_8e08e5546d00afac20621fd5d0739336>@@X$$V@std@@8 0045def0     BuilderUI.obj
 0002:00008f00       ??_R2?$_Func_impl_no_alloc@V<lambda_8e08e5546d00afac20621fd5d0739336>@@X$$V@std@@8 0045df00     BuilderUI.obj
 0002:00008f0c       ??_R1A@?0A@EA@?$_Func_impl_no_alloc@V<lambda_8e08e5546d00afac20621fd5d0739336>@@X$$V@std@@8 0045df0c     BuilderUI.obj
 0002:000090a0       ??_R4?$_Func_impl_no_alloc@V<lambda_7ea10a720369ab96e6aeba8866acc821>@@XO@std@@6B@ 0045e0a0     SpacecraftControls.obj
 0002:000090b4       ??_R3?$_Func_impl_no_alloc@V<lambda_7ea10a720369ab96e6aeba8866acc821>@@XO@std@@8 0045e0b4     SpacecraftControls.obj
 0002:000090c4       ??_R2?$_Func_impl_no_alloc@V<lambda_7ea10a720369ab96e6aeba8866acc821>@@XO@std@@8 0045e0c4     SpacecraftControls.obj
 0002:000090d0       ??_R1A@?0A@EA@?$_Func_impl_no_alloc@V<lambda_7ea10a720369ab96e6aeba8866acc821>@@XO@std@@8 0045e0d0     SpacecraftControls.obj
 0002:000090ec       ??_R4?$_Func_impl_no_alloc@V<lambda_1947b0fcc41a160ce2363252446458a1>@@XO@std@@6B@ 0045e0ec     SpacecraftControls.obj
 0002:00009100       ??_R3?$_Func_impl_no_alloc@V<lambda_1947b0fcc41a160ce2363252446458a1>@@XO@std@@8 0045e100     SpacecraftControls.obj
 0002:00009110       ??_R2?$_Func_impl_no_alloc@V<lambda_1947b0fcc41a160ce2363252446458a1>@@XO@std@@8 0045e110     SpacecraftControls.obj
 0002:0000911c       ??_R1A@?0A@EA@?$_Func_impl_no_alloc@V<lambda_1947b0fcc41a160ce2363252446458a1>@@XO@std@@8 0045e11c     SpacecraftControls.obj
 0002:0000a550       __ehfuncinfo$?_Orphan_all@_Container_base12@std@@QAEXXZ 0045f550     BuilderUI.obj
 0002:0000a574       __ehfuncinfo$?_Swap_all@_Container_base12@std@@QAEXAAU12@@Z 0045f574     BuilderUI.obj
 0002:0000a598       __ehfuncinfo$??4_Iterator_base12@std@@QAEAAU01@ABU01@@Z 0045f598     BuilderUI.obj
 0002:0000a5bc       __ehfuncinfo$??1_Iterator_base12@std@@QAE@XZ 0045f5bc     BuilderUI.obj
 0002:0000a5e0       __ehfuncinfo$?_Adopt@_Iterator_base12@std@@QAEXPBU_Container_base12@2@@Z 0045f5e0     BuilderUI.obj
 0002:0000a604       __unwindtable$??0?$_String_alloc@U?$_String_base_types@DV?$allocator@D@std@@@std@@@std@@QAE@XZ 0045f604     BuilderUI.obj
 0002:0000a60c       __ehfuncinfo$??0?$_String_alloc@U?$_String_base_types@DV?$allocator@D@std@@@std@@@std@@QAE@XZ 0045f60c     BuilderUI.obj
 0002:0000a630       __ehfuncinfo$??1?$_String_alloc@U?$_String_base_types@DV?$allocator@D@std@@@std@@@std@@QAE@XZ 0045f630     BuilderUI.obj
 0002:0000a654       __unwindtable$??0?$basic_string@DU?$char_traits@D@std@@V?$allocator@D@2@@std@@QAE@ABV01@@Z 0045f654     BuilderUI.obj
 0002:0000a65c       __ehfuncinfo$??0?$basic_string@DU?$char_traits@D@std@@V?$allocator@D@2@@std@@QAE@ABV01@@Z 0045f65c     BuilderUI.obj
 0002:0000a680       __ehfuncinfo$??0?$basic_string@DU?$char_traits@D@std@@V?$allocator@D@2@@std@@QAE@XZ 0045f680     BuilderUI.obj
 0002:0000a6a4       __unwindtable$??0?$basic_string@DU?$char_traits@D@std@@V?$allocator@D@2@@std@@QAE@QBD@Z 0045f6a4     BuilderUI.obj
 0002:0000a6ac       __ehfuncinfo$??0?$basic_string@DU?$char_traits@D@std@@V?$allocator@D@2@@std@@QAE@QBD@Z 0045f6ac     BuilderUI.obj
 0002:0000a6d0       __ehfuncinfo$??0?$basic_string@DU?$char_traits@D@std@@V?$allocator@D@2@@std@@QAE@$$QAV01@@Z 0045f6d0     BuilderUI.obj
 0002:0000a6f4       __ehfuncinfo$?_Assign_rv_contents_with_alloc_always_equal@?$basic_string@DU?$char_traits@D@std@@V?$allocator@D@2@@std@@QAEX$$QAV12@U?$integral_constant@_N$00@2@@Z 0045f6f4     BuilderUI.obj
 0002:0000a718       __ehfuncinfo$??1?$basic_string@DU?$char_traits@D@std@@V?$allocator@D@2@@std@@QAE@XZ 0045f718     BuilderUI.obj
 0002:0000a73c       __ehfuncinfo$?_Unchecked_begin@?$basic_string@DU?$char_traits@D@std@@V?$allocator@D@2@@std@@QAEPADXZ 0045f73c     BuilderUI.obj
 0002:0000a760       __ehfuncinfo$?_Unchecked_end@?$basic_string@DU?$char_traits@D@std@@V?$allocator@D@2@@std@@QAEPADXZ 0045f760     BuilderUI.obj
 0002:0000a784       __ehfuncinfo$?c_str@?$basic_string@DU?$char_traits@D@std@@V?$allocator@D@2@@std@@QBEPBDXZ 0045f784     BuilderUI.obj
 0002:0000a7a8       __ehfuncinfo$?data@?$basic_string@DU?$char_traits@D@std@@V?$allocator@D@2@@std@@QBEPBDXZ 0045f7a8     BuilderUI.obj
 0002:0000a7cc       __ehfuncinfo$?_Equal@?$basic_string@DU?$char_traits@D@std@@V?$allocator@D@2@@std@@QBE_NABV12@@Z 0045f7cc     BuilderUI.obj
 0002:0000a7f0       __ehfuncinfo$?compare@?$basic_string@DU?$char_traits@D@std@@V?$allocator@D@2@@std@@QBEHABV12@@Z 0045f7f0     BuilderUI.obj
 0002:0000a814       __ehfuncinfo$?_Use_count@_Ref_count_base@std@@QBEJXZ 0045f814     BuilderUI.obj
 0002:0000a838       __catchsym$??$?6U?$char_traits@D@std@@@std@@YAAAV?$basic_ostream@DU?$char_traits@D@std@@@0@AAV10@PBD@Z$3 0045f838     BuilderUI.obj
 0002:0000a848       __tryblocktable$??$?6U?$char_traits@D@std@@@std@@YAAAV?$basic_ostream@DU?$char_traits@D@std@@@0@AAV10@PBD@Z 0045f848     BuilderUI.obj
 0002:0000a85c       __unwindtable$??$?6U?$char_traits@D@std@@@std@@YAAAV?$basic_ostream@DU?$char_traits@D@std@@@0@AAV10@PBD@Z 0045f85c     BuilderUI.obj
 0002:0000a874       __ehfuncinfo$??$?6U?$char_traits@D@std@@@std@@YAAAV?$basic_ostream@DU?$char_traits@D@std@@@0@AAV10@PBD@Z 0045f874     BuilderUI.obj
 0002:0000a898       __unwindtable$?removeDisplayableObject@DisplayableObjectContainer@@QAE_NPAVDisplayableObject@@@Z 0045f898     BuilderUI.obj
 0002:0000a8a8       __ehfuncinfo$?removeDisplayableObject@DisplayableObjectContainer@@QAE_NPAVDisplayableObject@@@Z 0045f8a8     BuilderUI.obj
 0002:0000a8cc       __unwindtable$?erase@?$vector@PAVDisplayableObject@@V?$allocator@PAVDisplayableObject@@@std@@@std@@QAE?AV?$_Vector_iterator@V?$_Vector_val@U?$_Simple_types@PAVDisplayableObject@@@std@@@std@@@2@V?$_Vector_const_iterator@V?$_Vector_val@U?$_Simple_types@PAVDisplayableObject@@@std@@@std@@@2@@Z 0045f8cc     BuilderUI.obj
 0002:0000a8d4       __ehfuncinfo$?erase@?$vector@PAVDisplayableObject@@V?$allocator@PAVDisplayableObject@@@std@@@std@@QAE?AV?$_Vector_iterator@V?$_Vector_val@U?$_Simple_types@PAVDisplayableObject@@@std@@@std@@@2@V?$_Vector_const_iterator@V?$_Vector_val@U?$_Simple_types@PAVDisplayableObject@@@std@@@std@@@2@@Z 0045f8d4     BuilderUI.obj
 0002:0000a8f8       __ehfuncinfo$?begin@?$vector@PAVDisplayableObject@@V?$allocator@PAVDisplayableObject@@@std@@@std@@QAE?AV?$_Vector_iterator@V?$_Vector_val@U?$_Simple_types@PAVDisplayableObject@@@std@@@std@@@2@XZ 0045f8f8     BuilderUI.obj
 0002:0000a91c       __ehfuncinfo$?end@?$vector@PAVDisplayableObject@@V?$allocator@PAVDisplayableObject@@@std@@@std@@QAE?AV?$_Vector_iterator@V?$_Vector_val@U?$_Simple_types@PAVDisplayableObject@@@std@@@std@@@2@XZ 0045f91c     BuilderUI.obj
 0002:0000a940       __unwindtable$?_Orphan_range@?$vector@PAVDisplayableObject@@V?$allocator@PAVDisplayableObject@@@std@@@std@@ABEXPAPAVDisplayableObject@@0@Z 0045f940     BuilderUI.obj
 0002:0000a948       __ehfuncinfo$?_Orphan_range@?$vector@PAVDisplayableObject@@V?$allocator@PAVDisplayableObject@@@std@@@std@@ABEXPAPAVDisplayableObject@@0@Z 0045f948     BuilderUI.obj
 0002:0000a96c       __unwindtable$??$find@V?$_Vector_iterator@V?$_Vector_val@U?$_Simple_types@PAVDisplayableObject@@@std@@@std@@@std@@PAVDisplayableObject@@@std@@YA?AV?$_Vector_iterator@V?$_Vector_val@U?$_Simple_types@PAVDisplayableObject@@@std@@@std@@@0@V10@V10@ABQAVDisplayableObject@@@Z 0045f96c     BuilderUI.obj
 0002:0000a97c       __ehfuncinfo$??$find@V?$_Vector_iterator@V?$_Vector_val@U?$_Simple_types@PAVDisplayableObject@@@std@@@std@@@std@@PAVDisplayableObject@@@std@@YA?AV?$_Vector_iterator@V?$_Vector_val@U?$_Simple_types@PAVDisplayableObject@@@std@@@std@@@0@V10@V10@ABQAVDisplayableObject@@@Z 0045f97c     BuilderUI.obj
 0002:0000a9a0       __unwindtable$??0RawImageData@@QAE@V?$basic_string@DU?$char_traits@D@std@@V?$allocator@D@2@@std@@@Z 0045f9a0     BuilderUI.obj
 0002:0000a9a8       __ehfuncinfo$??0RawImageData@@QAE@V?$basic_string@DU?$char_traits@D@std@@V?$allocator@D@2@@std@@@Z 0045f9a8     BuilderUI.obj
 0002:0000a9cc       __ehfuncinfo$??1RawImageData@@QAE@XZ 0045f9cc     BuilderUI.obj
 0002:0000a9f0       __unwindtable$?loadImage@RawImageData@@QAE_NV?$basic_string@DU?$char_traits@D@std@@V?$allocator@D@2@@std@@HHHHH_N@Z 0045f9f0     BuilderUI.obj
 0002:0000a9f8       __ehfuncinfo$?loadImage@RawImageData@@QAE_NV?$basic_string@DU?$char_traits@D@std@@V?$allocator@D@2@@std@@HHHHH_N@Z 0045f9f8     BuilderUI.obj
 0002:0000aa1c       __ehfuncinfo$??0?$shared_ptr@VRawImageData@@@std@@QAE@ABV01@@Z 0045fa1c     BuilderUI.obj
 0002:0000aa40       __ehfuncinfo$??0?$shared_ptr@VRawImageData@@@std@@QAE@$$QAV01@@Z 0045fa40     BuilderUI.obj
 0002:0000aa64       __ehfuncinfo$??1?$shared_ptr@VRawImageData@@@std@@QAE@XZ 0045fa64     BuilderUI.obj
 0002:0000aa88       __unwindtable$?StrtodDiyFp@internal@rapidjson@@YA_NPBDHHPAN@Z 0045fa88     BuilderUI.obj
 0002:0000aa90       __ehfuncinfo$?StrtodDiyFp@internal@rapidjson@@YA_NPBDHHPAN@Z 0045fa90     BuilderUI.obj
 0002:0000aab4       __catchsym$?_Construct@?$_Tree_comp_alloc@V?$_Tmap_traits@V?$basic_string@DU?$char_traits@D@std@@V?$allocator@D@2@@std@@V?$weak_ptr@VRawImageData@@@2@U?$less@V?$basic_string@DU?$char_traits@D@std@@V?$allocator@D@2@@std@@@2@V?$allocator@U?$pair@$$CBV?$basic_string@DU?$char_traits@D@std@@V?$allocator@D@2@@std@@V?$weak_ptr@VRawImageData@@@2@@std@@@2@$0A@@std@@@std@@QAEXXZ$2 0045fab4     BuilderUI.obj
 0002:0000aac4       __unwindtable$?_Construct@?$_Tree_comp_alloc@V?$_Tmap_traits@V?$basic_string@DU?$char_traits@D@std@@V?$allocator@D@2@@std@@V?$weak_ptr@VRawImageData@@@2@U?$less@V?$basic_string@DU?$char_traits@D@std@@V?$allocator@D@2@@std@@@2@V?$allocator@U?$pair@$$CBV?$basic_string@DU?$char_traits@D@std@@V?$allocator@D@2@@std@@V?$weak_ptr@VRawImageData@@@2@@std@@@2@$0A@@std@@@std@@QAEXXZ 0045fac4     BuilderUI.obj
 0002:0000aad4       __tryblocktable$?_Construct@?$_Tree_comp_alloc@V?$_Tmap_traits@V?$basic_string@DU?$char_traits@D@std@@V?$allocator@D@2@@std@@V?$weak_ptr@VRawImageData@@@2@U?$less@V?$basic_string@DU?$char_traits@D@std@@V?$allocator@D@2@@std@@@2@V?$allocator@U?$pair@$$CBV?$basic_string@DU?$char_traits@D@std@@V?$allocator@D@2@@std@@V?$weak_ptr@VRawImageData@@@2@@std@@@2@$0A@@std@@@std@@QAEXXZ 0045fad4     BuilderUI.obj
 0002:0000aae8       __ehfuncinfo$?_Construct@?$_Tree_comp_alloc@V?$_Tmap_traits@V?$basic_string@DU?$char_traits@D@std@@V?$allocator@D@2@@std@@V?$weak_ptr@VRawImageData@@@2@U?$less@V?$basic_string@DU?$char_traits@D@std@@V?$allocator@D@2@@std@@@2@V?$allocator@U?$pair@$$CBV?$basic_string@DU?$char_traits@D@std@@V?$allocator@D@2@@std@@V?$weak_ptr@VRawImageData@@@2@@std@@@2@$0A@@std@@@std@@QAEXXZ 0045fae8     BuilderUI.obj
 0002:0000ab0c       __ehfuncinfo$??1?$_Tree_comp_alloc@V?$_Tmap_traits@V?$basic_string@DU?$char_traits@D@std@@V?$allocator@D@2@@std@@V?$weak_ptr@VRawImageData@@@2@U?$less@V?$basic_string@DU?$char_traits@D@std@@V?$allocator@D@2@@std@@@2@V?$allocator@U?$pair@$$CBV?$basic_string@DU?$char_traits@D@std@@V?$allocator@D@2@@std@@V?$weak_ptr@VRawImageData@@@2@@std@@@2@$0A@@std@@@std@@QAE@XZ 0045fb0c     BuilderUI.obj
 0002:0000ab30       __catchsym$?_Buyheadnode@?$_Tree_comp_alloc@V?$_Tmap_traits@V?$basic_string@DU?$char_traits@D@std@@V?$allocator@D@2@@std@@V?$weak_ptr@VRawImageData@@@2@U?$less@V?$basic_string@DU?$char_traits@D@std@@V?$allocator@D@2@@std@@@2@V?$allocator@U?$pair@$$CBV?$basic_string@DU?$char_traits@D@std@@V?$allocator@D@2@@std@@V?$weak_ptr@VRawImageData@@@2@@std@@@2@$0A@@std@@@std@@QAEPAU?$_Tree_node@U?$pair@$$CBV?$basic_string@DU?$char_traits@D@std@@V?$allocator@D@2@@std@@V?$weak_ptr@VRawImageData@@@2@@std@@PAX@2@XZ$2 0045fb30     BuilderUI.obj
 0002:0000ab40       __unwindtable$?_Buyheadnode@?$_Tree_comp_alloc@V?$_Tmap_traits@V?$basic_string@DU?$char_traits@D@std@@V?$allocator@D@2@@std@@V?$weak_ptr@VRawImageData@@@2@U?$less@V?$basic_string@DU?$char_traits@D@std@@V?$allocator@D@2@@std@@@2@V?$allocator@U?$pair@$$CBV?$basic_string@DU?$char_traits@D@std@@V?$allocator@D@2@@std@@V?$weak_ptr@VRawImageData@@@2@@std@@@2@$0A@@std@@@std@@QAEPAU?$_Tree_node@U?$pair@$$CBV?$basic_string@DU?$char_traits@D@std@@V?$allocator@D@2@@std@@V?$weak_ptr@VRawImageData@@@2@@std@@PAX@2@XZ 0045fb40     BuilderUI.obj
 0002:0000ab50       __tryblocktable$?_Buyheadnode@?$_Tree_comp_alloc@V?$_Tmap_traits@V?$basic_string@DU?$char_traits@D@std@@V?$allocator@D@2@@std@@V?$weak_ptr@VRawImageData@@@2@U?$less@V?$basic_string@DU?$char_traits@D@std@@V?$allocator@D@2@@std@@@2@V?$allocator@U?$pair@$$CBV?$basic_string@DU?$char_traits@D@std@@V?$allocator@D@2@@std@@V?$weak_ptr@VRawImageData@@@2@@std@@@2@$0A@@std@@@std@@QAEPAU?$_Tree_node@U?$pair@$$CBV?$basic_string@DU?$char_traits@D@std@@V?$allocator@D@2@@std@@V?$weak_ptr@VRawImageData@@@2@@std@@PAX@2@XZ 0045fb50     BuilderUI.obj
 0002:0000ab64       __ehfuncinfo$?_Buyheadnode@?$_Tree_comp_alloc@V?$_Tmap_traits@V?$basic_string@DU?$char_traits@D@std@@V?$allocator@D@2@@std@@V?$weak_ptr@VRawImageData@@@2@U?$less@V?$basic_string@DU?$char_traits@D@std@@V?$allocator@D@2@@std@@@2@V?$allocator@U?$pair@$$CBV?$basic_string@DU?$char_traits@D@std@@V?$allocator@D@2@@std@@V?$weak_ptr@VRawImageData@@@2@@std@@@2@$0A@@std@@@std@@QAEPAU?$_Tree_node@U?$pair@$$CBV?$basic_string@DU?$char_traits@D@std@@V?$allocator@D@2@@std@@V?$weak_ptr@VRawImageData@@@2@@std@@PAX@2@XZ 0045fb64     BuilderUI.obj
 0002:0000ab88       __catchsym$?_Buynode0@?$_Tree_comp_alloc@V?$_Tmap_traits@V?$basic_string@DU?$char_traits@D@std@@V?$allocator@D@2@@std@@V?$weak_ptr@VRawImageData@@@2@U?$less@V?$basic_string@DU?$char_traits@D@std@@V?$allocator@D@2@@std@@@2@V?$allocator@U?$pair@$$CBV?$basic_string@DU?$char_traits@D@std@@V?$allocator@D@2@@std@@V?$weak_ptr@VRawImageData@@@2@@std@@@2@$0A@@std@@@std@@QAEPAU?$_Tree_node@U?$pair@$$CBV?$basic_string@DU?$char_traits@D@std@@V?$allocator@D@2@@std@@V?$weak_ptr@VRawImageData@@@2@@std@@PAX@2@XZ$2 0045fb88     BuilderUI.obj
 0002:0000ab98       __unwindtable$?_Buynode0@?$_Tree_comp_alloc@V?$_Tmap_traits@V?$basic_string@DU?$char_traits@D@std@@V?$allocator@D@2@@std@@V?$weak_ptr@VRawImageData@@@2@U?$less@V?$basic_string@DU?$char_traits@D@std@@V?$allocator@D@2@@std@@@2@V?$allocator@U?$pair@$$CBV?$basic_string@DU?$char_traits@D@std@@V?$allocator@D@2@@std@@V?$weak_ptr@VRawImageData@@@2@@std@@@2@$0A@@std@@@std@@QAEPAU?$_Tree_node@U?$pair@$$CBV?$basic_string@DU?$char_traits@D@std@@V?$allocator@D@2@@std@@V?$weak_ptr@VRawImageData@@@2@@std@@PAX@2@XZ 0045fb98     BuilderUI.obj
 0002:0000aba8       __tryblocktable$?_Buynode0@?$_Tree_comp_alloc@V?$_Tmap_traits@V?$basic_string@DU?$char_traits@D@std@@V?$allocator@D@2@@std@@V?$weak_ptr@VRawImageData@@@2@U?$less@V?$basic_string@DU?$char_traits@D@std@@V?$allocator@D@2@@std@@@2@V?$allocator@U?$pair@$$CBV?$basic_string@DU?$char_traits@D@std@@V?$allocator@D@2@@std@@V?$weak_ptr@VRawImageData@@@2@@std@@@2@$0A@@std@@@std@@QAEPAU?$_Tree_node@U?$pair@$$CBV?$basic_string@DU?$char_traits@D@std@@V?$allocator@D@2@@std@@V?$weak_ptr@VRawImageData@@@2@@std@@PAX@2@XZ 0045fba8     BuilderUI.obj
 0002:0000abbc       __ehfuncinfo$?_Buynode0@?$_Tree_comp_alloc@V?$_Tmap_traits@V?$basic_string@DU?$char_traits@D@std@@V?$allocator@D@2@@std@@V?$weak_ptr@VRawImageData@@@2@U?$less@V?$basic_string@DU?$char_traits@D@std@@V?$allocator@D@2@@std@@@2@V?$allocator@U?$pair@$$CBV?$basic_string@DU?$char_traits@D@std@@V?$allocator@D@2@@std@@V?$weak_ptr@VRawImageData@@@2@@std@@@2@$0A@@std@@@std@@QAEPAU?$_Tree_node@U?$pair@$$CBV?$basic_string@DU?$char_traits@D@std@@V?$allocator@D@2@@std@@V?$weak_ptr@VRawImageData@@@2@@std@@PAX@2@XZ 0045fbbc     BuilderUI.obj
 0002:0000abe0       __unwindtable$?_Extract@?$_Tree_val@U?$_Tree_simple_types@U?$pair@$$CBV?$basic_string@DU?$char_traits@D@std@@V?$allocator@D@2@@std@@V?$weak_ptr@VRawImageData@@@2@@std@@@std@@@std@@QAEPAU?$_Tree_node@U?$pair@$$CBV?$basic_string@DU?$char_traits@D@std@@V?$allocator@D@2@@std@@V?$weak_ptr@VRawImageData@@@2@@std@@PAX@2@V?$_Tree_const_iterator@V?$_Tree_val@U?$_Tree_simple_types@U?$pair@$$CBV?$basic_string@DU?$char_traits@D@std@@V?$allocator@D@2@@std@@V?$weak_ptr@VRawImageData@@@2@@std@@@std@@@std@@@2@@Z 0045fbe0     BuilderUI.obj
 0002:0000abe8       __ehfuncinfo$?_Extract@?$_Tree_val@U?$_Tree_simple_types@U?$pair@$$CBV?$basic_string@DU?$char_traits@D@std@@V?$allocator@D@2@@std@@V?$weak_ptr@VRawImageData@@@2@@std@@@std@@@std@@QAEPAU?$_Tree_node@U?$pair@$$CBV?$basic_string@DU?$char_traits@D@std@@V?$allocator@D@2@@std@@V?$weak_ptr@VRawImageData@@@2@@std@@PAX@2@V?$_Tree_const_iterator@V?$_Tree_val@U?$_Tree_simple_types@U?$pair@$$CBV?$basic_string@DU?$char_traits@D@std@@V?$allocator@D@2@@std@@V?$weak_ptr@VRawImageData@@@2@@std@@@std@@@std@@@2@@Z 0045fbe8     BuilderUI.obj
 0002:0000ac0c       __ehfuncinfo$??1?$_Tree@V?$_Tmap_traits@V?$basic_string@DU?$char_traits@D@std@@V?$allocator@D@2@@std@@V?$weak_ptr@VRawImageData@@@2@U?$less@V?$basic_string@DU?$char_traits@D@std@@V?$allocator@D@2@@std@@@2@V?$allocator@U?$pair@$$CBV?$basic_string@DU?$char_traits@D@std@@V?$allocator@D@2@@std@@V?$weak_ptr@VRawImageData@@@2@@std@@@2@$0A@@std@@@std@@QAE@XZ 0045fc0c     BuilderUI.obj
 0002:0000ac30       __ehfuncinfo$?begin@?$_Tree@V?$_Tmap_traits@V?$basic_string@DU?$char_traits@D@std@@V?$allocator@D@2@@std@@V?$weak_ptr@VRawImageData@@@2@U?$less@V?$basic_string@DU?$char_traits@D@std@@V?$allocator@D@2@@std@@@2@V?$allocator@U?$pair@$$CBV?$basic_string@DU?$char_traits@D@std@@V?$allocator@D@2@@std@@V?$weak_ptr@VRawImageData@@@2@@std@@@2@$0A@@std@@@std@@QAE?AV?$_Tree_iterator@V?$_Tree_val@U?$_Tree_simple_types@U?$pair@$$CBV?$basic_string@DU?$char_traits@D@std@@V?$allocator@D@2@@std@@V?$weak_ptr@VRawImageData@@@2@@std@@@std@@@std@@@2@XZ 0045fc30     BuilderUI.obj
 0002:0000ac54       __ehfuncinfo$?end@?$_Tree@V?$_Tmap_traits@V?$basic_string@DU?$char_traits@D@std@@V?$allocator@D@2@@std@@V?$weak_ptr@VRawImageData@@@2@U?$less@V?$basic_string@DU?$char_traits@D@std@@V?$allocator@D@2@@std@@@2@V?$allocator@U?$pair@$$CBV?$basic_string@DU?$char_traits@D@std@@V?$allocator@D@2@@std@@V?$weak_ptr@VRawImageData@@@2@@std@@@2@$0A@@std@@@std@@QAE?AV?$_Tree_iterator@V?$_Tree_val@U?$_Tree_simple_types@U?$pair@$$CBV?$basic_string@DU?$char_traits@D@std@@V?$allocator@D@2@@std@@V?$weak_ptr@VRawImageData@@@2@@std@@@std@@@std@@@2@XZ 0045fc54     BuilderUI.obj
 0002:0000ac78       __unwindtable$?erase@?$_Tree@V?$_Tmap_traits@V?$basic_string@DU?$char_traits@D@std@@V?$allocator@D@2@@std@@V?$weak_ptr@VRawImageData@@@2@U?$less@V?$basic_string@DU?$char_traits@D@std@@V?$allocator@D@2@@std@@@2@V?$allocator@U?$pair@$$CBV?$basic_string@DU?$char_traits@D@std@@V?$allocator@D@2@@std@@V?$weak_ptr@VRawImageData@@@2@@std@@@2@$0A@@std@@@std@@QAE?AV?$_Tree_iterator@V?$_Tree_val@U?$_Tree_simple_types@U?$pair@$$CBV?$basic_string@DU?$char_traits@D@std@@V?$allocator@D@2@@std@@V?$weak_ptr@VRawImageData@@@2@@std@@@std@@@std@@@2@V?$_Tree_const_iterator@V?$_Tree_val@U?$_Tree_simple_types@U?$pair@$$CBV?$basic_string@DU?$char_traits@D@std@@V?$allocator@D@2@@std@@V?$weak_ptr@VRawImageData@@@2@@std@@@std@@@std@@@2@@Z 0045fc78     BuilderUI.obj
 0002:0000ac88       __ehfuncinfo$?erase@?$_Tree@V?$_Tmap_traits@V?$basic_string@DU?$char_traits@D@std@@V?$allocator@D@2@@std@@V?$weak_ptr@VRawImageData@@@2@U?$less@V?$basic_string@DU?$char_traits@D@std@@V?$allocator@D@2@@std@@@2@V?$allocator@U?$pair@$$CBV?$basic_string@DU?$char_traits@D@std@@V?$allocator@D@2@@std@@V?$weak_ptr@VRawImageData@@@2@@std@@@2@$0A@@std@@@std@@QAE?AV?$_Tree_iterator@V?$_Tree_val@U?$_Tree_simple_types@U?$pair@$$CBV?$basic_string@DU?$char_traits@D@std@@V?$allocator@D@2@@std@@V?$weak_ptr@VRawImageData@@@2@@std@@@std@@@std@@@2@V?$_Tree_const_iterator@V?$_Tree_val@U?$_Tree_simple_types@U?$pair@$$CBV?$basic_string@DU?$char_traits@D@std@@V?$allocator@D@2@@std@@V?$weak_ptr@VRawImageData@@@2@@std@@@std@@@std@@@2@@Z 0045fc88     BuilderUI.obj
 0002:0000acac       __unwindtable$?erase@?$_Tree@V?$_Tmap_traits@V?$basic_string@DU?$char_traits@D@std@@V?$allocator@D@2@@std@@V?$weak_ptr@VRawImageData@@@2@U?$less@V?$basic_string@DU?$char_traits@D@std@@V?$allocator@D@2@@std@@@2@V?$allocator@U?$pair@$$CBV?$basic_string@DU?$char_traits@D@std@@V?$allocator@D@2@@std@@V?$weak_ptr@VRawImageData@@@2@@std@@@2@$0A@@std@@@std@@QAE?AV?$_Tree_iterator@V?$_Tree_val@U?$_Tree_simple_types@U?$pair@$$CBV?$basic_string@DU?$char_traits@D@std@@V?$allocator@D@2@@std@@V?$weak_ptr@VRawImageData@@@2@@std@@@std@@@std@@@2@V?$_Tree_const_iterator@V?$_Tree_val@U?$_Tree_simple_types@U?$pair@$$CBV?$basic_string@DU?$char_traits@D@std@@V?$allocator@D@2@@std@@V?$weak_ptr@VRawImageData@@@2@@std@@@std@@@std@@@2@0@Z 0045fcac     BuilderUI.obj
 0002:0000accc       __ehfuncinfo$?erase@?$_Tree@V?$_Tmap_traits@V?$basic_string@DU?$char_traits@D@std@@V?$allocator@D@2@@std@@V?$weak_ptr@VRawImageData@@@2@U?$less@V?$basic_string@DU?$char_traits@D@std@@V?$allocator@D@2@@std@@@2@V?$allocator@U?$pair@$$CBV?$basic_string@DU?$char_traits@D@std@@V?$allocator@D@2@@std@@V?$weak_ptr@VRawImageData@@@2@@std@@@2@$0A@@std@@@std@@QAE?AV?$_Tree_iterator@V?$_Tree_val@U?$_Tree_simple_types@U?$pair@$$CBV?$basic_string@DU?$char_traits@D@std@@V?$allocator@D@2@@std@@V?$weak_ptr@VRawImageData@@@2@@std@@@std@@@std@@@2@V?$_Tree_const_iterator@V?$_Tree_val@U?$_Tree_simple_types@U?$pair@$$CBV?$basic_string@DU?$char_traits@D@std@@V?$allocator@D@2@@std@@V?$weak_ptr@VRawImageData@@@2@@std@@@std@@@std@@@2@0@Z 0045fccc     BuilderUI.obj
 0002:0000acf0       __ehfuncinfo$?clear@?$_Tree@V?$_Tmap_traits@V?$basic_string@DU?$char_traits@D@std@@V?$allocator@D@2@@std@@V?$weak_ptr@VRawImageData@@@2@U?$less@V?$basic_string@DU?$char_traits@D@std@@V?$allocator@D@2@@std@@@2@V?$allocator@U?$pair@$$CBV?$basic_string@DU?$char_traits@D@std@@V?$allocator@D@2@@std@@V?$weak_ptr@VRawImageData@@@2@@std@@@2@$0A@@std@@@std@@QAEXXZ 0045fcf0     BuilderUI.obj
 0002:0000ad14       __unwindtable$?find@?$_Tree@V?$_Tmap_traits@V?$basic_string@DU?$char_traits@D@std@@V?$allocator@D@2@@std@@V?$weak_ptr@VRawImageData@@@2@U?$less@V?$basic_string@DU?$char_traits@D@std@@V?$allocator@D@2@@std@@@2@V?$allocator@U?$pair@$$CBV?$basic_string@DU?$char_traits@D@std@@V?$allocator@D@2@@std@@V?$weak_ptr@VRawImageData@@@2@@std@@@2@$0A@@std@@@std@@QAE?AV?$_Tree_iterator@V?$_Tree_val@U?$_Tree_simple_types@U?$pair@$$CBV?$basic_string@DU?$char_traits@D@std@@V?$allocator@D@2@@std@@V?$weak_ptr@VRawImageData@@@2@@std@@@std@@@std@@@2@ABV?$basic_string@DU?$char_traits@D@std@@V?$allocator@D@2@@2@@Z 0045fd14     BuilderUI.obj
 0002:0000ad24       __ehfuncinfo$?find@?$_Tree@V?$_Tmap_traits@V?$basic_string@DU?$char_traits@D@std@@V?$allocator@D@2@@std@@V?$weak_ptr@VRawImageData@@@2@U?$less@V?$basic_string@DU?$char_traits@D@std@@V?$allocator@D@2@@std@@@2@V?$allocator@U?$pair@$$CBV?$basic_string@DU?$char_traits@D@std@@V?$allocator@D@2@@std@@V?$weak_ptr@VRawImageData@@@2@@std@@@2@$0A@@std@@@std@@QAE?AV?$_Tree_iterator@V?$_Tree_val@U?$_Tree_simple_types@U?$pair@$$CBV?$basic_string@DU?$char_traits@D@std@@V?$allocator@D@2@@std@@V?$weak_ptr@VRawImageData@@@2@@std@@@std@@@std@@@2@ABV?$basic_string@DU?$char_traits@D@std@@V?$allocator@D@2@@2@@Z 0045fd24     BuilderUI.obj
 0002:0000ad48       __unwindtable$?_Orphan_ptr@?$_Tree@V?$_Tmap_traits@V?$basic_string@DU?$char_traits@D@std@@V?$allocator@D@2@@std@@V?$weak_ptr@VRawImageData@@@2@U?$less@V?$basic_string@DU?$char_traits@D@std@@V?$allocator@D@2@@std@@@2@V?$allocator@U?$pair@$$CBV?$basic_string@DU?$char_traits@D@std@@V?$allocator@D@2@@std@@V?$weak_ptr@VRawImageData@@@2@@std@@@2@$0A@@std@@@std@@IAEXPAU?$_Tree_node@U?$pair@$$CBV?$basic_string@DU?$char_traits@D@std@@V?$allocator@D@2@@std@@V?$weak_ptr@VRawImageData@@@2@@std@@PAX@2@@Z 0045fd48     BuilderUI.obj
 0002:0000ad50       __ehfuncinfo$?_Orphan_ptr@?$_Tree@V?$_Tmap_traits@V?$basic_string@DU?$char_traits@D@std@@V?$allocator@D@2@@std@@V?$weak_ptr@VRawImageData@@@2@U?$less@V?$basic_string@DU?$char_traits@D@std@@V?$allocator@D@2@@std@@@2@V?$allocator@U?$pair@$$CBV?$basic_string@DU?$char_traits@D@std@@V?$allocator@D@2@@std@@V?$weak_ptr@VRawImageData@@@2@@std@@@2@$0A@@std@@@std@@IAEXPAU?$_Tree_node@U?$pair@$$CBV?$basic_string@DU?$char_traits@D@std@@V?$allocator@D@2@@std@@V?$weak_ptr@VRawImageData@@@2@@std@@PAX@2@@Z 0045fd50     BuilderUI.obj
 0002:0000ad74       __unwindtable$?_Tidy@?$_Tree@V?$_Tmap_traits@V?$basic_string@DU?$char_traits@D@std@@V?$allocator@D@2@@std@@V?$weak_ptr@VRawImageData@@@2@U?$less@V?$basic_string@DU?$char_traits@D@std@@V?$allocator@D@2@@std@@@2@V?$allocator@U?$pair@$$CBV?$basic_string@DU?$char_traits@D@std@@V?$allocator@D@2@@std@@V?$weak_ptr@VRawImageData@@@2@@std@@@2@$0A@@std@@@std@@IAEXXZ 0045fd74     BuilderUI.obj
 0002:0000ad84       __ehfuncinfo$?_Tidy@?$_Tree@V?$_Tmap_traits@V?$basic_string@DU?$char_traits@D@std@@V?$allocator@D@2@@std@@V?$weak_ptr@VRawImageData@@@2@U?$less@V?$basic_string@DU?$char_traits@D@std@@V?$allocator@D@2@@std@@@2@V?$allocator@U?$pair@$$CBV?$basic_string@DU?$char_traits@D@std@@V?$allocator@D@2@@std@@V?$weak_ptr@VRawImageData@@@2@@std@@@2@$0A@@std@@@std@@IAEXXZ 0045fd84     BuilderUI.obj
 0002:0000ada8       __catchsym$?_Construct@?$_Tree_comp_alloc@V?$_Tmap_traits@V?$basic_string@DU?$char_traits@D@std@@V?$allocator@D@2@@std@@V?$shared_ptr@VRawImageData@@@2@U?$less@V?$basic_string@DU?$char_traits@D@std@@V?$allocator@D@2@@std@@@2@V?$allocator@U?$pair@$$CBV?$basic_string@DU?$char_traits@D@std@@V?$allocator@D@2@@std@@V?$shared_ptr@VRawImageData@@@2@@std@@@2@$0A@@std@@@std@@QAEXXZ$2 0045fda8     BuilderUI.obj
 0002:0000adb8       __unwindtable$?_Construct@?$_Tree_comp_alloc@V?$_Tmap_traits@V?$basic_string@DU?$char_traits@D@std@@V?$allocator@D@2@@std@@V?$shared_ptr@VRawImageData@@@2@U?$less@V?$basic_string@DU?$char_traits@D@std@@V?$allocator@D@2@@std@@@2@V?$allocator@U?$pair@$$CBV?$basic_string@DU?$char_traits@D@std@@V?$allocator@D@2@@std@@V?$shared_ptr@VRawImageData@@@2@@std@@@2@$0A@@std@@@std@@QAEXXZ 0045fdb8     BuilderUI.obj
 0002:0000adc8       __tryblocktable$?_Construct@?$_Tree_comp_alloc@V?$_Tmap_traits@V?$basic_string@DU?$char_traits@D@std@@V?$allocator@D@2@@std@@V?$shared_ptr@VRawImageData@@@2@U?$less@V?$basic_string@DU?$char_traits@D@std@@V?$allocator@D@2@@std@@@2@V?$allocator@U?$pair@$$CBV?$basic_string@DU?$char_traits@D@std@@V?$allocator@D@2@@std@@V?$shared_ptr@VRawImageData@@@2@@std@@@2@$0A@@std@@@std@@QAEXXZ 0045fdc8     BuilderUI.obj
 0002:0000addc       __ehfuncinfo$?_Construct@?$_Tree_comp_alloc@V?$_Tmap_traits@V?$basic_string@DU?$char_traits@D@std@@V?$allocator@D@2@@std@@V?$shared_ptr@VRawImageData@@@2@U?$less@V?$basic_string@DU?$char_traits@D@std@@V?$allocator@D@2@@std@@@2@V?$allocator@U?$pair@$$CBV?$basic_string@DU?$char_traits@D@std@@V?$allocator@D@2@@std@@V?$shared_ptr@VRawImageData@@@2@@std@@@2@$0A@@std@@@std@@QAEXXZ 0045fddc     BuilderUI.obj
 0002:0000ae00       __ehfuncinfo$??1?$_Tree_comp_alloc@V?$_Tmap_traits@V?$basic_string@DU?$char_traits@D@std@@V?$allocator@D@2@@std@@V?$shared_ptr@VRawImageData@@@2@U?$less@V?$basic_string@DU?$char_traits@D@std@@V?$allocator@D@2@@std@@@2@V?$allocator@U?$pair@$$CBV?$basic_string@DU?$char_traits@D@std@@V?$allocator@D@2@@std@@V?$shared_ptr@VRawImageData@@@2@@std@@@2@$0A@@std@@@std@@QAE@XZ 0045fe00     BuilderUI.obj
 0002:0000ae24       __catchsym$?_Buyheadnode@?$_Tree_comp_alloc@V?$_Tmap_traits@V?$basic_string@DU?$char_traits@D@std@@V?$allocator@D@2@@std@@V?$shared_ptr@VRawImageData@@@2@U?$less@V?$basic_string@DU?$char_traits@D@std@@V?$allocator@D@2@@std@@@2@V?$allocator@U?$pair@$$CBV?$basic_string@DU?$char_traits@D@std@@V?$allocator@D@2@@std@@V?$shared_ptr@VRawImageData@@@2@@std@@@2@$0A@@std@@@std@@QAEPAU?$_Tree_node@U?$pair@$$CBV?$basic_string@DU?$char_traits@D@std@@V?$allocator@D@2@@std@@V?$shared_ptr@VRawImageData@@@2@@std@@PAX@2@XZ$2 0045fe24     BuilderUI.obj
 0002:0000ae34       __unwindtable$?_Buyheadnode@?$_Tree_comp_alloc@V?$_Tmap_traits@V?$basic_string@DU?$char_traits@D@std@@V?$allocator@D@2@@std@@V?$shared_ptr@VRawImageData@@@2@U?$less@V?$basic_string@DU?$char_traits@D@std@@V?$allocator@D@2@@std@@@2@V?$allocator@U?$pair@$$CBV?$basic_string@DU?$char_traits@D@std@@V?$allocator@D@2@@std@@V?$shared_ptr@VRawImageData@@@2@@std@@@2@$0A@@std@@@std@@QAEPAU?$_Tree_node@U?$pair@$$CBV?$basic_string@DU?$char_traits@D@std@@V?$allocator@D@2@@std@@V?$shared_ptr@VRawImageData@@@2@@std@@PAX@2@XZ 0045fe34     BuilderUI.obj
 0002:0000ae44       __tryblocktable$?_Buyheadnode@?$_Tree_comp_alloc@V?$_Tmap_traits@V?$basic_string@DU?$char_traits@D@std@@V?$allocator@D@2@@std@@V?$shared_ptr@VRawImageData@@@2@U?$less@V?$basic_string@DU?$char_traits@D@std@@V?$allocator@D@2@@std@@@2@V?$allocator@U?$pair@$$CBV?$basic_string@DU?$char_traits@D@std@@V?$allocator@D@2@@std@@V?$shared_ptr@VRawImageData@@@2@@std@@@2@$0A@@std@@@std@@QAEPAU?$_Tree_node@U?$pair@$$CBV?$basic_string@DU?$char_traits@D@std@@V?$allocator@D@2@@std@@V?$shared_ptr@VRawImageData@@@2@@std@@PAX@2@XZ 0045fe44     BuilderUI.obj
 0002:0000ae58       __ehfuncinfo$?_Buyheadnode@?$_Tree_comp_alloc@V?$_Tmap_traits@V?$basic_string@DU?$char_traits@D@std@@V?$allocator@D@2@@std@@V?$shared_ptr@VRawImageData@@@2@U?$less@V?$basic_string@DU?$char_traits@D@std@@V?$allocator@D@2@@std@@@2@V?$allocator@U?$pair@$$CBV?$basic_string@DU?$char_traits@D@std@@V?$allocator@D@2@@std@@V?$shared_ptr@VRawImageData@@@2@@std@@@2@$0A@@std@@@std@@QAEPAU?$_Tree_node@U?$pair@$$CBV?$basic_string@DU?$char_traits@D@std@@V?$allocator@D@2@@std@@V?$shared_ptr@VRawImageData@@@2@@std@@PAX@2@XZ 0045fe58     BuilderUI.obj
 0002:0000ae7c       __catchsym$?_Buynode0@?$_Tree_comp_alloc@V?$_Tmap_traits@V?$basic_string@DU?$char_traits@D@std@@V?$allocator@D@2@@std@@V?$shared_ptr@VRawImageData@@@2@U?$less@V?$basic_string@DU?$char_traits@D@std@@V?$allocator@D@2@@std@@@2@V?$allocator@U?$pair@$$CBV?$basic_string@DU?$char_traits@D@std@@V?$allocator@D@2@@std@@V?$shared_ptr@VRawImageData@@@2@@std@@@2@$0A@@std@@@std@@QAEPAU?$_Tree_node@U?$pair@$$CBV?$basic_string@DU?$char_traits@D@std@@V?$allocator@D@2@@std@@V?$shared_ptr@VRawImageData@@@2@@std@@PAX@2@XZ$2 0045fe7c     BuilderUI.obj
 0002:0000ae8c       __unwindtable$?_Buynode0@?$_Tree_comp_alloc@V?$_Tmap_traits@V?$basic_string@DU?$char_traits@D@std@@V?$allocator@D@2@@std@@V?$shared_ptr@VRawImageData@@@2@U?$less@V?$basic_string@DU?$char_traits@D@std@@V?$allocator@D@2@@std@@@2@V?$allocator@U?$pair@$$CBV?$basic_string@DU?$char_traits@D@std@@V?$allocator@D@2@@std@@V?$shared_ptr@VRawImageData@@@2@@std@@@2@$0A@@std@@@std@@QAEPAU?$_Tree_node@U?$pair@$$CBV?$basic_string@DU?$char_traits@D@std@@V?$allocator@D@2@@std@@V?$shared_ptr@VRawImageData@@@2@@std@@PAX@2@XZ 0045fe8c     BuilderUI.obj
 0002:0000ae9c       __tryblocktable$?_Buynode0@?$_Tree_comp_alloc@V?$_Tmap_traits@V?$basic_string@DU?$char_traits@D@std@@V?$allocator@D@2@@std@@V?$shared_ptr@VRawImageData@@@2@U?$less@V?$basic_string@DU?$char_traits@D@std@@V?$allocator@D@2@@std@@@2@V?$allocator@U?$pair@$$CBV?$basic_string@DU?$char_traits@D@std@@V?$allocator@D@2@@std@@V?$shared_ptr@VRawImageData@@@2@@std@@@2@$0A@@std@@@std@@QAEPAU?$_Tree_node@U?$pair@$$CBV?$basic_string@DU?$char_traits@D@std@@V?$allocator@D@2@@std@@V?$shared_ptr@VRawImageData@@@2@@std@@PAX@2@XZ 0045fe9c     BuilderUI.obj
 0002:0000aeb0       __ehfuncinfo$?_Buynode0@?$_Tree_comp_alloc@V?$_Tmap_traits@V?$basic_string@DU?$char_traits@D@std@@V?$allocator@D@2@@std@@V?$shared_ptr@VRawImageData@@@2@U?$less@V?$basic_string@DU?$char_traits@D@std@@V?$allocator@D@2@@std@@@2@V?$allocator@U?$pair@$$CBV?$basic_string@DU?$char_traits@D@std@@V?$allocator@D@2@@std@@V?$shared_ptr@VRawImageData@@@2@@std@@@2@$0A@@std@@@std@@QAEPAU?$_Tree_node@U?$pair@$$CBV?$basic_string@DU?$char_traits@D@std@@V?$allocator@D@2@@std@@V?$shared_ptr@VRawImageData@@@2@@std@@PAX@2@XZ 0045feb0     BuilderUI.obj
 0002:0000aed4       __unwindtable$?_Extract@?$_Tree_val@U?$_Tree_simple_types@U?$pair@$$CBV?$basic_string@DU?$char_traits@D@std@@V?$allocator@D@2@@std@@V?$shared_ptr@VRawImageData@@@2@@std@@@std@@@std@@QAEPAU?$_Tree_node@U?$pair@$$CBV?$basic_string@DU?$char_traits@D@std@@V?$allocator@D@2@@std@@V?$shared_ptr@VRawImageData@@@2@@std@@PAX@2@V?$_Tree_const_iterator@V?$_Tree_val@U?$_Tree_simple_types@U?$pair@$$CBV?$basic_string@DU?$char_traits@D@std@@V?$allocator@D@2@@std@@V?$shared_ptr@VRawImageData@@@2@@std@@@std@@@std@@@2@@Z 0045fed4     BuilderUI.obj
 0002:0000aedc       __ehfuncinfo$?_Extract@?$_Tree_val@U?$_Tree_simple_types@U?$pair@$$CBV?$basic_string@DU?$char_traits@D@std@@V?$allocator@D@2@@std@@V?$shared_ptr@VRawImageData@@@2@@std@@@std@@@std@@QAEPAU?$_Tree_node@U?$pair@$$CBV?$basic_string@DU?$char_traits@D@std@@V?$allocator@D@2@@std@@V?$shared_ptr@VRawImageData@@@2@@std@@PAX@2@V?$_Tree_const_iterator@V?$_Tree_val@U?$_Tree_simple_types@U?$pair@$$CBV?$basic_string@DU?$char_traits@D@std@@V?$allocator@D@2@@std@@V?$shared_ptr@VRawImageData@@@2@@std@@@std@@@std@@@2@@Z 0045fedc     BuilderUI.obj
 0002:0000af00       __ehfuncinfo$??1?$_Tree@V?$_Tmap_traits@V?$basic_string@DU?$char_traits@D@std@@V?$allocator@D@2@@std@@V?$shared_ptr@VRawImageData@@@2@U?$less@V?$basic_string@DU?$char_traits@D@std@@V?$allocator@D@2@@std@@@2@V?$allocator@U?$pair@$$CBV?$basic_string@DU?$char_traits@D@std@@V?$allocator@D@2@@std@@V?$shared_ptr@VRawImageData@@@2@@std@@@2@$0A@@std@@@std@@QAE@XZ 0045ff00     BuilderUI.obj
 0002:0000af24       __ehfuncinfo$?begin@?$_Tree@V?$_Tmap_traits@V?$basic_string@DU?$char_traits@D@std@@V?$allocator@D@2@@std@@V?$shared_ptr@VRawImageData@@@2@U?$less@V?$basic_string@DU?$char_traits@D@std@@V?$allocator@D@2@@std@@@2@V?$allocator@U?$pair@$$CBV?$basic_string@DU?$char_traits@D@std@@V?$allocator@D@2@@std@@V?$shared_ptr@VRawImageData@@@2@@std@@@2@$0A@@std@@@std@@QAE?AV?$_Tree_iterator@V?$_Tree_val@U?$_Tree_simple_types@U?$pair@$$CBV?$basic_string@DU?$char_traits@D@std@@V?$allocator@D@2@@std@@V?$shared_ptr@VRawImageData@@@2@@std@@@std@@@std@@@2@XZ 0045ff24     BuilderUI.obj
 0002:0000af48       __ehfuncinfo$?end@?$_Tree@V?$_Tmap_traits@V?$basic_string@DU?$char_traits@D@std@@V?$allocator@D@2@@std@@V?$shared_ptr@VRawImageData@@@2@U?$less@V?$basic_string@DU?$char_traits@D@std@@V?$allocator@D@2@@std@@@2@V?$allocator@U?$pair@$$CBV?$basic_string@DU?$char_traits@D@std@@V?$allocator@D@2@@std@@V?$shared_ptr@VRawImageData@@@2@@std@@@2@$0A@@std@@@std@@QAE?AV?$_Tree_iterator@V?$_Tree_val@U?$_Tree_simple_types@U?$pair@$$CBV?$basic_string@DU?$char_traits@D@std@@V?$allocator@D@2@@std@@V?$shared_ptr@VRawImageData@@@2@@std@@@std@@@std@@@2@XZ 0045ff48     BuilderUI.obj
 0002:0000af6c       __unwindtable$?erase@?$_Tree@V?$_Tmap_traits@V?$basic_string@DU?$char_traits@D@std@@V?$allocator@D@2@@std@@V?$shared_ptr@VRawImageData@@@2@U?$less@V?$basic_string@DU?$char_traits@D@std@@V?$allocator@D@2@@std@@@2@V?$allocator@U?$pair@$$CBV?$basic_string@DU?$char_traits@D@std@@V?$allocator@D@2@@std@@V?$shared_ptr@VRawImageData@@@2@@std@@@2@$0A@@std@@@std@@QAE?AV?$_Tree_iterator@V?$_Tree_val@U?$_Tree_simple_types@U?$pair@$$CBV?$basic_string@DU?$char_traits@D@std@@V?$allocator@D@2@@std@@V?$shared_ptr@VRawImageData@@@2@@std@@@std@@@std@@@2@V?$_Tree_const_iterator@V?$_Tree_val@U?$_Tree_simple_types@U?$pair@$$CBV?$basic_string@DU?$char_traits@D@std@@V?$allocator@D@2@@std@@V?$shared_ptr@VRawImageData@@@2@@std@@@std@@@std@@@2@@Z 0045ff6c     BuilderUI.obj
 0002:0000af7c       __ehfuncinfo$?erase@?$_Tree@V?$_Tmap_traits@V?$basic_string@DU?$char_traits@D@std@@V?$allocator@D@2@@std@@V?$shared_ptr@VRawImageData@@@2@U?$less@V?$basic_string@DU?$char_traits@D@std@@V?$allocator@D@2@@std@@@2@V?$allocator@U?$pair@$$CBV?$basic_string@DU?$char_traits@D@std@@V?$allocator@D@2@@std@@V?$shared_ptr@VRawImageData@@@2@@std@@@2@$0A@@std@@@std@@QAE?AV?$_Tree_iterator@V?$_Tree_val@U?$_Tree_simple_types@U?$pair@$$CBV?$basic_string@DU?$char_traits@D@std@@V?$allocator@D@2@@std@@V?$shared_ptr@VRawImageData@@@2@@std@@@std@@@std@@@2@V?$_Tree_const_iterator@V?$_Tree_val@U?$_Tree_simple_types@U?$pair@$$CBV?$basic_string@DU?$char_traits@D@std@@V?$allocator@D@2@@std@@V?$shared_ptr@VRawImageData@@@2@@std@@@std@@@std@@@2@@Z 0045ff7c     BuilderUI.obj
 0002:0000afa0       __unwindtable$?erase@?$_Tree@V?$_Tmap_traits@V?$basic_string@DU?$char_traits@D@std@@V?$allocator@D@2@@std@@V?$shared_ptr@VRawImageData@@@2@U?$less@V?$basic_string@DU?$char_traits@D@std@@V?$allocator@D@2@@std@@@2@V?$allocator@U?$pair@$$CBV?$basic_string@DU?$char_traits@D@std@@V?$allocator@D@2@@std@@V?$shared_ptr@VRawImageData@@@2@@std@@@2@$0A@@std@@@std@@QAE?AV?$_Tree_iterator@V?$_Tree_val@U?$_Tree_simple_types@U?$pair@$$CBV?$basic_string@DU?$char_traits@D@std@@V?$allocator@D@2@@std@@V?$shared_ptr@VRawImageData@@@2@@std@@@std@@@std@@@2@V?$_Tree_const_iterator@V?$_Tree_val@U?$_Tree_simple_types@U?$pair@$$CBV?$basic_string@DU?$char_traits@D@std@@V?$allocator@D@2@@std@@V?$shared_ptr@VRawImageData@@@2@@std@@@std@@@std@@@2@0@Z 0045ffa0     BuilderUI.obj
 0002:0000afc0       __ehfuncinfo$?erase@?$_Tree@V?$_Tmap_traits@V?$basic_string@DU?$char_traits@D@std@@V?$allocator@D@2@@std@@V?$shared_ptr@VRawImageData@@@2@U?$less@V?$basic_string@DU?$char_traits@D@std@@V?$allocator@D@2@@std@@@2@V?$allocator@U?$pair@$$CBV?$basic_string@DU?$char_traits@D@std@@V?$allocator@D@2@@std@@V?$shared_ptr@VRawImageData@@@2@@std@@@2@$0A@@std@@@std@@QAE?AV?$_Tree_iterator@V?$_Tree_val@U?$_Tree_simple_types@U?$pair@$$CBV?$basic_string@DU?$char_traits@D@std@@V?$allocator@D@2@@std@@V?$shared_ptr@VRawImageData@@@2@@std@@@std@@@std@@@2@V?$_Tree_const_iterator@V?$_Tree_val@U?$_Tree_simple_types@U?$pair@$$CBV?$basic_string@DU?$char_traits@D@std@@V?$allocator@D@2@@std@@V?$shared_ptr@VRawImageData@@@2@@std@@@std@@@std@@@2@0@Z 0045ffc0     BuilderUI.obj
 0002:0000afe4       __ehfuncinfo$?clear@?$_Tree@V?$_Tmap_traits@V?$basic_string@DU?$char_traits@D@std@@V?$allocator@D@2@@std@@V?$shared_ptr@VRawImageData@@@2@U?$less@V?$basic_string@DU?$char_traits@D@std@@V?$allocator@D@2@@std@@@2@V?$allocator@U?$pair@$$CBV?$basic_string@DU?$char_traits@D@std@@V?$allocator@D@2@@std@@V?$shared_ptr@VRawImageData@@@2@@std@@@2@$0A@@std@@@std@@QAEXXZ 0045ffe4     BuilderUI.obj
 0002:0000b008       __unwindtable$?_Orphan_ptr@?$_Tree@V?$_Tmap_traits@V?$basic_string@DU?$char_traits@D@std@@V?$allocator@D@2@@std@@V?$shared_ptr@VRawImageData@@@2@U?$less@V?$basic_string@DU?$char_traits@D@std@@V?$allocator@D@2@@std@@@2@V?$allocator@U?$pair@$$CBV?$basic_string@DU?$char_traits@D@std@@V?$allocator@D@2@@std@@V?$shared_ptr@VRawImageData@@@2@@std@@@2@$0A@@std@@@std@@IAEXPAU?$_Tree_node@U?$pair@$$CBV?$basic_string@DU?$char_traits@D@std@@V?$allocator@D@2@@std@@V?$shared_ptr@VRawImageData@@@2@@std@@PAX@2@@Z 00460008     BuilderUI.obj
 0002:0000b010       __ehfuncinfo$?_Orphan_ptr@?$_Tree@V?$_Tmap_traits@V?$basic_string@DU?$char_traits@D@std@@V?$allocator@D@2@@std@@V?$shared_ptr@VRawImageData@@@2@U?$less@V?$basic_string@DU?$char_traits@D@std@@V?$allocator@D@2@@std@@@2@V?$allocator@U?$pair@$$CBV?$basic_string@DU?$char_traits@D@std@@V?$allocator@D@2@@std@@V?$shared_ptr@VRawImageData@@@2@@std@@@2@$0A@@std@@@std@@IAEXPAU?$_Tree_node@U?$pair@$$CBV?$basic_string@DU?$char_traits@D@std@@V?$allocator@D@2@@std@@V?$shared_ptr@VRawImageData@@@2@@std@@PAX@2@@Z 00460010     BuilderUI.obj
 0002:0000b034       __unwindtable$?_Tidy@?$_Tree@V?$_Tmap_traits@V?$basic_string@DU?$char_traits@D@std@@V?$allocator@D@2@@std@@V?$shared_ptr@VRawImageData@@@2@U?$less@V?$basic_string@DU?$char_traits@D@std@@V?$allocator@D@2@@std@@@2@V?$allocator@U?$pair@$$CBV?$basic_string@DU?$char_traits@D@std@@V?$allocator@D@2@@std@@V?$shared_ptr@VRawImageData@@@2@@std@@@2@$0A@@std@@@std@@IAEXXZ 00460034     BuilderUI.obj
 0002:0000b044       __ehfuncinfo$?_Tidy@?$_Tree@V?$_Tmap_traits@V?$basic_string@DU?$char_traits@D@std@@V?$allocator@D@2@@std@@V?$shared_ptr@VRawImageData@@@2@U?$less@V?$basic_string@DU?$char_traits@D@std@@V?$allocator@D@2@@std@@@2@V?$allocator@U?$pair@$$CBV?$basic_string@DU?$char_traits@D@std@@V?$allocator@D@2@@std@@V?$shared_ptr@VRawImageData@@@2@@std@@@2@$0A@@std@@@std@@IAEXXZ 00460044     BuilderUI.obj
 0002:0000b068       __catchsym$?_Construct@?$_Tree_comp_alloc@V?$_Tmap_traits@V?$basic_string@DU?$char_traits@D@std@@V?$allocator@D@2@@std@@V?$weak_ptr@USpriteData@@@2@U?$less@V?$basic_string@DU?$char_traits@D@std@@V?$allocator@D@2@@std@@@2@V?$allocator@U?$pair@$$CBV?$basic_string@DU?$char_traits@D@std@@V?$allocator@D@2@@std@@V?$weak_ptr@USpriteData@@@2@@std@@@2@$0A@@std@@@std@@QAEXXZ$2 00460068     BuilderUI.obj
 0002:0000b078       __unwindtable$?_Construct@?$_Tree_comp_alloc@V?$_Tmap_traits@V?$basic_string@DU?$char_traits@D@std@@V?$allocator@D@2@@std@@V?$weak_ptr@USpriteData@@@2@U?$less@V?$basic_string@DU?$char_traits@D@std@@V?$allocator@D@2@@std@@@2@V?$allocator@U?$pair@$$CBV?$basic_string@DU?$char_traits@D@std@@V?$allocator@D@2@@std@@V?$weak_ptr@USpriteData@@@2@@std@@@2@$0A@@std@@@std@@QAEXXZ 00460078     BuilderUI.obj
 0002:0000b088       __tryblocktable$?_Construct@?$_Tree_comp_alloc@V?$_Tmap_traits@V?$basic_string@DU?$char_traits@D@std@@V?$allocator@D@2@@std@@V?$weak_ptr@USpriteData@@@2@U?$less@V?$basic_string@DU?$char_traits@D@std@@V?$allocator@D@2@@std@@@2@V?$allocator@U?$pair@$$CBV?$basic_string@DU?$char_traits@D@std@@V?$allocator@D@2@@std@@V?$weak_ptr@USpriteData@@@2@@std@@@2@$0A@@std@@@std@@QAEXXZ 00460088     BuilderUI.obj
 0002:0000b09c       __ehfuncinfo$?_Construct@?$_Tree_comp_alloc@V?$_Tmap_traits@V?$basic_string@DU?$char_traits@D@std@@V?$allocator@D@2@@std@@V?$weak_ptr@USpriteData@@@2@U?$less@V?$basic_string@DU?$char_traits@D@std@@V?$allocator@D@2@@std@@@2@V?$allocator@U?$pair@$$CBV?$basic_string@DU?$char_traits@D@std@@V?$allocator@D@2@@std@@V?$weak_ptr@USpriteData@@@2@@std@@@2@$0A@@std@@@std@@QAEXXZ 0046009c     BuilderUI.obj
 0002:0000b0c0       __ehfuncinfo$??1?$_Tree_comp_alloc@V?$_Tmap_traits@V?$basic_string@DU?$char_traits@D@std@@V?$allocator@D@2@@std@@V?$weak_ptr@USpriteData@@@2@U?$less@V?$basic_string@DU?$char_traits@D@std@@V?$allocator@D@2@@std@@@2@V?$allocator@U?$pair@$$CBV?$basic_string@DU?$char_traits@D@std@@V?$allocator@D@2@@std@@V?$weak_ptr@USpriteData@@@2@@std@@@2@$0A@@std@@@std@@QAE@XZ 004600c0     BuilderUI.obj
 0002:0000b0e4       __catchsym$?_Buyheadnode@?$_Tree_comp_alloc@V?$_Tmap_traits@V?$basic_string@DU?$char_traits@D@std@@V?$allocator@D@2@@std@@V?$weak_ptr@USpriteData@@@2@U?$less@V?$basic_string@DU?$char_traits@D@std@@V?$allocator@D@2@@std@@@2@V?$allocator@U?$pair@$$CBV?$basic_string@DU?$char_traits@D@std@@V?$allocator@D@2@@std@@V?$weak_ptr@USpriteData@@@2@@std@@@2@$0A@@std@@@std@@QAEPAU?$_Tree_node@U?$pair@$$CBV?$basic_string@DU?$char_traits@D@std@@V?$allocator@D@2@@std@@V?$weak_ptr@USpriteData@@@2@@std@@PAX@2@XZ$2 004600e4     BuilderUI.obj
 0002:0000b0f4       __unwindtable$?_Buyheadnode@?$_Tree_comp_alloc@V?$_Tmap_traits@V?$basic_string@DU?$char_traits@D@std@@V?$allocator@D@2@@std@@V?$weak_ptr@USpriteData@@@2@U?$less@V?$basic_string@DU?$char_traits@D@std@@V?$allocator@D@2@@std@@@2@V?$allocator@U?$pair@$$CBV?$basic_string@DU?$char_traits@D@std@@V?$allocator@D@2@@std@@V?$weak_ptr@USpriteData@@@2@@std@@@2@$0A@@std@@@std@@QAEPAU?$_Tree_node@U?$pair@$$CBV?$basic_string@DU?$char_traits@D@std@@V?$allocator@D@2@@std@@V?$weak_ptr@USpriteData@@@2@@std@@PAX@2@XZ 004600f4     BuilderUI.obj
 0002:0000b104       __tryblocktable$?_Buyheadnode@?$_Tree_comp_alloc@V?$_Tmap_traits@V?$basic_string@DU?$char_traits@D@std@@V?$allocator@D@2@@std@@V?$weak_ptr@USpriteData@@@2@U?$less@V?$basic_string@DU?$char_traits@D@std@@V?$allocator@D@2@@std@@@2@V?$allocator@U?$pair@$$CBV?$basic_string@DU?$char_traits@D@std@@V?$allocator@D@2@@std@@V?$weak_ptr@USpriteData@@@2@@std@@@2@$0A@@std@@@std@@QAEPAU?$_Tree_node@U?$pair@$$CBV?$basic_string@DU?$char_traits@D@std@@V?$allocator@D@2@@std@@V?$weak_ptr@USpriteData@@@2@@std@@PAX@2@XZ 00460104     BuilderUI.obj
 0002:0000b118       __ehfuncinfo$?_Buyheadnode@?$_Tree_comp_alloc@V?$_Tmap_traits@V?$basic_string@DU?$char_traits@D@std@@V?$allocator@D@2@@std@@V?$weak_ptr@USpriteData@@@2@U?$less@V?$basic_string@DU?$char_traits@D@std@@V?$allocator@D@2@@std@@@2@V?$allocator@U?$pair@$$CBV?$basic_string@DU?$char_traits@D@std@@V?$allocator@D@2@@std@@V?$weak_ptr@USpriteData@@@2@@std@@@2@$0A@@std@@@std@@QAEPAU?$_Tree_node@U?$pair@$$CBV?$basic_string@DU?$char_traits@D@std@@V?$allocator@D@2@@std@@V?$weak_ptr@USpriteData@@@2@@std@@PAX@2@XZ 00460118     BuilderUI.obj
 0002:0000b13c       __catchsym$?_Buynode0@?$_Tree_comp_alloc@V?$_Tmap_traits@V?$basic_string@DU?$char_traits@D@std@@V?$allocator@D@2@@std@@V?$weak_ptr@USpriteData@@@2@U?$less@V?$basic_string@DU?$char_traits@D@std@@V?$allocator@D@2@@std@@@2@V?$allocator@U?$pair@$$CBV?$basic_string@DU?$char_traits@D@std@@V?$allocator@D@2@@std@@V?$weak_ptr@USpriteData@@@2@@std@@@2@$0A@@std@@@std@@QAEPAU?$_Tree_node@U?$pair@$$CBV?$basic_string@DU?$char_traits@D@std@@V?$allocator@D@2@@std@@V?$weak_ptr@USpriteData@@@2@@std@@PAX@2@XZ$2 0046013c     BuilderUI.obj
 0002:0000b14c       __unwindtable$?_Buynode0@?$_Tree_comp_alloc@V?$_Tmap_traits@V?$basic_string@DU?$char_traits@D@std@@V?$allocator@D@2@@std@@V?$weak_ptr@USpriteData@@@2@U?$less@V?$basic_string@DU?$char_traits@D@std@@V?$allocator@D@2@@std@@@2@V?$allocator@U?$pair@$$CBV?$basic_string@DU?$char_traits@D@std@@V?$allocator@D@2@@std@@V?$weak_ptr@USpriteData@@@2@@std@@@2@$0A@@std@@@std@@QAEPAU?$_Tree_node@U?$pair@$$CBV?$basic_string@DU?$char_traits@D@std@@V?$allocator@D@2@@std@@V?$weak_ptr@USpriteData@@@2@@std@@PAX@2@XZ 0046014c     BuilderUI.obj
 0002:0000b15c       __tryblocktable$?_Buynode0@?$_Tree_comp_alloc@V?$_Tmap_traits@V?$basic_string@DU?$char_traits@D@std@@V?$allocator@D@2@@std@@V?$weak_ptr@USpriteData@@@2@U?$less@V?$basic_string@DU?$char_traits@D@std@@V?$allocator@D@2@@std@@@2@V?$allocator@U?$pair@$$CBV?$basic_string@DU?$char_traits@D@std@@V?$allocator@D@2@@std@@V?$weak_ptr@USpriteData@@@2@@std@@@2@$0A@@std@@@std@@QAEPAU?$_Tree_node@U?$pair@$$CBV?$basic_string@DU?$char_traits@D@std@@V?$allocator@D@2@@std@@V?$weak_ptr@USpriteData@@@2@@std@@PAX@2@XZ 0046015c     BuilderUI.obj
 0002:0000b170       __ehfuncinfo$?_Buynode0@?$_Tree_comp_alloc@V?$_Tmap_traits@V?$basic_string@DU?$char_traits@D@std@@V?$allocator@D@2@@std@@V?$weak_ptr@USpriteData@@@2@U?$less@V?$basic_string@DU?$char_traits@D@std@@V?$allocator@D@2@@std@@@2@V?$allocator@U?$pair@$$CBV?$basic_string@DU?$char_traits@D@std@@V?$allocator@D@2@@std@@V?$weak_ptr@USpriteData@@@2@@std@@@2@$0A@@std@@@std@@QAEPAU?$_Tree_node@U?$pair@$$CBV?$basic_string@DU?$char_traits@D@std@@V?$allocator@D@2@@std@@V?$weak_ptr@USpriteData@@@2@@std@@PAX@2@XZ 00460170     BuilderUI.obj
 0002:0000b194       __unwindtable$?_Extract@?$_Tree_val@U?$_Tree_simple_types@U?$pair@$$CBV?$basic_string@DU?$char_traits@D@std@@V?$allocator@D@2@@std@@V?$weak_ptr@USpriteData@@@2@@std@@@std@@@std@@QAEPAU?$_Tree_node@U?$pair@$$CBV?$basic_string@DU?$char_traits@D@std@@V?$allocator@D@2@@std@@V?$weak_ptr@USpriteData@@@2@@std@@PAX@2@V?$_Tree_const_iterator@V?$_Tree_val@U?$_Tree_simple_types@U?$pair@$$CBV?$basic_string@DU?$char_traits@D@std@@V?$allocator@D@2@@std@@V?$weak_ptr@USpriteData@@@2@@std@@@std@@@std@@@2@@Z 00460194     BuilderUI.obj
 0002:0000b19c       __ehfuncinfo$?_Extract@?$_Tree_val@U?$_Tree_simple_types@U?$pair@$$CBV?$basic_string@DU?$char_traits@D@std@@V?$allocator@D@2@@std@@V?$weak_ptr@USpriteData@@@2@@std@@@std@@@std@@QAEPAU?$_Tree_node@U?$pair@$$CBV?$basic_string@DU?$char_traits@D@std@@V?$allocator@D@2@@std@@V?$weak_ptr@USpriteData@@@2@@std@@PAX@2@V?$_Tree_const_iterator@V?$_Tree_val@U?$_Tree_simple_types@U?$pair@$$CBV?$basic_string@DU?$char_traits@D@std@@V?$allocator@D@2@@std@@V?$weak_ptr@USpriteData@@@2@@std@@@std@@@std@@@2@@Z 0046019c     BuilderUI.obj
 0002:0000b1c0       __ehfuncinfo$??1?$_Tree@V?$_Tmap_traits@V?$basic_string@DU?$char_traits@D@std@@V?$allocator@D@2@@std@@V?$weak_ptr@USpriteData@@@2@U?$less@V?$basic_string@DU?$char_traits@D@std@@V?$allocator@D@2@@std@@@2@V?$allocator@U?$pair@$$CBV?$basic_string@DU?$char_traits@D@std@@V?$allocator@D@2@@std@@V?$weak_ptr@USpriteData@@@2@@std@@@2@$0A@@std@@@std@@QAE@XZ 004601c0     BuilderUI.obj
 0002:0000b1e4       __ehfuncinfo$?begin@?$_Tree@V?$_Tmap_traits@V?$basic_string@DU?$char_traits@D@std@@V?$allocator@D@2@@std@@V?$weak_ptr@USpriteData@@@2@U?$less@V?$basic_string@DU?$char_traits@D@std@@V?$allocator@D@2@@std@@@2@V?$allocator@U?$pair@$$CBV?$basic_string@DU?$char_traits@D@std@@V?$allocator@D@2@@std@@V?$weak_ptr@USpriteData@@@2@@std@@@2@$0A@@std@@@std@@QAE?AV?$_Tree_iterator@V?$_Tree_val@U?$_Tree_simple_types@U?$pair@$$CBV?$basic_string@DU?$char_traits@D@std@@V?$allocator@D@2@@std@@V?$weak_ptr@USpriteData@@@2@@std@@@std@@@std@@@2@XZ 004601e4     BuilderUI.obj
 0002:0000b208       __ehfuncinfo$?end@?$_Tree@V?$_Tmap_traits@V?$basic_string@DU?$char_traits@D@std@@V?$allocator@D@2@@std@@V?$weak_ptr@USpriteData@@@2@U?$less@V?$basic_string@DU?$char_traits@D@std@@V?$allocator@D@2@@std@@@2@V?$allocator@U?$pair@$$CBV?$basic_string@DU?$char_traits@D@std@@V?$allocator@D@2@@std@@V?$weak_ptr@USpriteData@@@2@@std@@@2@$0A@@std@@@std@@QAE?AV?$_Tree_iterator@V?$_Tree_val@U?$_Tree_simple_types@U?$pair@$$CBV?$basic_string@DU?$char_traits@D@std@@V?$allocator@D@2@@std@@V?$weak_ptr@USpriteData@@@2@@std@@@std@@@std@@@2@XZ 00460208     BuilderUI.obj
 0002:0000b22c       __unwindtable$?erase@?$_Tree@V?$_Tmap_traits@V?$basic_string@DU?$char_traits@D@std@@V?$allocator@D@2@@std@@V?$weak_ptr@USpriteData@@@2@U?$less@V?$basic_string@DU?$char_traits@D@std@@V?$allocator@D@2@@std@@@2@V?$allocator@U?$pair@$$CBV?$basic_string@DU?$char_traits@D@std@@V?$allocator@D@2@@std@@V?$weak_ptr@USpriteData@@@2@@std@@@2@$0A@@std@@@std@@QAE?AV?$_Tree_iterator@V?$_Tree_val@U?$_Tree_simple_types@U?$pair@$$CBV?$basic_string@DU?$char_traits@D@std@@V?$allocator@D@2@@std@@V?$weak_ptr@USpriteData@@@2@@std@@@std@@@std@@@2@V?$_Tree_const_iterator@V?$_Tree_val@U?$_Tree_simple_types@U?$pair@$$CBV?$basic_string@DU?$char_traits@D@std@@V?$allocator@D@2@@std@@V?$weak_ptr@USpriteData@@@2@@std@@@std@@@std@@@2@@Z 0046022c     BuilderUI.obj
 0002:0000b23c       __ehfuncinfo$?erase@?$_Tree@V?$_Tmap_traits@V?$basic_string@DU?$char_traits@D@std@@V?$allocator@D@2@@std@@V?$weak_ptr@USpriteData@@@2@U?$less@V?$basic_string@DU?$char_traits@D@std@@V?$allocator@D@2@@std@@@2@V?$allocator@U?$pair@$$CBV?$basic_string@DU?$char_traits@D@std@@V?$allocator@D@2@@std@@V?$weak_ptr@USpriteData@@@2@@std@@@2@$0A@@std@@@std@@QAE?AV?$_Tree_iterator@V?$_Tree_val@U?$_Tree_simple_types@U?$pair@$$CBV?$basic_string@DU?$char_traits@D@std@@V?$allocator@D@2@@std@@V?$weak_ptr@USpriteData@@@2@@std@@@std@@@std@@@2@V?$_Tree_const_iterator@V?$_Tree_val@U?$_Tree_simple_types@U?$pair@$$CBV?$basic_string@DU?$char_traits@D@std@@V?$allocator@D@2@@std@@V?$weak_ptr@USpriteData@@@2@@std@@@std@@@std@@@2@@Z 0046023c     BuilderUI.obj
 0002:0000b260       __unwindtable$?erase@?$_Tree@V?$_Tmap_traits@V?$basic_string@DU?$char_traits@D@std@@V?$allocator@D@2@@std@@V?$weak_ptr@USpriteData@@@2@U?$less@V?$basic_string@DU?$char_traits@D@std@@V?$allocator@D@2@@std@@@2@V?$allocator@U?$pair@$$CBV?$basic_string@DU?$char_traits@D@std@@V?$allocator@D@2@@std@@V?$weak_ptr@USpriteData@@@2@@std@@@2@$0A@@std@@@std@@QAE?AV?$_Tree_iterator@V?$_Tree_val@U?$_Tree_simple_types@U?$pair@$$CBV?$basic_string@DU?$char_traits@D@std@@V?$allocator@D@2@@std@@V?$weak_ptr@USpriteData@@@2@@std@@@std@@@std@@@2@V?$_Tree_const_iterator@V?$_Tree_val@U?$_Tree_simple_types@U?$pair@$$CBV?$basic_string@DU?$char_traits@D@std@@V?$allocator@D@2@@std@@V?$weak_ptr@USpriteData@@@2@@std@@@std@@@std@@@2@0@Z 00460260     BuilderUI.obj
 0002:0000b280       __ehfuncinfo$?erase@?$_Tree@V?$_Tmap_traits@V?$basic_string@DU?$char_traits@D@std@@V?$allocator@D@2@@std@@V?$weak_ptr@USpriteData@@@2@U?$less@V?$basic_string@DU?$char_traits@D@std@@V?$allocator@D@2@@std@@@2@V?$allocator@U?$pair@$$CBV?$basic_string@DU?$char_traits@D@std@@V?$allocator@D@2@@std@@V?$weak_ptr@USpriteData@@@2@@std@@@2@$0A@@std@@@std@@QAE?AV?$_Tree_iterator@V?$_Tree_val@U?$_Tree_simple_types@U?$pair@$$CBV?$basic_string@DU?$char_traits@D@std@@V?$allocator@D@2@@std@@V?$weak_ptr@USpriteData@@@2@@std@@@std@@@std@@@2@V?$_Tree_const_iterator@V?$_Tree_val@U?$_Tree_simple_types@U?$pair@$$CBV?$basic_string@DU?$char_traits@D@std@@V?$allocator@D@2@@std@@V?$weak_ptr@USpriteData@@@2@@std@@@std@@@std@@@2@0@Z 00460280     BuilderUI.obj
 0002:0000b2a4       __ehfuncinfo$?clear@?$_Tree@V?$_Tmap_traits@V?$basic_string@DU?$char_traits@D@std@@V?$allocator@D@2@@std@@V?$weak_ptr@USpriteData@@@2@U?$less@V?$basic_string@DU?$char_traits@D@std@@V?$allocator@D@2@@std@@@2@V?$allocator@U?$pair@$$CBV?$basic_string@DU?$char_traits@D@std@@V?$allocator@D@2@@std@@V?$weak_ptr@USpriteData@@@2@@std@@@2@$0A@@std@@@std@@QAEXXZ 004602a4     BuilderUI.obj
 0002:0000b2c8       __unwindtable$?find@?$_Tree@V?$_Tmap_traits@V?$basic_string@DU?$char_traits@D@std@@V?$allocator@D@2@@std@@V?$weak_ptr@USpriteData@@@2@U?$less@V?$basic_string@DU?$char_traits@D@std@@V?$allocator@D@2@@std@@@2@V?$allocator@U?$pair@$$CBV?$basic_string@DU?$char_traits@D@std@@V?$allocator@D@2@@std@@V?$weak_ptr@USpriteData@@@2@@std@@@2@$0A@@std@@@std@@QAE?AV?$_Tree_iterator@V?$_Tree_val@U?$_Tree_simple_types@U?$pair@$$CBV?$basic_string@DU?$char_traits@D@std@@V?$allocator@D@2@@std@@V?$weak_ptr@USpriteData@@@2@@std@@@std@@@std@@@2@ABV?$basic_string@DU?$char_traits@D@std@@V?$allocator@D@2@@2@@Z 004602c8     BuilderUI.obj
 0002:0000b2d8       __ehfuncinfo$?find@?$_Tree@V?$_Tmap_traits@V?$basic_string@DU?$char_traits@D@std@@V?$allocator@D@2@@std@@V?$weak_ptr@USpriteData@@@2@U?$less@V?$basic_string@DU?$char_traits@D@std@@V?$allocator@D@2@@std@@@2@V?$allocator@U?$pair@$$CBV?$basic_string@DU?$char_traits@D@std@@V?$allocator@D@2@@std@@V?$weak_ptr@USpriteData@@@2@@std@@@2@$0A@@std@@@std@@QAE?AV?$_Tree_iterator@V?$_Tree_val@U?$_Tree_simple_types@U?$pair@$$CBV?$basic_string@DU?$char_traits@D@std@@V?$allocator@D@2@@std@@V?$weak_ptr@USpriteData@@@2@@std@@@std@@@std@@@2@ABV?$basic_string@DU?$char_traits@D@std@@V?$allocator@D@2@@2@@Z 004602d8     BuilderUI.obj
 0002:0000b2fc       __unwindtable$?_Orphan_ptr@?$_Tree@V?$_Tmap_traits@V?$basic_string@DU?$char_traits@D@std@@V?$allocator@D@2@@std@@V?$weak_ptr@USpriteData@@@2@U?$less@V?$basic_string@DU?$char_traits@D@std@@V?$allocator@D@2@@std@@@2@V?$allocator@U?$pair@$$CBV?$basic_string@DU?$char_traits@D@std@@V?$allocator@D@2@@std@@V?$weak_ptr@USpriteData@@@2@@std@@@2@$0A@@std@@@std@@IAEXPAU?$_Tree_node@U?$pair@$$CBV?$basic_string@DU?$char_traits@D@std@@V?$allocator@D@2@@std@@V?$weak_ptr@USpriteData@@@2@@std@@PAX@2@@Z 004602fc     BuilderUI.obj
 0002:0000b304       __ehfuncinfo$?_Orphan_ptr@?$_Tree@V?$_Tmap_traits@V?$basic_string@DU?$char_traits@D@std@@V?$allocator@D@2@@std@@V?$weak_ptr@USpriteData@@@2@U?$less@V?$basic_string@DU?$char_traits@D@std@@V?$allocator@D@2@@std@@@2@V?$allocator@U?$pair@$$CBV?$basic_string@DU?$char_traits@D@std@@V?$allocator@D@2@@std@@V?$weak_ptr@USpriteData@@@2@@std@@@2@$0A@@std@@@std@@IAEXPAU?$_Tree_node@U?$pair@$$CBV?$basic_string@DU?$char_traits@D@std@@V?$allocator@D@2@@std@@V?$weak_ptr@USpriteData@@@2@@std@@PAX@2@@Z 00460304     BuilderUI.obj
 0002:0000b328       __unwindtable$?_Tidy@?$_Tree@V?$_Tmap_traits@V?$basic_string@DU?$char_traits@D@std@@V?$allocator@D@2@@std@@V?$weak_ptr@USpriteData@@@2@U?$less@V?$basic_string@DU?$char_traits@D@std@@V?$allocator@D@2@@std@@@2@V?$allocator@U?$pair@$$CBV?$basic_string@DU?$char_traits@D@std@@V?$allocator@D@2@@std@@V?$weak_ptr@USpriteData@@@2@@std@@@2@$0A@@std@@@std@@IAEXXZ 00460328     BuilderUI.obj
 0002:0000b338       __ehfuncinfo$?_Tidy@?$_Tree@V?$_Tmap_traits@V?$basic_string@DU?$char_traits@D@std@@V?$allocator@D@2@@std@@V?$weak_ptr@USpriteData@@@2@U?$less@V?$basic_string@DU?$char_traits@D@std@@V?$allocator@D@2@@std@@@2@V?$allocator@U?$pair@$$CBV?$basic_string@DU?$char_traits@D@std@@V?$allocator@D@2@@std@@V?$weak_ptr@USpriteData@@@2@@std@@@2@$0A@@std@@@std@@IAEXXZ 00460338     BuilderUI.obj
 0002:0000b35c       __unwindtable$?get@ImageManager@@SAPAV1@XZ 0046035c     BuilderUI.obj
 0002:0000b364       __ehfuncinfo$?get@ImageManager@@SAPAV1@XZ 00460364     BuilderUI.obj
 0002:0000b388       __unwindtable$?loadImage@ImageManager@@SA?AVSimpleImage@@V?$basic_string@DU?$char_traits@D@std@@V?$allocator@D@2@@std@@_N@Z 00460388     BuilderUI.obj
 0002:0000b398       __ehfuncinfo$?loadImage@ImageManager@@SA?AVSimpleImage@@V?$basic_string@DU?$char_traits@D@std@@V?$allocator@D@2@@std@@_N@Z 00460398     BuilderUI.obj
 0002:0000b3bc       __unwindtable$??0ImageManager@@QAE@XZ 004603bc     BuilderUI.obj
 0002:0000b3d4       __ehfuncinfo$??0ImageManager@@QAE@XZ 004603d4     BuilderUI.obj
 0002:0000b3f8       __ehfuncinfo$?getImagePtrbyURL@ImageManager@@QAE?AV?$shared_ptr@VRawImageData@@@std@@V?$basic_string@DU?$char_traits@D@std@@V?$allocator@D@2@@3@_N1@Z 004603f8     BuilderUI.obj
 0002:0000b41c       __unwindtable$?getImagePtrbyURL@ImageManager@@QAE?AV?$shared_ptr@VRawImageData@@@std@@V?$basic_string@DU?$char_traits@D@std@@V?$allocator@D@2@@3@_N1@Z 0046041c     BuilderUI.obj
 0002:0000b45c       __unwindtable$?getImagebyURL@ImageManager@@QAE?AVSimpleImage@@V?$basic_string@DU?$char_traits@D@std@@V?$allocator@D@2@@std@@_N1@Z 0046045c     BuilderUI.obj
 0002:0000b464       __ehfuncinfo$?getImagebyURL@ImageManager@@QAE?AVSimpleImage@@V?$basic_string@DU?$char_traits@D@std@@V?$allocator@D@2@@std@@_N1@Z 00460464     BuilderUI.obj
 0002:0000b488       __unwindtable$?loadAsNew@ImageManager@@QAE?AV?$shared_ptr@VRawImageData@@@std@@V?$basic_string@DU?$char_traits@D@std@@V?$allocator@D@2@@3@@Z 00460488     BuilderUI.obj
 0002:0000b498       __ehfuncinfo$?loadAsNew@ImageManager@@QAE?AV?$shared_ptr@VRawImageData@@@std@@V?$basic_string@DU?$char_traits@D@std@@V?$allocator@D@2@@3@@Z 00460498     BuilderUI.obj
 0002:0000b4bc       __ehfuncinfo$?getSpriteData@ImageManager@@QAE?AV?$shared_ptr@USpriteData@@@std@@V?$basic_string@DU?$char_traits@D@std@@V?$allocator@D@2@@3@@Z 004604bc     BuilderUI.obj
 0002:0000b4e0       __unwindtable$?getSpriteData@ImageManager@@QAE?AV?$shared_ptr@USpriteData@@@std@@V?$basic_string@DU?$char_traits@D@std@@V?$allocator@D@2@@3@@Z 004604e0     BuilderUI.obj
 0002:0000b528       __ehfuncinfo$?getSpriteFromImg@ImageManager@@QAE?AVSimpleImage@@V?$shared_ptr@USpriteData@@@std@@@Z 00460528     BuilderUI.obj
 0002:0000b54c       __unwindtable$?getSpriteFromImg@ImageManager@@QAE?AVSimpleImage@@V?$shared_ptr@USpriteData@@@std@@@Z 0046054c     BuilderUI.obj
 0002:0000b584       __unwindtable$??E?$_Tree_const_iterator@V?$_Tree_val@U?$_Tree_simple_types@U?$pair@$$CBV?$basic_string@DU?$char_traits@D@std@@V?$allocator@D@2@@std@@V?$weak_ptr@VRawImageData@@@2@@std@@@std@@@std@@@std@@QAE?AV01@H@Z 00460584     BuilderUI.obj
 0002:0000b58c       __ehfuncinfo$??E?$_Tree_const_iterator@V?$_Tree_val@U?$_Tree_simple_types@U?$pair@$$CBV?$basic_string@DU?$char_traits@D@std@@V?$allocator@D@2@@std@@V?$weak_ptr@VRawImageData@@@2@@std@@@std@@@std@@@std@@QAE?AV01@H@Z 0046058c     BuilderUI.obj
 0002:0000b5b0       __ehfuncinfo$??0?$weak_ptr@VRawImageData@@@std@@QAE@ABV01@@Z 004605b0     BuilderUI.obj
 0002:0000b5d4       __ehfuncinfo$??0?$weak_ptr@VRawImageData@@@std@@QAE@$$QAV01@@Z 004605d4     BuilderUI.obj
 0002:0000b5f8       __ehfuncinfo$??1?$weak_ptr@VRawImageData@@@std@@QAE@XZ 004605f8     BuilderUI.obj
 0002:0000b61c       __ehfuncinfo$?lock@?$weak_ptr@VRawImageData@@@std@@QBE?AV?$shared_ptr@VRawImageData@@@2@XZ 0046061c     BuilderUI.obj
 0002:0000b640       __unwindtable$??$erase@V?$_Tree_iterator@V?$_Tree_val@U?$_Tree_simple_types@U?$pair@$$CBV?$basic_string@DU?$char_traits@D@std@@V?$allocator@D@2@@std@@V?$weak_ptr@VRawImageData@@@2@@std@@@std@@@std@@@std@@X@?$_Tree@V?$_Tmap_traits@V?$basic_string@DU?$char_traits@D@std@@V?$allocator@D@2@@std@@V?$weak_ptr@VRawImageData@@@2@U?$less@V?$basic_string@DU?$char_traits@D@std@@V?$allocator@D@2@@std@@@2@V?$allocator@U?$pair@$$CBV?$basic_string@DU?$char_traits@D@std@@V?$allocator@D@2@@std@@V?$weak_ptr@VRawImageData@@@2@@std@@@2@$0A@@std@@@std@@QAE?AV?$_Tree_iterator@V?$_Tree_val@U?$_Tree_simple_types@U?$pair@$$CBV?$basic_string@DU?$char_traits@D@std@@V?$allocator@D@2@@std@@V?$weak_ptr@VRawImageData@@@2@@std@@@std@@@std@@@1@V21@@Z 00460640     BuilderUI.obj
 0002:0000b648       __ehfuncinfo$??$erase@V?$_Tree_iterator@V?$_Tree_val@U?$_Tree_simple_types@U?$pair@$$CBV?$basic_string@DU?$char_traits@D@std@@V?$allocator@D@2@@std@@V?$weak_ptr@VRawImageData@@@2@@std@@@std@@@std@@@std@@X@?$_Tree@V?$_Tmap_traits@V?$basic_string@DU?$char_traits@D@std@@V?$allocator@D@2@@std@@V?$weak_ptr@VRawImageData@@@2@U?$less@V?$basic_string@DU?$char_traits@D@std@@V?$allocator@D@2@@std@@@2@V?$allocator@U?$pair@$$CBV?$basic_string@DU?$char_traits@D@std@@V?$allocator@D@2@@std@@V?$weak_ptr@VRawImageData@@@2@@std@@@2@$0A@@std@@@std@@QAE?AV?$_Tree_iterator@V?$_Tree_val@U?$_Tree_simple_types@U?$pair@$$CBV?$basic_string@DU?$char_traits@D@std@@V?$allocator@D@2@@std@@V?$weak_ptr@VRawImageData@@@2@@std@@@std@@@std@@@1@V21@@Z 00460648     BuilderUI.obj
 0002:0000b66c       __ehfuncinfo$??$?0VRawImageData@@$0A@@?$weak_ptr@VRawImageData@@@std@@QAE@ABV?$shared_ptr@VRawImageData@@@1@@Z 0046066c     BuilderUI.obj
 0002:0000b690       __unwindtable$??E?$_Tree_const_iterator@V?$_Tree_val@U?$_Tree_simple_types@U?$pair@$$CBV?$basic_string@DU?$char_traits@D@std@@V?$allocator@D@2@@std@@V?$shared_ptr@VRawImageData@@@2@@std@@@std@@@std@@@std@@QAE?AV01@H@Z 00460690     BuilderUI.obj
 0002:0000b698       __ehfuncinfo$??E?$_Tree_const_iterator@V?$_Tree_val@U?$_Tree_simple_types@U?$pair@$$CBV?$basic_string@DU?$char_traits@D@std@@V?$allocator@D@2@@std@@V?$shared_ptr@VRawImageData@@@2@@std@@@std@@@std@@@std@@QAE?AV01@H@Z 00460698     BuilderUI.obj
 0002:0000b6bc       __ehfuncinfo$??0?$shared_ptr@USpriteData@@@std@@QAE@ABV01@@Z 004606bc     BuilderUI.obj
 0002:0000b6e0       __ehfuncinfo$??0?$shared_ptr@USpriteData@@@std@@QAE@$$QAV01@@Z 004606e0     BuilderUI.obj
 0002:0000b704       __ehfuncinfo$??1?$shared_ptr@USpriteData@@@std@@QAE@XZ 00460704     BuilderUI.obj
 0002:0000b728       __unwindtable$??E?$_Tree_const_iterator@V?$_Tree_val@U?$_Tree_simple_types@U?$pair@$$CBV?$basic_string@DU?$char_traits@D@std@@V?$allocator@D@2@@std@@V?$weak_ptr@USpriteData@@@2@@std@@@std@@@std@@@std@@QAE?AV01@H@Z 00460728     BuilderUI.obj
 0002:0000b730       __ehfuncinfo$??E?$_Tree_const_iterator@V?$_Tree_val@U?$_Tree_simple_types@U?$pair@$$CBV?$basic_string@DU?$char_traits@D@std@@V?$allocator@D@2@@std@@V?$weak_ptr@USpriteData@@@2@@std@@@std@@@std@@@std@@QAE?AV01@H@Z 00460730     BuilderUI.obj
 0002:0000b754       __ehfuncinfo$??0?$weak_ptr@USpriteData@@@std@@QAE@ABV01@@Z 00460754     BuilderUI.obj
 0002:0000b778       __ehfuncinfo$??0?$weak_ptr@USpriteData@@@std@@QAE@$$QAV01@@Z 00460778     BuilderUI.obj
 0002:0000b79c       __ehfuncinfo$??1?$weak_ptr@USpriteData@@@std@@QAE@XZ 0046079c     BuilderUI.obj
 0002:0000b7c0       __ehfuncinfo$?lock@?$weak_ptr@USpriteData@@@std@@QBE?AV?$shared_ptr@USpriteData@@@2@XZ 004607c0     BuilderUI.obj
 0002:0000b7e4       __unwindtable$??$erase@V?$_Tree_iterator@V?$_Tree_val@U?$_Tree_simple_types@U?$pair@$$CBV?$basic_string@DU?$char_traits@D@std@@V?$allocator@D@2@@std@@V?$weak_ptr@USpriteData@@@2@@std@@@std@@@std@@@std@@X@?$_Tree@V?$_Tmap_traits@V?$basic_string@DU?$char_traits@D@std@@V?$allocator@D@2@@std@@V?$weak_ptr@USpriteData@@@2@U?$less@V?$basic_string@DU?$char_traits@D@std@@V?$allocator@D@2@@std@@@2@V?$allocator@U?$pair@$$CBV?$basic_string@DU?$char_traits@D@std@@V?$allocator@D@2@@std@@V?$weak_ptr@USpriteData@@@2@@std@@@2@$0A@@std@@@std@@QAE?AV?$_Tree_iterator@V?$_Tree_val@U?$_Tree_simple_types@U?$pair@$$CBV?$basic_string@DU?$char_traits@D@std@@V?$allocator@D@2@@std@@V?$weak_ptr@USpriteData@@@2@@std@@@std@@@std@@@1@V21@@Z 004607e4     BuilderUI.obj
 0002:0000b7ec       __ehfuncinfo$??$erase@V?$_Tree_iterator@V?$_Tree_val@U?$_Tree_simple_types@U?$pair@$$CBV?$basic_string@DU?$char_traits@D@std@@V?$allocator@D@2@@std@@V?$weak_ptr@USpriteData@@@2@@std@@@std@@@std@@@std@@X@?$_Tree@V?$_Tmap_traits@V?$basic_string@DU?$char_traits@D@std@@V?$allocator@D@2@@std@@V?$weak_ptr@USpriteData@@@2@U?$less@V?$basic_string@DU?$char_traits@D@std@@V?$allocator@D@2@@std@@@2@V?$allocator@U?$pair@$$CBV?$basic_string@DU?$char_traits@D@std@@V?$allocator@D@2@@std@@V?$weak_ptr@USpriteData@@@2@@std@@@2@$0A@@std@@@std@@QAE?AV?$_Tree_iterator@V?$_Tree_val@U?$_Tree_simple_types@U?$pair@$$CBV?$basic_string@DU?$char_traits@D@std@@V?$allocator@D@2@@std@@V?$weak_ptr@USpriteData@@@2@@std@@@std@@@std@@@1@V21@@Z 004607ec     BuilderUI.obj
 0002:0000b810       __ehfuncinfo$??0?$GenericValue@U?$UTF8@D@rapidjson@@V?$MemoryPoolAllocator@VCrtAllocator@rapidjson@@@2@@rapidjson@@QAE@W4Type@1@@Z 00460810     BuilderUI.obj
 0002:0000b834       __ehfuncinfo$??0?$GenericValue@U?$UTF8@D@rapidjson@@V?$MemoryPoolAllocator@VCrtAllocator@rapidjson@@@2@@rapidjson@@QAE@PBDI@Z 00460834     BuilderUI.obj
 0002:0000b858       __ehfuncinfo$??0?$GenericValue@U?$UTF8@D@rapidjson@@V?$MemoryPoolAllocator@VCrtAllocator@rapidjson@@@2@@rapidjson@@QAE@U?$GenericStringRef@D@1@@Z 00460858     BuilderUI.obj
 0002:0000b87c       __ehfuncinfo$??1?$GenericValue@U?$UTF8@D@rapidjson@@V?$MemoryPoolAllocator@VCrtAllocator@rapidjson@@@2@@rapidjson@@QAE@XZ 0046087c     BuilderUI.obj
 0002:0000b8a0       __ehfuncinfo$?SetStringRaw@?$GenericValue@U?$UTF8@D@rapidjson@@V?$MemoryPoolAllocator@VCrtAllocator@rapidjson@@@2@@rapidjson@@AAEXU?$GenericStringRef@D@2@@Z 004608a0     BuilderUI.obj
 0002:0000b8c4       __unwindtable$??0?$GenericDocument@U?$UTF8@D@rapidjson@@V?$MemoryPoolAllocator@VCrtAllocator@rapidjson@@@2@VCrtAllocator@2@@rapidjson@@QAE@PAV?$MemoryPoolAllocator@VCrtAllocator@rapidjson@@@1@IPAVCrtAllocator@1@@Z 004608c4     BuilderUI.obj
 0002:0000b8dc       __ehfuncinfo$??0?$GenericDocument@U?$UTF8@D@rapidjson@@V?$MemoryPoolAllocator@VCrtAllocator@rapidjson@@@2@VCrtAllocator@2@@rapidjson@@QAE@PAV?$MemoryPoolAllocator@VCrtAllocator@rapidjson@@@1@IPAVCrtAllocator@1@@Z 004608dc     BuilderUI.obj
 0002:0000b900       __ehfuncinfo$??1?$GenericDocument@U?$UTF8@D@rapidjson@@V?$MemoryPoolAllocator@VCrtAllocator@rapidjson@@@2@VCrtAllocator@2@@rapidjson@@QAE@XZ 00460900     BuilderUI.obj
 0002:0000b924       __ehfuncinfo$??1?$Stack@VCrtAllocator@rapidjson@@@internal@rapidjson@@QAE@XZ 00460924     BuilderUI.obj
 0002:0000b948       __unwindtable$??$?A$$CBD@?$GenericValue@U?$UTF8@D@rapidjson@@V?$MemoryPoolAllocator@VCrtAllocator@rapidjson@@@2@@rapidjson@@QAEAAV01@PBD@Z 00460948     BuilderUI.obj
 0002:0000b950       __ehfuncinfo$??$?A$$CBD@?$GenericValue@U?$UTF8@D@rapidjson@@V?$MemoryPoolAllocator@VCrtAllocator@rapidjson@@@2@@rapidjson@@QAEAAV01@PBD@Z 00460950     BuilderUI.obj
 0002:0000b974       __ehfuncinfo$??$?0USpriteData@@$0A@@?$weak_ptr@USpriteData@@@std@@QAE@ABV?$shared_ptr@USpriteData@@@1@@Z 00460974     BuilderUI.obj
 0002:0000b998       __catchsym$?_Construct@?$_Tree_comp_alloc@V?$_Tmap_traits@V?$basic_string@DU?$char_traits@D@std@@V?$allocator@D@2@@std@@V?$shared_ptr@UPartData@@@2@U?$less@V?$basic_string@DU?$char_traits@D@std@@V?$allocator@D@2@@std@@@2@V?$allocator@U?$pair@$$CBV?$basic_string@DU?$char_traits@D@std@@V?$allocator@D@2@@std@@V?$shared_ptr@UPartData@@@2@@std@@@2@$0A@@std@@@std@@QAEXXZ$2 00460998     BuilderUI.obj
 0002:0000b9a8       __unwindtable$?_Construct@?$_Tree_comp_alloc@V?$_Tmap_traits@V?$basic_string@DU?$char_traits@D@std@@V?$allocator@D@2@@std@@V?$shared_ptr@UPartData@@@2@U?$less@V?$basic_string@DU?$char_traits@D@std@@V?$allocator@D@2@@std@@@2@V?$allocator@U?$pair@$$CBV?$basic_string@DU?$char_traits@D@std@@V?$allocator@D@2@@std@@V?$shared_ptr@UPartData@@@2@@std@@@2@$0A@@std@@@std@@QAEXXZ 004609a8     BuilderUI.obj
 0002:0000b9b8       __tryblocktable$?_Construct@?$_Tree_comp_alloc@V?$_Tmap_traits@V?$basic_string@DU?$char_traits@D@std@@V?$allocator@D@2@@std@@V?$shared_ptr@UPartData@@@2@U?$less@V?$basic_string@DU?$char_traits@D@std@@V?$allocator@D@2@@std@@@2@V?$allocator@U?$pair@$$CBV?$basic_string@DU?$char_traits@D@std@@V?$allocator@D@2@@std@@V?$shared_ptr@UPartData@@@2@@std@@@2@$0A@@std@@@std@@QAEXXZ 004609b8     BuilderUI.obj
 0002:0000b9cc       __ehfuncinfo$?_Construct@?$_Tree_comp_alloc@V?$_Tmap_traits@V?$basic_string@DU?$char_traits@D@std@@V?$allocator@D@2@@std@@V?$shared_ptr@UPartData@@@2@U?$less@V?$basic_string@DU?$char_traits@D@std@@V?$allocator@D@2@@std@@@2@V?$allocator@U?$pair@$$CBV?$basic_string@DU?$char_traits@D@std@@V?$allocator@D@2@@std@@V?$shared_ptr@UPartData@@@2@@std@@@2@$0A@@std@@@std@@QAEXXZ 004609cc     BuilderUI.obj
 0002:0000b9f0       __catchsym$?_Buyheadnode@?$_Tree_comp_alloc@V?$_Tmap_traits@V?$basic_string@DU?$char_traits@D@std@@V?$allocator@D@2@@std@@V?$shared_ptr@UPartData@@@2@U?$less@V?$basic_string@DU?$char_traits@D@std@@V?$allocator@D@2@@std@@@2@V?$allocator@U?$pair@$$CBV?$basic_string@DU?$char_traits@D@std@@V?$allocator@D@2@@std@@V?$shared_ptr@UPartData@@@2@@std@@@2@$0A@@std@@@std@@QAEPAU?$_Tree_node@U?$pair@$$CBV?$basic_string@DU?$char_traits@D@std@@V?$allocator@D@2@@std@@V?$shared_ptr@UPartData@@@2@@std@@PAX@2@XZ$2 004609f0     BuilderUI.obj
 0002:0000ba00       __unwindtable$?_Buyheadnode@?$_Tree_comp_alloc@V?$_Tmap_traits@V?$basic_string@DU?$char_traits@D@std@@V?$allocator@D@2@@std@@V?$shared_ptr@UPartData@@@2@U?$less@V?$basic_string@DU?$char_traits@D@std@@V?$allocator@D@2@@std@@@2@V?$allocator@U?$pair@$$CBV?$basic_string@DU?$char_traits@D@std@@V?$allocator@D@2@@std@@V?$shared_ptr@UPartData@@@2@@std@@@2@$0A@@std@@@std@@QAEPAU?$_Tree_node@U?$pair@$$CBV?$basic_string@DU?$char_traits@D@std@@V?$allocator@D@2@@std@@V?$shared_ptr@UPartData@@@2@@std@@PAX@2@XZ 00460a00     BuilderUI.obj
 0002:0000ba10       __tryblocktable$?_Buyheadnode@?$_Tree_comp_alloc@V?$_Tmap_traits@V?$basic_string@DU?$char_traits@D@std@@V?$allocator@D@2@@std@@V?$shared_ptr@UPartData@@@2@U?$less@V?$basic_string@DU?$char_traits@D@std@@V?$allocator@D@2@@std@@@2@V?$allocator@U?$pair@$$CBV?$basic_string@DU?$char_traits@D@std@@V?$allocator@D@2@@std@@V?$shared_ptr@UPartData@@@2@@std@@@2@$0A@@std@@@std@@QAEPAU?$_Tree_node@U?$pair@$$CBV?$basic_string@DU?$char_traits@D@std@@V?$allocator@D@2@@std@@V?$shared_ptr@UPartData@@@2@@std@@PAX@2@XZ 00460a10     BuilderUI.obj
 0002:0000ba24       __ehfuncinfo$?_Buyheadnode@?$_Tree_comp_alloc@V?$_Tmap_traits@V?$basic_string@DU?$char_traits@D@std@@V?$allocator@D@2@@std@@V?$shared_ptr@UPartData@@@2@U?$less@V?$basic_string@DU?$char_traits@D@std@@V?$allocator@D@2@@std@@@2@V?$allocator@U?$pair@$$CBV?$basic_string@DU?$char_traits@D@std@@V?$allocator@D@2@@std@@V?$shared_ptr@UPartData@@@2@@std@@@2@$0A@@std@@@std@@QAEPAU?$_Tree_node@U?$pair@$$CBV?$basic_string@DU?$char_traits@D@std@@V?$allocator@D@2@@std@@V?$shared_ptr@UPartData@@@2@@std@@PAX@2@XZ 00460a24     BuilderUI.obj
 0002:0000ba48       __unwindtable$?get@KSPMetaManager@@SAPAV1@XZ 00460a48     BuilderUI.obj
 0002:0000ba50       __ehfuncinfo$?get@KSPMetaManager@@SAPAV1@XZ 00460a50     BuilderUI.obj
 0002:0000ba74       __ehfuncinfo$??1?$_Vector_alloc@U?$_Vec_base_types@PAVRocketPart@@V?$allocator@PAVRocketPart@@@std@@@std@@@std@@QAE@XZ 00460a74     BuilderUI.obj
 0002:0000ba98       __ehfuncinfo$??1?$vector@PAVRocketPart@@V?$allocator@PAVRocketPart@@@std@@@std@@QAE@XZ 00460a98     BuilderUI.obj
 0002:0000babc       __ehfuncinfo$??0GUITextbox@@QAE@PAVKSP2D@@PBDHHHV?$function@$$A6AXV?$basic_string@DU?$char_traits@D@std@@V?$allocator@D@2@@std@@@Z@std@@@Z 00460abc     BuilderUI.obj
 0002:0000bae0       __unwindtable$??0GUITextbox@@QAE@PAVKSP2D@@PBDHHHV?$function@$$A6AXV?$basic_string@DU?$char_traits@D@std@@V?$allocator@D@2@@std@@@Z@std@@@Z 00460ae0     BuilderUI.obj
 0002:0000bb08       __ehfuncinfo$??1GUITextbox@@UAE@XZ 00460b08     BuilderUI.obj
 0002:0000bb2c       __unwindtable$??0?$function@$$A6AXV?$basic_string@DU?$char_traits@D@std@@V?$allocator@D@2@@std@@@Z@std@@QAE@$$QAV01@@Z 00460b2c     BuilderUI.obj
 0002:0000bb34       __ehfuncinfo$??0?$function@$$A6AXV?$basic_string@DU?$char_traits@D@std@@V?$allocator@D@2@@std@@@Z@std@@QAE@$$QAV01@@Z 00460b34     BuilderUI.obj
 0002:0000bb58       __ehfuncinfo$??0PartCatalogue@@QAE@PAVBaseEngine@@HHH@Z 00460b58     BuilderUI.obj
 0002:0000bb7c       __unwindtable$??0PartCatalogue@@QAE@PAVBaseEngine@@HHH@Z 00460b7c     BuilderUI.obj
 0002:0000bcc4       __ehfuncinfo$??1PartCatalogue@@UAE@XZ 00460cc4     BuilderUI.obj
 0002:0000bce8       __unwindtable$?isControllablePart@PartCatalogue@@SA_NABV?$basic_string@DU?$char_traits@D@std@@V?$allocator@D@2@@std@@@Z 00460ce8     BuilderUI.obj
 0002:0000bcf0       __ehfuncinfo$?isControllablePart@PartCatalogue@@SA_NABV?$basic_string@DU?$char_traits@D@std@@V?$allocator@D@2@@std@@@Z 00460cf0     BuilderUI.obj
 0002:0000bd14       __unwindtable$?virtMouseDown@PartCatalogue@@UAEXHHH@Z 00460d14     BuilderUI.obj
 0002:0000bd24       __ehfuncinfo$?virtMouseDown@PartCatalogue@@UAEXHHH@Z 00460d24     BuilderUI.obj
 0002:0000bd48       __unwindtable$?virtMouseUp@PartCatalogue@@UAEXHHH@Z 00460d48     BuilderUI.obj
 0002:0000bd50       __ehfuncinfo$?virtMouseUp@PartCatalogue@@UAEXHHH@Z 00460d50     BuilderUI.obj
 0002:0000bd74       __ehfuncinfo$?drawPartInfo@PartCatalogue@@QAEXPAVBaseEngine@@PAVDrawingSurface@@@Z 00460d74     BuilderUI.obj
 0002:0000bd98       __unwindtable$?drawPartInfo@PartCatalogue@@QAEXPAVBaseEngine@@PAVDrawingSurface@@@Z 00460d98     BuilderUI.obj
 0002:0000be08       __ehfuncinfo$??0?$shared_ptr@UPartData@@@std@@QAE@$$QAV01@@Z 00460e08     BuilderUI.obj
 0002:0000be2c       __ehfuncinfo$??1?$shared_ptr@UPartData@@@std@@QAE@XZ 00460e2c     BuilderUI.obj
 0002:0000be50       __ehfuncinfo$??1?$_Vector_alloc@U?$_Vec_base_types@PAVSimpleImage@@V?$allocator@PAVSimpleImage@@@std@@@std@@@std@@QAE@XZ 00460e50     BuilderUI.obj
 0002:0000be74       __ehfuncinfo$??0?$vector@PAVSimpleImage@@V?$allocator@PAVSimpleImage@@@std@@@std@@QAE@XZ 00460e74     BuilderUI.obj
 0002:0000be98       __ehfuncinfo$??1?$vector@PAVSimpleImage@@V?$allocator@PAVSimpleImage@@@std@@@std@@QAE@XZ 00460e98     BuilderUI.obj
 0002:0000bebc       __unwindtable$?_Orphan_range@?$vector@PAVSimpleImage@@V?$allocator@PAVSimpleImage@@@std@@@std@@ABEXPAPAVSimpleImage@@0@Z 00460ebc     BuilderUI.obj
 0002:0000bec4       __ehfuncinfo$?_Orphan_range@?$vector@PAVSimpleImage@@V?$allocator@PAVSimpleImage@@@std@@@std@@ABEXPAPAVSimpleImage@@0@Z 00460ec4     BuilderUI.obj
 0002:0000bee8       __ehfuncinfo$??1?$_Vector_alloc@U?$_Vec_base_types@V?$basic_string@DU?$char_traits@D@std@@V?$allocator@D@2@@std@@V?$allocator@V?$basic_string@DU?$char_traits@D@std@@V?$allocator@D@2@@std@@@2@@std@@@std@@QAE@XZ 00460ee8     BuilderUI.obj
 0002:0000bf0c       __ehfuncinfo$??0?$vector@V?$basic_string@DU?$char_traits@D@std@@V?$allocator@D@2@@std@@V?$allocator@V?$basic_string@DU?$char_traits@D@std@@V?$allocator@D@2@@std@@@2@@std@@QAE@XZ 00460f0c     BuilderUI.obj
 0002:0000bf30       __ehfuncinfo$??1?$vector@V?$basic_string@DU?$char_traits@D@std@@V?$allocator@D@2@@std@@V?$allocator@V?$basic_string@DU?$char_traits@D@std@@V?$allocator@D@2@@std@@@2@@std@@QAE@XZ 00460f30     BuilderUI.obj
 0002:0000bf54       __unwindtable$?_Orphan_range@?$vector@V?$basic_string@DU?$char_traits@D@std@@V?$allocator@D@2@@std@@V?$allocator@V?$basic_string@DU?$char_traits@D@std@@V?$allocator@D@2@@std@@@2@@std@@ABEXPAV?$basic_string@DU?$char_traits@D@std@@V?$allocator@D@2@@2@0@Z 00460f54     BuilderUI.obj
 0002:0000bf5c       __ehfuncinfo$?_Orphan_range@?$vector@V?$basic_string@DU?$char_traits@D@std@@V?$allocator@D@2@@std@@V?$allocator@V?$basic_string@DU?$char_traits@D@std@@V?$allocator@D@2@@std@@@2@@std@@ABEXPAV?$basic_string@DU?$char_traits@D@std@@V?$allocator@D@2@@2@0@Z 00460f5c     BuilderUI.obj
 0002:0000bf80       __ehfuncinfo$??0GUIButton@@QAE@PAVKSP2D@@PBDHHHHV?$function@$$A6AXXZ@std@@@Z 00460f80     BuilderUI.obj
 0002:0000bfa4       __unwindtable$??0GUIButton@@QAE@PAVKSP2D@@PBDHHHHV?$function@$$A6AXXZ@std@@@Z 00460fa4     BuilderUI.obj
 0002:0000bff4       __ehfuncinfo$??1GUIButton@@UAE@XZ 00460ff4     BuilderUI.obj
 0002:0000c018       __unwindtable$??0?$function@$$A6AXXZ@std@@QAE@$$QAV01@@Z 00461018     BuilderUI.obj
 0002:0000c020       __ehfuncinfo$??0?$function@$$A6AXXZ@std@@QAE@$$QAV01@@Z 00461020     BuilderUI.obj
 0002:0000c044       __ehfuncinfo$??0BuilderUI@@QAE@PAVKSP2D@@@Z 00461044     BuilderUI.obj
 0002:0000c068       __unwindtable$??0BuilderUI@@QAE@PAVKSP2D@@@Z 00461068     BuilderUI.obj
 0002:0000c090       __unwindtable$??$?0V<lambda_7c2dbb44a5d32349ebb3491b2c88eec0>@@X@?$function@$$A6AXXZ@std@@QAE@V<lambda_7c2dbb44a5d32349ebb3491b2c88eec0>@@@Z 00461090     BuilderUI.obj
 0002:0000c098       __ehfuncinfo$??$?0V<lambda_7c2dbb44a5d32349ebb3491b2c88eec0>@@X@?$function@$$A6AXXZ@std@@QAE@V<lambda_7c2dbb44a5d32349ebb3491b2c88eec0>@@@Z 00461098     BuilderUI.obj
 0002:0000c0bc       __unwindtable$??$?0V<lambda_3a905bc70563c738712533e87930e958>@@X@?$function@$$A6AXXZ@std@@QAE@V<lambda_3a905bc70563c738712533e87930e958>@@@Z 004610bc     BuilderUI.obj
 0002:0000c0c4       __ehfuncinfo$??$?0V<lambda_3a905bc70563c738712533e87930e958>@@X@?$function@$$A6AXXZ@std@@QAE@V<lambda_3a905bc70563c738712533e87930e958>@@@Z 004610c4     BuilderUI.obj
 0002:0000c0e8       __unwindtable$??$?0V<lambda_8e08e5546d00afac20621fd5d0739336>@@X@?$function@$$A6AXXZ@std@@QAE@V<lambda_8e08e5546d00afac20621fd5d0739336>@@@Z 004610e8     BuilderUI.obj
 0002:0000c0f0       __ehfuncinfo$??$?0V<lambda_8e08e5546d00afac20621fd5d0739336>@@X@?$function@$$A6AXXZ@std@@QAE@V<lambda_8e08e5546d00afac20621fd5d0739336>@@@Z 004610f0     BuilderUI.obj
 0002:0000c114       __catchsym$??$_Emplace_reallocate@V?$basic_string@DU?$char_traits@D@std@@V?$allocator@D@2@@std@@@?$vector@V?$basic_string@DU?$char_traits@D@std@@V?$allocator@D@2@@std@@V?$allocator@V?$basic_string@DU?$char_traits@D@std@@V?$allocator@D@2@@std@@@2@@std@@QAEPAV?$basic_string@DU?$char_traits@D@std@@V?$allocator@D@2@@1@QAV21@$$QAV21@@Z$2 00461114     BuilderUI.obj
 0002:0000c124       __unwindtable$??$_Emplace_reallocate@V?$basic_string@DU?$char_traits@D@std@@V?$allocator@D@2@@std@@@?$vector@V?$basic_string@DU?$char_traits@D@std@@V?$allocator@D@2@@std@@V?$allocator@V?$basic_string@DU?$char_traits@D@std@@V?$allocator@D@2@@std@@@2@@std@@QAEPAV?$basic_string@DU?$char_traits@D@std@@V?$allocator@D@2@@1@QAV21@$$QAV21@@Z 00461124     BuilderUI.obj
 0002:0000c134       __tryblocktable$??$_Emplace_reallocate@V?$basic_string@DU?$char_traits@D@std@@V?$allocator@D@2@@std@@@?$vector@V?$basic_string@DU?$char_traits@D@std@@V?$allocator@D@2@@std@@V?$allocator@V?$basic_string@DU?$char_traits@D@std@@V?$allocator@D@2@@std@@@2@@std@@QAEPAV?$basic_string@DU?$char_traits@D@std@@V?$allocator@D@2@@1@QAV21@$$QAV21@@Z 00461134     BuilderUI.obj
 0002:0000c148       __ehfuncinfo$??$_Emplace_reallocate@V?$basic_string@DU?$char_traits@D@std@@V?$allocator@D@2@@std@@@?$vector@V?$basic_string@DU?$char_traits@D@std@@V?$allocator@D@2@@std@@V?$allocator@V?$basic_string@DU?$char_traits@D@std@@V?$allocator@D@2@@std@@@2@@std@@QAEPAV?$basic_string@DU?$char_traits@D@std@@V?$allocator@D@2@@1@QAV21@$$QAV21@@Z 00461148     BuilderUI.obj
 0002:0000c16c       __catchsym$??$_Emplace_reallocate@PAVSimpleImage@@@?$vector@PAVSimpleImage@@V?$allocator@PAVSimpleImage@@@std@@@std@@QAEPAPAVSimpleImage@@QAPAV2@$$QAPAV2@@Z$2 0046116c     BuilderUI.obj
 0002:0000c17c       __unwindtable$??$_Emplace_reallocate@PAVSimpleImage@@@?$vector@PAVSimpleImage@@V?$allocator@PAVSimpleImage@@@std@@@std@@QAEPAPAVSimpleImage@@QAPAV2@$$QAPAV2@@Z 0046117c     BuilderUI.obj
 0002:0000c18c       __tryblocktable$??$_Emplace_reallocate@PAVSimpleImage@@@?$vector@PAVSimpleImage@@V?$allocator@PAVSimpleImage@@@std@@@std@@QAEPAPAVSimpleImage@@QAPAV2@$$QAPAV2@@Z 0046118c     BuilderUI.obj
 0002:0000c1a0       __ehfuncinfo$??$_Emplace_reallocate@PAVSimpleImage@@@?$vector@PAVSimpleImage@@V?$allocator@PAVSimpleImage@@@std@@@std@@QAEPAPAVSimpleImage@@QAPAV2@$$QAPAV2@@Z 004611a0     BuilderUI.obj
 0002:0000c1c4       __ehfuncinfo$??1?$MemoryPoolAllocator@VCrtAllocator@rapidjson@@@rapidjson@@QAE@XZ 004611c4     BuilderUI.obj
 0002:0000c1e8       __catchsym$??$_Emplace_reallocate@ABQAVDisplayableObject@@@?$vector@PAVDisplayableObject@@V?$allocator@PAVDisplayableObject@@@std@@@std@@QAEPAPAVDisplayableObject@@QAPAV2@ABQAV2@@Z$2 004611e8     BuilderUI.obj
 0002:0000c1f8       __unwindtable$??$_Emplace_reallocate@ABQAVDisplayableObject@@@?$vector@PAVDisplayableObject@@V?$allocator@PAVDisplayableObject@@@std@@@std@@QAEPAPAVDisplayableObject@@QAPAV2@ABQAV2@@Z 004611f8     BuilderUI.obj
 0002:0000c208       __tryblocktable$??$_Emplace_reallocate@ABQAVDisplayableObject@@@?$vector@PAVDisplayableObject@@V?$allocator@PAVDisplayableObject@@@std@@@std@@QAEPAPAVDisplayableObject@@QAPAV2@ABQAV2@@Z 00461208     BuilderUI.obj
 0002:0000c21c       __ehfuncinfo$??$_Emplace_reallocate@ABQAVDisplayableObject@@@?$vector@PAVDisplayableObject@@V?$allocator@PAVDisplayableObject@@@std@@@std@@QAEPAPAVDisplayableObject@@QAPAV2@ABQAV2@@Z 0046121c     BuilderUI.obj
 0002:0000c240       __unwindtable$??$?0V?$allocator@D@std@@X@?$_String_alloc@U?$_String_base_types@DV?$allocator@D@std@@@std@@@std@@QAE@$$QAV?$allocator@D@1@@Z 00461240     BuilderUI.obj
 0002:0000c248       __ehfuncinfo$??$?0V?$allocator@D@std@@X@?$_String_alloc@U?$_String_base_types@DV?$allocator@D@std@@@std@@@std@@QAE@$$QAV?$allocator@D@1@@Z 00461248     BuilderUI.obj
 0002:0000c26c       __ehfuncinfo$??$_Freenode0@V?$allocator@U?$_Tree_node@U?$pair@$$CBV?$basic_string@DU?$char_traits@D@std@@V?$allocator@D@2@@std@@V?$shared_ptr@UPartData@@@2@@std@@PAX@std@@@std@@@?$_Tree_node@U?$pair@$$CBV?$basic_string@DU?$char_traits@D@std@@V?$allocator@D@2@@std@@V?$shared_ptr@UPartData@@@2@@std@@PAX@std@@SAXAAV?$allocator@U?$_Tree_node@U?$pair@$$CBV?$basic_string@DU?$char_traits@D@std@@V?$allocator@D@2@@std@@V?$shared_ptr@UPartData@@@2@@std@@PAX@std@@@1@PAU01@@Z 0046126c     BuilderUI.obj
 0002:0000c290       __ehfuncinfo$??$_Freenode0@V?$allocator@U?$_Tree_node@U?$pair@$$CBV?$basic_string@DU?$char_traits@D@std@@V?$allocator@D@2@@std@@V?$weak_ptr@USpriteData@@@2@@std@@PAX@std@@@std@@@?$_Tree_node@U?$pair@$$CBV?$basic_string@DU?$char_traits@D@std@@V?$allocator@D@2@@std@@V?$weak_ptr@USpriteData@@@2@@std@@PAX@std@@SAXAAV?$allocator@U?$_Tree_node@U?$pair@$$CBV?$basic_string@DU?$char_traits@D@std@@V?$allocator@D@2@@std@@V?$weak_ptr@USpriteData@@@2@@std@@PAX@std@@@1@PAU01@@Z 00461290     BuilderUI.obj
 0002:0000c2b4       __ehfuncinfo$??$_Freenode0@V?$allocator@U?$_Tree_node@U?$pair@$$CBV?$basic_string@DU?$char_traits@D@std@@V?$allocator@D@2@@std@@V?$shared_ptr@VRawImageData@@@2@@std@@PAX@std@@@std@@@?$_Tree_node@U?$pair@$$CBV?$basic_string@DU?$char_traits@D@std@@V?$allocator@D@2@@std@@V?$shared_ptr@VRawImageData@@@2@@std@@PAX@std@@SAXAAV?$allocator@U?$_Tree_node@U?$pair@$$CBV?$basic_string@DU?$char_traits@D@std@@V?$allocator@D@2@@std@@V?$shared_ptr@VRawImageData@@@2@@std@@PAX@std@@@1@PAU01@@Z 004612b4     BuilderUI.obj
 0002:0000c2d8       __ehfuncinfo$??$_Freenode0@V?$allocator@U?$_Tree_node@U?$pair@$$CBV?$basic_string@DU?$char_traits@D@std@@V?$allocator@D@2@@std@@V?$weak_ptr@VRawImageData@@@2@@std@@PAX@std@@@std@@@?$_Tree_node@U?$pair@$$CBV?$basic_string@DU?$char_traits@D@std@@V?$allocator@D@2@@std@@V?$weak_ptr@VRawImageData@@@2@@std@@PAX@std@@SAXAAV?$allocator@U?$_Tree_node@U?$pair@$$CBV?$basic_string@DU?$char_traits@D@std@@V?$allocator@D@2@@std@@V?$weak_ptr@VRawImageData@@@2@@std@@PAX@std@@@1@PAU01@@Z 004612d8     BuilderUI.obj
 0002:0000c2fc       __unwindtable$??$?0PADX@?$basic_string@DU?$char_traits@D@std@@V?$allocator@D@2@@std@@QAE@PAD0ABV?$allocator@D@1@@Z 004612fc     BuilderUI.obj
 0002:0000c304       __ehfuncinfo$??$?0PADX@?$basic_string@DU?$char_traits@D@std@@V?$allocator@D@2@@std@@QAE@PAD0ABV?$allocator@D@1@@Z 00461304     BuilderUI.obj
 0002:0000c328       __ehfuncinfo$??1_Sentry_base@?$basic_ostream@DU?$char_traits@D@std@@@std@@QAE@XZ 00461328     BuilderUI.obj
 0002:0000c34c       __unwindtable$??0sentry@?$basic_ostream@DU?$char_traits@D@std@@@std@@QAE@AAV12@@Z 0046134c     BuilderUI.obj
 0002:0000c354       __ehfuncinfo$??0sentry@?$basic_ostream@DU?$char_traits@D@std@@@std@@QAE@AAV12@@Z 00461354     BuilderUI.obj
 0002:0000c378       __ehfuncinfo$??1sentry@?$basic_ostream@DU?$char_traits@D@std@@@std@@QAE@XZ 00461378     BuilderUI.obj
 0002:0000c39c       __catchsym$??$_Setp@VRawImageData@@@?$shared_ptr@VRawImageData@@@std@@AAEXPAVRawImageData@@U?$integral_constant@_N$0A@@1@@Z$3 0046139c     BuilderUI.obj
 0002:0000c3ac       __tryblocktable$??$_Setp@VRawImageData@@@?$shared_ptr@VRawImageData@@@std@@AAEXPAVRawImageData@@U?$integral_constant@_N$0A@@1@@Z 004613ac     BuilderUI.obj
 0002:0000c3c0       __unwindtable$??$_Setp@VRawImageData@@@?$shared_ptr@VRawImageData@@@std@@AAEXPAVRawImageData@@U?$integral_constant@_N$0A@@1@@Z 004613c0     BuilderUI.obj
 0002:0000c3d8       __ehfuncinfo$??$_Setp@VRawImageData@@@?$shared_ptr@VRawImageData@@@std@@AAEXPAVRawImageData@@U?$integral_constant@_N$0A@@1@@Z 004613d8     BuilderUI.obj
 0002:0000c3fc       __catchsym$??$_Insert_string@DU?$char_traits@D@std@@I@std@@YAAAV?$basic_ostream@DU?$char_traits@D@std@@@0@AAV10@QBDI@Z$3 004613fc     BuilderUI.obj
 0002:0000c40c       __tryblocktable$??$_Insert_string@DU?$char_traits@D@std@@I@std@@YAAAV?$basic_ostream@DU?$char_traits@D@std@@@0@AAV10@QBDI@Z 0046140c     BuilderUI.obj
 0002:0000c420       __unwindtable$??$_Insert_string@DU?$char_traits@D@std@@I@std@@YAAAV?$basic_ostream@DU?$char_traits@D@std@@@0@AAV10@QBDI@Z 00461420     BuilderUI.obj
 0002:0000c438       __ehfuncinfo$??$_Insert_string@DU?$char_traits@D@std@@I@std@@YAAAV?$basic_ostream@DU?$char_traits@D@std@@@0@AAV10@QBDI@Z 00461438     BuilderUI.obj
 0002:0000c45c       __unwindtable$??$ParseStream@$0A@U?$UTF8@D@rapidjson@@VFileReadStream@2@@?$GenericDocument@U?$UTF8@D@rapidjson@@V?$MemoryPoolAllocator@VCrtAllocator@rapidjson@@@2@VCrtAllocator@2@@rapidjson@@QAEAAV01@AAVFileReadStream@1@@Z 0046145c     BuilderUI.obj
 0002:0000c46c       __ehfuncinfo$??$ParseStream@$0A@U?$UTF8@D@rapidjson@@VFileReadStream@2@@?$GenericDocument@U?$UTF8@D@rapidjson@@V?$MemoryPoolAllocator@VCrtAllocator@rapidjson@@@2@VCrtAllocator@2@@rapidjson@@QAEAAV01@AAVFileReadStream@1@@Z 0046146c     BuilderUI.obj
 0002:0000c490       __catchsym$??$_Setp@USpriteData@@@?$shared_ptr@USpriteData@@@std@@AAEXPAUSpriteData@@U?$integral_constant@_N$0A@@1@@Z$3 00461490     BuilderUI.obj
 0002:0000c4a0       __tryblocktable$??$_Setp@USpriteData@@@?$shared_ptr@USpriteData@@@std@@AAEXPAUSpriteData@@U?$integral_constant@_N$0A@@1@@Z 004614a0     BuilderUI.obj
 0002:0000c4b4       __unwindtable$??$_Setp@USpriteData@@@?$shared_ptr@USpriteData@@@std@@AAEXPAUSpriteData@@U?$integral_constant@_N$0A@@1@@Z 004614b4     BuilderUI.obj
 0002:0000c4cc       __ehfuncinfo$??$_Setp@USpriteData@@@?$shared_ptr@USpriteData@@@std@@AAEXPAUSpriteData@@U?$integral_constant@_N$0A@@1@@Z 004614cc     BuilderUI.obj
 0002:0000c4f0       __unwindtable$??$?0ABV?$allocator@D@std@@X@?$_String_alloc@U?$_String_base_types@DV?$allocator@D@std@@@std@@@std@@QAE@ABV?$allocator@D@1@@Z 004614f0     BuilderUI.obj
 0002:0000c4f8       __ehfuncinfo$??$?0ABV?$allocator@D@std@@X@?$_String_alloc@U?$_String_base_types@DV?$allocator@D@std@@@std@@@std@@QAE@ABV?$allocator@D@1@@Z 004614f8     BuilderUI.obj
 0002:0000c51c       __catchsym$??$_Buynode@U?$pair@V?$basic_string@DU?$char_traits@D@std@@V?$allocator@D@2@@std@@V?$weak_ptr@VRawImageData@@@2@@std@@@?$_Tree_comp_alloc@V?$_Tmap_traits@V?$basic_string@DU?$char_traits@D@std@@V?$allocator@D@2@@std@@V?$weak_ptr@VRawImageData@@@2@U?$less@V?$basic_string@DU?$char_traits@D@std@@V?$allocator@D@2@@std@@@2@V?$allocator@U?$pair@$$CBV?$basic_string@DU?$char_traits@D@std@@V?$allocator@D@2@@std@@V?$weak_ptr@VRawImageData@@@2@@std@@@2@$0A@@std@@@std@@QAEPAU?$_Tree_node@U?$pair@$$CBV?$basic_string@DU?$char_traits@D@std@@V?$allocator@D@2@@std@@V?$weak_ptr@VRawImageData@@@2@@std@@PAX@1@$$QAU?$pair@V?$basic_string@DU?$char_traits@D@std@@V?$allocator@D@2@@std@@V?$weak_ptr@VRawImageData@@@2@@1@@Z$2 0046151c     BuilderUI.obj
 0002:0000c52c       __unwindtable$??$_Buynode@U?$pair@V?$basic_string@DU?$char_traits@D@std@@V?$allocator@D@2@@std@@V?$weak_ptr@VRawImageData@@@2@@std@@@?$_Tree_comp_alloc@V?$_Tmap_traits@V?$basic_string@DU?$char_traits@D@std@@V?$allocator@D@2@@std@@V?$weak_ptr@VRawImageData@@@2@U?$less@V?$basic_string@DU?$char_traits@D@std@@V?$allocator@D@2@@std@@@2@V?$allocator@U?$pair@$$CBV?$basic_string@DU?$char_traits@D@std@@V?$allocator@D@2@@std@@V?$weak_ptr@VRawImageData@@@2@@std@@@2@$0A@@std@@@std@@QAEPAU?$_Tree_node@U?$pair@$$CBV?$basic_string@DU?$char_traits@D@std@@V?$allocator@D@2@@std@@V?$weak_ptr@VRawImageData@@@2@@std@@PAX@1@$$QAU?$pair@V?$basic_string@DU?$char_traits@D@std@@V?$allocator@D@2@@std@@V?$weak_ptr@VRawImageData@@@2@@1@@Z 0046152c     BuilderUI.obj
 0002:0000c53c       __tryblocktable$??$_Buynode@U?$pair@V?$basic_string@DU?$char_traits@D@std@@V?$allocator@D@2@@std@@V?$weak_ptr@VRawImageData@@@2@@std@@@?$_Tree_comp_alloc@V?$_Tmap_traits@V?$basic_string@DU?$char_traits@D@std@@V?$allocator@D@2@@std@@V?$weak_ptr@VRawImageData@@@2@U?$less@V?$basic_string@DU?$char_traits@D@std@@V?$allocator@D@2@@std@@@2@V?$allocator@U?$pair@$$CBV?$basic_string@DU?$char_traits@D@std@@V?$allocator@D@2@@std@@V?$weak_ptr@VRawImageData@@@2@@std@@@2@$0A@@std@@@std@@QAEPAU?$_Tree_node@U?$pair@$$CBV?$basic_string@DU?$char_traits@D@std@@V?$allocator@D@2@@std@@V?$weak_ptr@VRawImageData@@@2@@std@@PAX@1@$$QAU?$pair@V?$basic_string@DU?$char_traits@D@std@@V?$allocator@D@2@@std@@V?$weak_ptr@VRawImageData@@@2@@1@@Z 0046153c     BuilderUI.obj
 0002:0000c550       __ehfuncinfo$??$_Buynode@U?$pair@V?$basic_string@DU?$char_traits@D@std@@V?$allocator@D@2@@std@@V?$weak_ptr@VRawImageData@@@2@@std@@@?$_Tree_comp_alloc@V?$_Tmap_traits@V?$basic_string@DU?$char_traits@D@std@@V?$allocator@D@2@@std@@V?$weak_ptr@VRawImageData@@@2@U?$less@V?$basic_string@DU?$char_traits@D@std@@V?$allocator@D@2@@std@@@2@V?$allocator@U?$pair@$$CBV?$basic_string@DU?$char_traits@D@std@@V?$allocator@D@2@@std@@V?$weak_ptr@VRawImageData@@@2@@std@@@2@$0A@@std@@@std@@QAEPAU?$_Tree_node@U?$pair@$$CBV?$basic_string@DU?$char_traits@D@std@@V?$allocator@D@2@@std@@V?$weak_ptr@VRawImageData@@@2@@std@@PAX@1@$$QAU?$pair@V?$basic_string@DU?$char_traits@D@std@@V?$allocator@D@2@@std@@V?$weak_ptr@VRawImageData@@@2@@1@@Z 00461550     BuilderUI.obj
 0002:0000c574       __catchsym$??$_Insert_nohint@AAU?$pair@$$CBV?$basic_string@DU?$char_traits@D@std@@V?$allocator@D@2@@std@@V?$weak_ptr@VRawImageData@@@2@@std@@PAU?$_Tree_node@U?$pair@$$CBV?$basic_string@DU?$char_traits@D@std@@V?$allocator@D@2@@std@@V?$weak_ptr@VRawImageData@@@2@@std@@PAX@2@@?$_Tree@V?$_Tmap_traits@V?$basic_string@DU?$char_traits@D@std@@V?$allocator@D@2@@std@@V?$weak_ptr@VRawImageData@@@2@U?$less@V?$basic_string@DU?$char_traits@D@std@@V?$allocator@D@2@@std@@@2@V?$allocator@U?$pair@$$CBV?$basic_string@DU?$char_traits@D@std@@V?$allocator@D@2@@std@@V?$weak_ptr@VRawImageData@@@2@@std@@@2@$0A@@std@@@std@@IAE?AU?$pair@V?$_Tree_iterator@V?$_Tree_val@U?$_Tree_simple_types@U?$pair@$$CBV?$basic_string@DU?$char_traits@D@std@@V?$allocator@D@2@@std@@V?$weak_ptr@VRawImageData@@@2@@std@@@std@@@std@@@std@@_N@1@_NAAU?$pair@$$CBV?$basic_string@DU?$char_traits@D@std@@V?$allocator@D@2@@std@@V?$weak_ptr@VRawImageData@@@2@@1@PAU?$_Tree_node@U?$pair@$$CBV?$basic_string@DU?$char_traits@D@std@@V?$allocator@D@2@@std@@V?$weak_ptr@VRawImageData@@@2@@std@@PAX@1@@Z$8 00461574     BuilderUI.obj
 0002:0000c584       __tryblocktable$??$_Insert_nohint@AAU?$pair@$$CBV?$basic_string@DU?$char_traits@D@std@@V?$allocator@D@2@@std@@V?$weak_ptr@VRawImageData@@@2@@std@@PAU?$_Tree_node@U?$pair@$$CBV?$basic_string@DU?$char_traits@D@std@@V?$allocator@D@2@@std@@V?$weak_ptr@VRawImageData@@@2@@std@@PAX@2@@?$_Tree@V?$_Tmap_traits@V?$basic_string@DU?$char_traits@D@std@@V?$allocator@D@2@@std@@V?$weak_ptr@VRawImageData@@@2@U?$less@V?$basic_string@DU?$char_traits@D@std@@V?$allocator@D@2@@std@@@2@V?$allocator@U?$pair@$$CBV?$basic_string@DU?$char_traits@D@std@@V?$allocator@D@2@@std@@V?$weak_ptr@VRawImageData@@@2@@std@@@2@$0A@@std@@@std@@IAE?AU?$pair@V?$_Tree_iterator@V?$_Tree_val@U?$_Tree_simple_types@U?$pair@$$CBV?$basic_string@DU?$char_traits@D@std@@V?$allocator@D@2@@std@@V?$weak_ptr@VRawImageData@@@2@@std@@@std@@@std@@@std@@_N@1@_NAAU?$pair@$$CBV?$basic_string@DU?$char_traits@D@std@@V?$allocator@D@2@@std@@V?$weak_ptr@VRawImageData@@@2@@1@PAU?$_Tree_node@U?$pair@$$CBV?$basic_string@DU?$char_traits@D@std@@V?$allocator@D@2@@std@@V?$weak_ptr@VRawImageData@@@2@@std@@PAX@1@@Z 00461584     BuilderUI.obj
 0002:0000c598       __unwindtable$??$_Insert_nohint@AAU?$pair@$$CBV?$basic_string@DU?$char_traits@D@std@@V?$allocator@D@2@@std@@V?$weak_ptr@VRawImageData@@@2@@std@@PAU?$_Tree_node@U?$pair@$$CBV?$basic_string@DU?$char_traits@D@std@@V?$allocator@D@2@@std@@V?$weak_ptr@VRawImageData@@@2@@std@@PAX@2@@?$_Tree@V?$_Tmap_traits@V?$basic_string@DU?$char_traits@D@std@@V?$allocator@D@2@@std@@V?$weak_ptr@VRawImageData@@@2@U?$less@V?$basic_string@DU?$char_traits@D@std@@V?$allocator@D@2@@std@@@2@V?$allocator@U?$pair@$$CBV?$basic_string@DU?$char_traits@D@std@@V?$allocator@D@2@@std@@V?$weak_ptr@VRawImageData@@@2@@std@@@2@$0A@@std@@@std@@IAE?AU?$pair@V?$_Tree_iterator@V?$_Tree_val@U?$_Tree_simple_types@U?$pair@$$CBV?$basic_string@DU?$char_traits@D@std@@V?$allocator@D@2@@std@@V?$weak_ptr@VRawImageData@@@2@@std@@@std@@@std@@@std@@_N@1@_NAAU?$pair@$$CBV?$basic_string@DU?$char_traits@D@std@@V?$allocator@D@2@@std@@V?$weak_ptr@VRawImageData@@@2@@1@PAU?$_Tree_node@U?$pair@$$CBV?$basic_string@DU?$char_traits@D@std@@V?$allocator@D@2@@std@@V?$weak_ptr@VRawImageData@@@2@@std@@PAX@1@@Z 00461598     BuilderUI.obj
 0002:0000c5b8       __ehfuncinfo$??$_Insert_nohint@AAU?$pair@$$CBV?$basic_string@DU?$char_traits@D@std@@V?$allocator@D@2@@std@@V?$weak_ptr@VRawImageData@@@2@@std@@PAU?$_Tree_node@U?$pair@$$CBV?$basic_string@DU?$char_traits@D@std@@V?$allocator@D@2@@std@@V?$weak_ptr@VRawImageData@@@2@@std@@PAX@2@@?$_Tree@V?$_Tmap_traits@V?$basic_string@DU?$char_traits@D@std@@V?$allocator@D@2@@std@@V?$weak_ptr@VRawImageData@@@2@U?$less@V?$basic_string@DU?$char_traits@D@std@@V?$allocator@D@2@@std@@@2@V?$allocator@U?$pair@$$CBV?$basic_string@DU?$char_traits@D@std@@V?$allocator@D@2@@std@@V?$weak_ptr@VRawImageData@@@2@@std@@@2@$0A@@std@@@std@@IAE?AU?$pair@V?$_Tree_iterator@V?$_Tree_val@U?$_Tree_simple_types@U?$pair@$$CBV?$basic_string@DU?$char_traits@D@std@@V?$allocator@D@2@@std@@V?$weak_ptr@VRawImageData@@@2@@std@@@std@@@std@@@std@@_N@1@_NAAU?$pair@$$CBV?$basic_string@DU?$char_traits@D@std@@V?$allocator@D@2@@std@@V?$weak_ptr@VRawImageData@@@2@@1@PAU?$_Tree_node@U?$pair@$$CBV?$basic_string@DU?$char_traits@D@std@@V?$allocator@D@2@@std@@V?$weak_ptr@VRawImageData@@@2@@std@@PAX@1@@Z 004615b8     BuilderUI.obj
 0002:0000c5dc       __catchsym$??$_Buynode@U?$pair@V?$basic_string@DU?$char_traits@D@std@@V?$allocator@D@2@@std@@V?$shared_ptr@VRawImageData@@@2@@std@@@?$_Tree_comp_alloc@V?$_Tmap_traits@V?$basic_string@DU?$char_traits@D@std@@V?$allocator@D@2@@std@@V?$shared_ptr@VRawImageData@@@2@U?$less@V?$basic_string@DU?$char_traits@D@std@@V?$allocator@D@2@@std@@@2@V?$allocator@U?$pair@$$CBV?$basic_string@DU?$char_traits@D@std@@V?$allocator@D@2@@std@@V?$shared_ptr@VRawImageData@@@2@@std@@@2@$0A@@std@@@std@@QAEPAU?$_Tree_node@U?$pair@$$CBV?$basic_string@DU?$char_traits@D@std@@V?$allocator@D@2@@std@@V?$shared_ptr@VRawImageData@@@2@@std@@PAX@1@$$QAU?$pair@V?$basic_string@DU?$char_traits@D@std@@V?$allocator@D@2@@std@@V?$shared_ptr@VRawImageData@@@2@@1@@Z$2 004615dc     BuilderUI.obj
 0002:0000c5ec       __unwindtable$??$_Buynode@U?$pair@V?$basic_string@DU?$char_traits@D@std@@V?$allocator@D@2@@std@@V?$shared_ptr@VRawImageData@@@2@@std@@@?$_Tree_comp_alloc@V?$_Tmap_traits@V?$basic_string@DU?$char_traits@D@std@@V?$allocator@D@2@@std@@V?$shared_ptr@VRawImageData@@@2@U?$less@V?$basic_string@DU?$char_traits@D@std@@V?$allocator@D@2@@std@@@2@V?$allocator@U?$pair@$$CBV?$basic_string@DU?$char_traits@D@std@@V?$allocator@D@2@@std@@V?$shared_ptr@VRawImageData@@@2@@std@@@2@$0A@@std@@@std@@QAEPAU?$_Tree_node@U?$pair@$$CBV?$basic_string@DU?$char_traits@D@std@@V?$allocator@D@2@@std@@V?$shared_ptr@VRawImageData@@@2@@std@@PAX@1@$$QAU?$pair@V?$basic_string@DU?$char_traits@D@std@@V?$allocator@D@2@@std@@V?$shared_ptr@VRawImageData@@@2@@1@@Z 004615ec     BuilderUI.obj
 0002:0000c5fc       __tryblocktable$??$_Buynode@U?$pair@V?$basic_string@DU?$char_traits@D@std@@V?$allocator@D@2@@std@@V?$shared_ptr@VRawImageData@@@2@@std@@@?$_Tree_comp_alloc@V?$_Tmap_traits@V?$basic_string@DU?$char_traits@D@std@@V?$allocator@D@2@@std@@V?$shared_ptr@VRawImageData@@@2@U?$less@V?$basic_string@DU?$char_traits@D@std@@V?$allocator@D@2@@std@@@2@V?$allocator@U?$pair@$$CBV?$basic_string@DU?$char_traits@D@std@@V?$allocator@D@2@@std@@V?$shared_ptr@VRawImageData@@@2@@std@@@2@$0A@@std@@@std@@QAEPAU?$_Tree_node@U?$pair@$$CBV?$basic_string@DU?$char_traits@D@std@@V?$allocator@D@2@@std@@V?$shared_ptr@VRawImageData@@@2@@std@@PAX@1@$$QAU?$pair@V?$basic_string@DU?$char_traits@D@std@@V?$allocator@D@2@@std@@V?$shared_ptr@VRawImageData@@@2@@1@@Z 004615fc     BuilderUI.obj
 0002:0000c610       __ehfuncinfo$??$_Buynode@U?$pair@V?$basic_string@DU?$char_traits@D@std@@V?$allocator@D@2@@std@@V?$shared_ptr@VRawImageData@@@2@@std@@@?$_Tree_comp_alloc@V?$_Tmap_traits@V?$basic_string@DU?$char_traits@D@std@@V?$allocator@D@2@@std@@V?$shared_ptr@VRawImageData@@@2@U?$less@V?$basic_string@DU?$char_traits@D@std@@V?$allocator@D@2@@std@@@2@V?$allocator@U?$pair@$$CBV?$basic_string@DU?$char_traits@D@std@@V?$allocator@D@2@@std@@V?$shared_ptr@VRawImageData@@@2@@std@@@2@$0A@@std@@@std@@QAEPAU?$_Tree_node@U?$pair@$$CBV?$basic_string@DU?$char_traits@D@std@@V?$allocator@D@2@@std@@V?$shared_ptr@VRawImageData@@@2@@std@@PAX@1@$$QAU?$pair@V?$basic_string@DU?$char_traits@D@std@@V?$allocator@D@2@@std@@V?$shared_ptr@VRawImageData@@@2@@1@@Z 00461610     BuilderUI.obj
 0002:0000c634       __catchsym$??$_Insert_nohint@AAU?$pair@$$CBV?$basic_string@DU?$char_traits@D@std@@V?$allocator@D@2@@std@@V?$shared_ptr@VRawImageData@@@2@@std@@PAU?$_Tree_node@U?$pair@$$CBV?$basic_string@DU?$char_traits@D@std@@V?$allocator@D@2@@std@@V?$shared_ptr@VRawImageData@@@2@@std@@PAX@2@@?$_Tree@V?$_Tmap_traits@V?$basic_string@DU?$char_traits@D@std@@V?$allocator@D@2@@std@@V?$shared_ptr@VRawImageData@@@2@U?$less@V?$basic_string@DU?$char_traits@D@std@@V?$allocator@D@2@@std@@@2@V?$allocator@U?$pair@$$CBV?$basic_string@DU?$char_traits@D@std@@V?$allocator@D@2@@std@@V?$shared_ptr@VRawImageData@@@2@@std@@@2@$0A@@std@@@std@@IAE?AU?$pair@V?$_Tree_iterator@V?$_Tree_val@U?$_Tree_simple_types@U?$pair@$$CBV?$basic_string@DU?$char_traits@D@std@@V?$allocator@D@2@@std@@V?$shared_ptr@VRawImageData@@@2@@std@@@std@@@std@@@std@@_N@1@_NAAU?$pair@$$CBV?$basic_string@DU?$char_traits@D@std@@V?$allocator@D@2@@std@@V?$shared_ptr@VRawImageData@@@2@@1@PAU?$_Tree_node@U?$pair@$$CBV?$basic_string@DU?$char_traits@D@std@@V?$allocator@D@2@@std@@V?$shared_ptr@VRawImageData@@@2@@std@@PAX@1@@Z$8 00461634     BuilderUI.obj
 0002:0000c644       __tryblocktable$??$_Insert_nohint@AAU?$pair@$$CBV?$basic_string@DU?$char_traits@D@std@@V?$allocator@D@2@@std@@V?$shared_ptr@VRawImageData@@@2@@std@@PAU?$_Tree_node@U?$pair@$$CBV?$basic_string@DU?$char_traits@D@std@@V?$allocator@D@2@@std@@V?$shared_ptr@VRawImageData@@@2@@std@@PAX@2@@?$_Tree@V?$_Tmap_traits@V?$basic_string@DU?$char_traits@D@std@@V?$allocator@D@2@@std@@V?$shared_ptr@VRawImageData@@@2@U?$less@V?$basic_string@DU?$char_traits@D@std@@V?$allocator@D@2@@std@@@2@V?$allocator@U?$pair@$$CBV?$basic_string@DU?$char_traits@D@std@@V?$allocator@D@2@@std@@V?$shared_ptr@VRawImageData@@@2@@std@@@2@$0A@@std@@@std@@IAE?AU?$pair@V?$_Tree_iterator@V?$_Tree_val@U?$_Tree_simple_types@U?$pair@$$CBV?$basic_string@DU?$char_traits@D@std@@V?$allocator@D@2@@std@@V?$shared_ptr@VRawImageData@@@2@@std@@@std@@@std@@@std@@_N@1@_NAAU?$pair@$$CBV?$basic_string@DU?$char_traits@D@std@@V?$allocator@D@2@@std@@V?$shared_ptr@VRawImageData@@@2@@1@PAU?$_Tree_node@U?$pair@$$CBV?$basic_string@DU?$char_traits@D@std@@V?$allocator@D@2@@std@@V?$shared_ptr@VRawImageData@@@2@@std@@PAX@1@@Z 00461644     BuilderUI.obj
 0002:0000c658       __unwindtable$??$_Insert_nohint@AAU?$pair@$$CBV?$basic_string@DU?$char_traits@D@std@@V?$allocator@D@2@@std@@V?$shared_ptr@VRawImageData@@@2@@std@@PAU?$_Tree_node@U?$pair@$$CBV?$basic_string@DU?$char_traits@D@std@@V?$allocator@D@2@@std@@V?$shared_ptr@VRawImageData@@@2@@std@@PAX@2@@?$_Tree@V?$_Tmap_traits@V?$basic_string@DU?$char_traits@D@std@@V?$allocator@D@2@@std@@V?$shared_ptr@VRawImageData@@@2@U?$less@V?$basic_string@DU?$char_traits@D@std@@V?$allocator@D@2@@std@@@2@V?$allocator@U?$pair@$$CBV?$basic_string@DU?$char_traits@D@std@@V?$allocator@D@2@@std@@V?$shared_ptr@VRawImageData@@@2@@std@@@2@$0A@@std@@@std@@IAE?AU?$pair@V?$_Tree_iterator@V?$_Tree_val@U?$_Tree_simple_types@U?$pair@$$CBV?$basic_string@DU?$char_traits@D@std@@V?$allocator@D@2@@std@@V?$shared_ptr@VRawImageData@@@2@@std@@@std@@@std@@@std@@_N@1@_NAAU?$pair@$$CBV?$basic_string@DU?$char_traits@D@std@@V?$allocator@D@2@@std@@V?$shared_ptr@VRawImageData@@@2@@1@PAU?$_Tree_node@U?$pair@$$CBV?$basic_string@DU?$char_traits@D@std@@V?$allocator@D@2@@std@@V?$shared_ptr@VRawImageData@@@2@@std@@PAX@1@@Z 00461658     BuilderUI.obj
 0002:0000c678       __ehfuncinfo$??$_Insert_nohint@AAU?$pair@$$CBV?$basic_string@DU?$char_traits@D@std@@V?$allocator@D@2@@std@@V?$shared_ptr@VRawImageData@@@2@@std@@PAU?$_Tree_node@U?$pair@$$CBV?$basic_string@DU?$char_traits@D@std@@V?$allocator@D@2@@std@@V?$shared_ptr@VRawImageData@@@2@@std@@PAX@2@@?$_Tree@V?$_Tmap_traits@V?$basic_string@DU?$char_traits@D@std@@V?$allocator@D@2@@std@@V?$shared_ptr@VRawImageData@@@2@U?$less@V?$basic_string@DU?$char_traits@D@std@@V?$allocator@D@2@@std@@@2@V?$allocator@U?$pair@$$CBV?$basic_string@DU?$char_traits@D@std@@V?$allocator@D@2@@std@@V?$shared_ptr@VRawImageData@@@2@@std@@@2@$0A@@std@@@std@@IAE?AU?$pair@V?$_Tree_iterator@V?$_Tree_val@U?$_Tree_simple_types@U?$pair@$$CBV?$basic_string@DU?$char_traits@D@std@@V?$allocator@D@2@@std@@V?$shared_ptr@VRawImageData@@@2@@std@@@std@@@std@@@std@@_N@1@_NAAU?$pair@$$CBV?$basic_string@DU?$char_traits@D@std@@V?$allocator@D@2@@std@@V?$shared_ptr@VRawImageData@@@2@@1@PAU?$_Tree_node@U?$pair@$$CBV?$basic_string@DU?$char_traits@D@std@@V?$allocator@D@2@@std@@V?$shared_ptr@VRawImageData@@@2@@std@@PAX@1@@Z 00461678     BuilderUI.obj
 0002:0000c69c       __unwindtable$??0?$GenericReader@U?$UTF8@D@rapidjson@@U12@VCrtAllocator@2@@rapidjson@@QAE@PAVCrtAllocator@1@I@Z 0046169c     BuilderUI.obj
 0002:0000c6a4       __ehfuncinfo$??0?$GenericReader@U?$UTF8@D@rapidjson@@U12@VCrtAllocator@2@@rapidjson@@QAE@PAVCrtAllocator@1@I@Z 004616a4     BuilderUI.obj
 0002:0000c6c8       __ehfuncinfo$??1ClearStackOnExit@?$GenericDocument@U?$UTF8@D@rapidjson@@V?$MemoryPoolAllocator@VCrtAllocator@rapidjson@@@2@VCrtAllocator@2@@rapidjson@@QAE@XZ 004616c8     BuilderUI.obj
 0002:0000c6ec       __unwindtable$??$Parse@$0A@VFileReadStream@rapidjson@@V?$GenericDocument@U?$UTF8@D@rapidjson@@V?$MemoryPoolAllocator@VCrtAllocator@rapidjson@@@2@VCrtAllocator@2@@2@@?$GenericReader@U?$UTF8@D@rapidjson@@U12@VCrtAllocator@2@@rapidjson@@QAE?AUParseResult@1@AAVFileReadStream@1@AAV?$GenericDocument@U?$UTF8@D@rapidjson@@V?$MemoryPoolAllocator@VCrtAllocator@rapidjson@@@2@VCrtAllocator@2@@1@@Z 004616ec     BuilderUI.obj
 0002:0000c6f4       __ehfuncinfo$??$Parse@$0A@VFileReadStream@rapidjson@@V?$GenericDocument@U?$UTF8@D@rapidjson@@V?$MemoryPoolAllocator@VCrtAllocator@rapidjson@@@2@VCrtAllocator@2@@2@@?$GenericReader@U?$UTF8@D@rapidjson@@U12@VCrtAllocator@2@@rapidjson@@QAE?AUParseResult@1@AAVFileReadStream@1@AAV?$GenericDocument@U?$UTF8@D@rapidjson@@V?$MemoryPoolAllocator@VCrtAllocator@rapidjson@@@2@VCrtAllocator@2@@1@@Z 004616f4     BuilderUI.obj
 0002:0000c718       __catchsym$??$_Buynode@U?$pair@V?$basic_string@DU?$char_traits@D@std@@V?$allocator@D@2@@std@@V?$weak_ptr@USpriteData@@@2@@std@@@?$_Tree_comp_alloc@V?$_Tmap_traits@V?$basic_string@DU?$char_traits@D@std@@V?$allocator@D@2@@std@@V?$weak_ptr@USpriteData@@@2@U?$less@V?$basic_string@DU?$char_traits@D@std@@V?$allocator@D@2@@std@@@2@V?$allocator@U?$pair@$$CBV?$basic_string@DU?$char_traits@D@std@@V?$allocator@D@2@@std@@V?$weak_ptr@USpriteData@@@2@@std@@@2@$0A@@std@@@std@@QAEPAU?$_Tree_node@U?$pair@$$CBV?$basic_string@DU?$char_traits@D@std@@V?$allocator@D@2@@std@@V?$weak_ptr@USpriteData@@@2@@std@@PAX@1@$$QAU?$pair@V?$basic_string@DU?$char_traits@D@std@@V?$allocator@D@2@@std@@V?$weak_ptr@USpriteData@@@2@@1@@Z$2 00461718     BuilderUI.obj
 0002:0000c728       __unwindtable$??$_Buynode@U?$pair@V?$basic_string@DU?$char_traits@D@std@@V?$allocator@D@2@@std@@V?$weak_ptr@USpriteData@@@2@@std@@@?$_Tree_comp_alloc@V?$_Tmap_traits@V?$basic_string@DU?$char_traits@D@std@@V?$allocator@D@2@@std@@V?$weak_ptr@USpriteData@@@2@U?$less@V?$basic_string@DU?$char_traits@D@std@@V?$allocator@D@2@@std@@@2@V?$allocator@U?$pair@$$CBV?$basic_string@DU?$char_traits@D@std@@V?$allocator@D@2@@std@@V?$weak_ptr@USpriteData@@@2@@std@@@2@$0A@@std@@@std@@QAEPAU?$_Tree_node@U?$pair@$$CBV?$basic_string@DU?$char_traits@D@std@@V?$allocator@D@2@@std@@V?$weak_ptr@USpriteData@@@2@@std@@PAX@1@$$QAU?$pair@V?$basic_string@DU?$char_traits@D@std@@V?$allocator@D@2@@std@@V?$weak_ptr@USpriteData@@@2@@1@@Z 00461728     BuilderUI.obj
 0002:0000c738       __tryblocktable$??$_Buynode@U?$pair@V?$basic_string@DU?$char_traits@D@std@@V?$allocator@D@2@@std@@V?$weak_ptr@USpriteData@@@2@@std@@@?$_Tree_comp_alloc@V?$_Tmap_traits@V?$basic_string@DU?$char_traits@D@std@@V?$allocator@D@2@@std@@V?$weak_ptr@USpriteData@@@2@U?$less@V?$basic_string@DU?$char_traits@D@std@@V?$allocator@D@2@@std@@@2@V?$allocator@U?$pair@$$CBV?$basic_string@DU?$char_traits@D@std@@V?$allocator@D@2@@std@@V?$weak_ptr@USpriteData@@@2@@std@@@2@$0A@@std@@@std@@QAEPAU?$_Tree_node@U?$pair@$$CBV?$basic_string@DU?$char_traits@D@std@@V?$allocator@D@2@@std@@V?$weak_ptr@USpriteData@@@2@@std@@PAX@1@$$QAU?$pair@V?$basic_string@DU?$char_traits@D@std@@V?$allocator@D@2@@std@@V?$weak_ptr@USpriteData@@@2@@1@@Z 00461738     BuilderUI.obj
 0002:0000c74c       __ehfuncinfo$??$_Buynode@U?$pair@V?$basic_string@DU?$char_traits@D@std@@V?$allocator@D@2@@std@@V?$weak_ptr@USpriteData@@@2@@std@@@?$_Tree_comp_alloc@V?$_Tmap_traits@V?$basic_string@DU?$char_traits@D@std@@V?$allocator@D@2@@std@@V?$weak_ptr@USpriteData@@@2@U?$less@V?$basic_string@DU?$char_traits@D@std@@V?$allocator@D@2@@std@@@2@V?$allocator@U?$pair@$$CBV?$basic_string@DU?$char_traits@D@std@@V?$allocator@D@2@@std@@V?$weak_ptr@USpriteData@@@2@@std@@@2@$0A@@std@@@std@@QAEPAU?$_Tree_node@U?$pair@$$CBV?$basic_string@DU?$char_traits@D@std@@V?$allocator@D@2@@std@@V?$weak_ptr@USpriteData@@@2@@std@@PAX@1@$$QAU?$pair@V?$basic_string@DU?$char_traits@D@std@@V?$allocator@D@2@@std@@V?$weak_ptr@USpriteData@@@2@@1@@Z 0046174c     BuilderUI.obj
 0002:0000c770       __catchsym$??$_Insert_nohint@AAU?$pair@$$CBV?$basic_string@DU?$char_traits@D@std@@V?$allocator@D@2@@std@@V?$weak_ptr@USpriteData@@@2@@std@@PAU?$_Tree_node@U?$pair@$$CBV?$basic_string@DU?$char_traits@D@std@@V?$allocator@D@2@@std@@V?$weak_ptr@USpriteData@@@2@@std@@PAX@2@@?$_Tree@V?$_Tmap_traits@V?$basic_string@DU?$char_traits@D@std@@V?$allocator@D@2@@std@@V?$weak_ptr@USpriteData@@@2@U?$less@V?$basic_string@DU?$char_traits@D@std@@V?$allocator@D@2@@std@@@2@V?$allocator@U?$pair@$$CBV?$basic_string@DU?$char_traits@D@std@@V?$allocator@D@2@@std@@V?$weak_ptr@USpriteData@@@2@@std@@@2@$0A@@std@@@std@@IAE?AU?$pair@V?$_Tree_iterator@V?$_Tree_val@U?$_Tree_simple_types@U?$pair@$$CBV?$basic_string@DU?$char_traits@D@std@@V?$allocator@D@2@@std@@V?$weak_ptr@USpriteData@@@2@@std@@@std@@@std@@@std@@_N@1@_NAAU?$pair@$$CBV?$basic_string@DU?$char_traits@D@std@@V?$allocator@D@2@@std@@V?$weak_ptr@USpriteData@@@2@@1@PAU?$_Tree_node@U?$pair@$$CBV?$basic_string@DU?$char_traits@D@std@@V?$allocator@D@2@@std@@V?$weak_ptr@USpriteData@@@2@@std@@PAX@1@@Z$8 00461770     BuilderUI.obj
 0002:0000c780       __tryblocktable$??$_Insert_nohint@AAU?$pair@$$CBV?$basic_string@DU?$char_traits@D@std@@V?$allocator@D@2@@std@@V?$weak_ptr@USpriteData@@@2@@std@@PAU?$_Tree_node@U?$pair@$$CBV?$basic_string@DU?$char_traits@D@std@@V?$allocator@D@2@@std@@V?$weak_ptr@USpriteData@@@2@@std@@PAX@2@@?$_Tree@V?$_Tmap_traits@V?$basic_string@DU?$char_traits@D@std@@V?$allocator@D@2@@std@@V?$weak_ptr@USpriteData@@@2@U?$less@V?$basic_string@DU?$char_traits@D@std@@V?$allocator@D@2@@std@@@2@V?$allocator@U?$pair@$$CBV?$basic_string@DU?$char_traits@D@std@@V?$allocator@D@2@@std@@V?$weak_ptr@USpriteData@@@2@@std@@@2@$0A@@std@@@std@@IAE?AU?$pair@V?$_Tree_iterator@V?$_Tree_val@U?$_Tree_simple_types@U?$pair@$$CBV?$basic_string@DU?$char_traits@D@std@@V?$allocator@D@2@@std@@V?$weak_ptr@USpriteData@@@2@@std@@@std@@@std@@@std@@_N@1@_NAAU?$pair@$$CBV?$basic_string@DU?$char_traits@D@std@@V?$allocator@D@2@@std@@V?$weak_ptr@USpriteData@@@2@@1@PAU?$_Tree_node@U?$pair@$$CBV?$basic_string@DU?$char_traits@D@std@@V?$allocator@D@2@@std@@V?$weak_ptr@USpriteData@@@2@@std@@PAX@1@@Z 00461780     BuilderUI.obj
 0002:0000c794       __unwindtable$??$_Insert_nohint@AAU?$pair@$$CBV?$basic_string@DU?$char_traits@D@std@@V?$allocator@D@2@@std@@V?$weak_ptr@USpriteData@@@2@@std@@PAU?$_Tree_node@U?$pair@$$CBV?$basic_string@DU?$char_traits@D@std@@V?$allocator@D@2@@std@@V?$weak_ptr@USpriteData@@@2@@std@@PAX@2@@?$_Tree@V?$_Tmap_traits@V?$basic_string@DU?$char_traits@D@std@@V?$allocator@D@2@@std@@V?$weak_ptr@USpriteData@@@2@U?$less@V?$basic_string@DU?$char_traits@D@std@@V?$allocator@D@2@@std@@@2@V?$allocator@U?$pair@$$CBV?$basic_string@DU?$char_traits@D@std@@V?$allocator@D@2@@std@@V?$weak_ptr@USpriteData@@@2@@std@@@2@$0A@@std@@@std@@IAE?AU?$pair@V?$_Tree_iterator@V?$_Tree_val@U?$_Tree_simple_types@U?$pair@$$CBV?$basic_string@DU?$char_traits@D@std@@V?$allocator@D@2@@std@@V?$weak_ptr@USpriteData@@@2@@std@@@std@@@std@@@std@@_N@1@_NAAU?$pair@$$CBV?$basic_string@DU?$char_traits@D@std@@V?$allocator@D@2@@std@@V?$weak_ptr@USpriteData@@@2@@1@PAU?$_Tree_node@U?$pair@$$CBV?$basic_string@DU?$char_traits@D@std@@V?$allocator@D@2@@std@@V?$weak_ptr@USpriteData@@@2@@std@@PAX@1@@Z 00461794     BuilderUI.obj
 0002:0000c7b4       __ehfuncinfo$??$_Insert_nohint@AAU?$pair@$$CBV?$basic_string@DU?$char_traits@D@std@@V?$allocator@D@2@@std@@V?$weak_ptr@USpriteData@@@2@@std@@PAU?$_Tree_node@U?$pair@$$CBV?$basic_string@DU?$char_traits@D@std@@V?$allocator@D@2@@std@@V?$weak_ptr@USpriteData@@@2@@std@@PAX@2@@?$_Tree@V?$_Tmap_traits@V?$basic_string@DU?$char_traits@D@std@@V?$allocator@D@2@@std@@V?$weak_ptr@USpriteData@@@2@U?$less@V?$basic_string@DU?$char_traits@D@std@@V?$allocator@D@2@@std@@@2@V?$allocator@U?$pair@$$CBV?$basic_string@DU?$char_traits@D@std@@V?$allocator@D@2@@std@@V?$weak_ptr@USpriteData@@@2@@std@@@2@$0A@@std@@@std@@IAE?AU?$pair@V?$_Tree_iterator@V?$_Tree_val@U?$_Tree_simple_types@U?$pair@$$CBV?$basic_string@DU?$char_traits@D@std@@V?$allocator@D@2@@std@@V?$weak_ptr@USpriteData@@@2@@std@@@std@@@std@@@std@@_N@1@_NAAU?$pair@$$CBV?$basic_string@DU?$char_traits@D@std@@V?$allocator@D@2@@std@@V?$weak_ptr@USpriteData@@@2@@1@PAU?$_Tree_node@U?$pair@$$CBV?$basic_string@DU?$char_traits@D@std@@V?$allocator@D@2@@std@@V?$weak_ptr@USpriteData@@@2@@std@@PAX@1@@Z 004617b4     BuilderUI.obj
 0002:0000c7d8       __ehfuncinfo$?_Delete_this@?$_Func_impl_no_alloc@V<lambda_7c2dbb44a5d32349ebb3491b2c88eec0>@@X$$V@std@@EAEX_N@Z 004617d8     BuilderUI.obj
 0002:0000c7fc       __ehfuncinfo$?_Delete_this@?$_Func_impl_no_alloc@V<lambda_3a905bc70563c738712533e87930e958>@@X$$V@std@@EAEX_N@Z 004617fc     BuilderUI.obj
 0002:0000c820       __ehfuncinfo$?_Delete_this@?$_Func_impl_no_alloc@V<lambda_8e08e5546d00afac20621fd5d0739336>@@X$$V@std@@EAEX_N@Z 00461820     BuilderUI.obj
 0002:0000c844       __unwindtable$??$_Uninitialized_move_al_unchecked@PAV?$basic_string@DU?$char_traits@D@std@@V?$allocator@D@2@@std@@PAV12@V?$allocator@V?$basic_string@DU?$char_traits@D@std@@V?$allocator@D@2@@std@@@2@@std@@YAPAV?$basic_string@DU?$char_traits@D@std@@V?$allocator@D@2@@0@PAV10@QAV10@1AAV?$allocator@V?$basic_string@DU?$char_traits@D@std@@V?$allocator@D@2@@std@@@0@U_General_ptr_iterator_tag@0@U_Unused_parameter@0@@Z 00461844     BuilderUI.obj
 0002:0000c84c       __ehfuncinfo$??$_Uninitialized_move_al_unchecked@PAV?$basic_string@DU?$char_traits@D@std@@V?$allocator@D@2@@std@@PAV12@V?$allocator@V?$basic_string@DU?$char_traits@D@std@@V?$allocator@D@2@@std@@@2@@std@@YAPAV?$basic_string@DU?$char_traits@D@std@@V?$allocator@D@2@@0@PAV10@QAV10@1AAV?$allocator@V?$basic_string@DU?$char_traits@D@std@@V?$allocator@D@2@@std@@@0@U_General_ptr_iterator_tag@0@U_Unused_parameter@0@@Z 0046184c     BuilderUI.obj
 0002:0000c870       __unwindtable$??$IterativeParse@$0A@VFileReadStream@rapidjson@@V?$GenericDocument@U?$UTF8@D@rapidjson@@V?$MemoryPoolAllocator@VCrtAllocator@rapidjson@@@2@VCrtAllocator@2@@2@@?$GenericReader@U?$UTF8@D@rapidjson@@U12@VCrtAllocator@2@@rapidjson@@AAE?AUParseResult@1@AAVFileReadStream@1@AAV?$GenericDocument@U?$UTF8@D@rapidjson@@V?$MemoryPoolAllocator@VCrtAllocator@rapidjson@@@2@VCrtAllocator@2@@1@@Z 00461870     BuilderUI.obj
 0002:0000c878       __ehfuncinfo$??$IterativeParse@$0A@VFileReadStream@rapidjson@@V?$GenericDocument@U?$UTF8@D@rapidjson@@V?$MemoryPoolAllocator@VCrtAllocator@rapidjson@@@2@VCrtAllocator@2@@2@@?$GenericReader@U?$UTF8@D@rapidjson@@U12@VCrtAllocator@2@@rapidjson@@AAE?AUParseResult@1@AAVFileReadStream@1@AAV?$GenericDocument@U?$UTF8@D@rapidjson@@V?$MemoryPoolAllocator@VCrtAllocator@rapidjson@@@2@VCrtAllocator@2@@1@@Z 00461878     BuilderUI.obj
 0002:0000c89c       __ehfuncinfo$??1ClearStackOnExit@?$GenericReader@U?$UTF8@D@rapidjson@@U12@VCrtAllocator@2@@rapidjson@@QAE@XZ 0046189c     BuilderUI.obj
 0002:0000c8c0       __ehfuncinfo$??1?$_Uninitialized_backout_al@PAV?$basic_string@DU?$char_traits@D@std@@V?$allocator@D@2@@std@@V?$allocator@V?$basic_string@DU?$char_traits@D@std@@V?$allocator@D@2@@std@@@2@@std@@QAE@XZ 004618c0     BuilderUI.obj
 0002:0000c8e4       __unwindtable$?setupSpacecraftControls@GUIManager@@QAEXPAVBasicSpacecraft@@@Z 004618e4     GUIManager.obj
 0002:0000c8ec       __unwindtable$??0GUIManager@@AAE@PAVKSP2D@@@Z 004618ec     GUIManager.obj
 0002:0000c8fc       __ehfuncinfo$??0GUIManager@@AAE@PAVKSP2D@@@Z 004618fc     GUIManager.obj
 0002:0000c920       __ehfuncinfo$?setupSpacecraftControls@GUIManager@@QAEXPAVBasicSpacecraft@@@Z 00461920     GUIManager.obj
 0002:0000c944       __unwindtable$??0?$basic_string@DU?$char_traits@D@std@@V?$allocator@D@2@@std@@QAE@ID@Z 00461944     SpacecraftControls.obj
 0002:0000c94c       __ehfuncinfo$??0?$basic_string@DU?$char_traits@D@std@@V?$allocator@D@2@@std@@QAE@ID@Z 0046194c     SpacecraftControls.obj
 0002:0000c970       __unwindtable$??$_Floating_to_string@N@std@@YA?AV?$basic_string@DU?$char_traits@D@std@@V?$allocator@D@2@@0@PBDN@Z 00461970     SpacecraftControls.obj
 0002:0000c978       __ehfuncinfo$??$_Floating_to_string@N@std@@YA?AV?$basic_string@DU?$char_traits@D@std@@V?$allocator@D@2@@0@PBDN@Z 00461978     SpacecraftControls.obj
 0002:0000c99c       __unwindtable$??$_Floating_to_string@O@std@@YA?AV?$basic_string@DU?$char_traits@D@std@@V?$allocator@D@2@@0@PBDO@Z 0046199c     SpacecraftControls.obj
 0002:0000c9a4       __ehfuncinfo$??$_Floating_to_string@O@std@@YA?AV?$basic_string@DU?$char_traits@D@std@@V?$allocator@D@2@@0@PBDO@Z 004619a4     SpacecraftControls.obj
 0002:0000c9c8       __unwindtable$??$?HDU?$char_traits@D@std@@V?$allocator@D@1@@std@@YA?AV?$basic_string@DU?$char_traits@D@std@@V?$allocator@D@2@@0@ABV10@QBD@Z 004619c8     SpacecraftControls.obj
 0002:0000c9d0       __ehfuncinfo$??$?HDU?$char_traits@D@std@@V?$allocator@D@1@@std@@YA?AV?$basic_string@DU?$char_traits@D@std@@V?$allocator@D@2@@0@ABV10@QBD@Z 004619d0     SpacecraftControls.obj
 0002:0000c9f4       __unwindtable$??0DragableObject@@QAE@PAVBaseEngine@@HH_N1@Z 004619f4     SpacecraftControls.obj
 0002:0000c9fc       __ehfuncinfo$??0DragableObject@@QAE@PAVBaseEngine@@HH_N1@Z 004619fc     SpacecraftControls.obj
 0002:0000ca20       __ehfuncinfo$?draw@SpacecraftControls@@QAEXH@Z 00461a20     SpacecraftControls.obj
 0002:0000ca44       __ehfuncinfo$??0SpacecraftControls@@QAE@PAVKSP2D@@PAVBasicSpacecraft@@@Z 00461a44     SpacecraftControls.obj
 0002:0000ca68       __unwindtable$??0SpacecraftControls@@QAE@PAVKSP2D@@PAVBasicSpacecraft@@@Z 00461a68     SpacecraftControls.obj
 0002:0000ca90       __unwindtable$?draw@SpacecraftControls@@QAEXH@Z 00461a90     SpacecraftControls.obj
 0002:0000cac8       __unwindtable$??0?$GUISlider@N@@QAE@PAVBaseEngine@@HHHAANNNV?$function@$$A6AXN@Z@std@@I_N@Z 00461ac8     SpacecraftControls.obj
 0002:0000cae0       __ehfuncinfo$??0?$GUISlider@N@@QAE@PAVBaseEngine@@HHHAANNNV?$function@$$A6AXN@Z@std@@I_N@Z 00461ae0     SpacecraftControls.obj
 0002:0000cb04       __unwindtable$?draw@?$GUISlider@N@@QAEXXZ 00461b04     SpacecraftControls.obj
 0002:0000cb0c       __ehfuncinfo$?draw@?$GUISlider@N@@QAEXXZ 00461b0c     SpacecraftControls.obj
 0002:0000cb30       __unwindtable$??0?$function@$$A6AXN@Z@std@@QAE@ABV01@@Z 00461b30     SpacecraftControls.obj
 0002:0000cb38       __ehfuncinfo$??0?$function@$$A6AXN@Z@std@@QAE@ABV01@@Z 00461b38     SpacecraftControls.obj
 0002:0000cb5c       __unwindtable$??0?$GUISlider@O@@QAE@PAVBaseEngine@@HHHAAOOOV?$function@$$A6AXO@Z@std@@I_N@Z 00461b5c     SpacecraftControls.obj
 0002:0000cb74       __ehfuncinfo$??0?$GUISlider@O@@QAE@PAVBaseEngine@@HHHAAOOOV?$function@$$A6AXO@Z@std@@I_N@Z 00461b74     SpacecraftControls.obj
 0002:0000cb98       __unwindtable$?draw@?$GUISlider@O@@QAEXXZ 00461b98     SpacecraftControls.obj
 0002:0000cba0       __ehfuncinfo$?draw@?$GUISlider@O@@QAEXXZ 00461ba0     SpacecraftControls.obj
 0002:0000cbc4       __unwindtable$??0?$function@$$A6AXO@Z@std@@QAE@ABV01@@Z 00461bc4     SpacecraftControls.obj
 0002:0000cbcc       __ehfuncinfo$??0?$function@$$A6AXO@Z@std@@QAE@ABV01@@Z 00461bcc     SpacecraftControls.obj
 0002:0000cbf0       __unwindtable$??$?0V<lambda_7ea10a720369ab96e6aeba8866acc821>@@X@?$function@$$A6AXO@Z@std@@QAE@V<lambda_7ea10a720369ab96e6aeba8866acc821>@@@Z 00461bf0     SpacecraftControls.obj
 0002:0000cbf8       __ehfuncinfo$??$?0V<lambda_7ea10a720369ab96e6aeba8866acc821>@@X@?$function@$$A6AXO@Z@std@@QAE@V<lambda_7ea10a720369ab96e6aeba8866acc821>@@@Z 00461bf8     SpacecraftControls.obj
 0002:0000cc1c       __unwindtable$??$?0V<lambda_1947b0fcc41a160ce2363252446458a1>@@X@?$function@$$A6AXO@Z@std@@QAE@V<lambda_1947b0fcc41a160ce2363252446458a1>@@@Z 00461c1c     SpacecraftControls.obj
 0002:0000cc24       __ehfuncinfo$??$?0V<lambda_1947b0fcc41a160ce2363252446458a1>@@X@?$function@$$A6AXO@Z@std@@QAE@V<lambda_1947b0fcc41a160ce2363252446458a1>@@@Z 00461c24     SpacecraftControls.obj
 0002:0000cc48       __ehfuncinfo$?_Delete_this@?$_Func_impl_no_alloc@V<lambda_7ea10a720369ab96e6aeba8866acc821>@@XO@std@@EAEX_N@Z 00461c48     SpacecraftControls.obj
 0002:0000cc6c       __ehfuncinfo$?_Delete_this@?$_Func_impl_no_alloc@V<lambda_1947b0fcc41a160ce2363252446458a1>@@XO@std@@EAEX_N@Z 00461c6c     SpacecraftControls.obj
 0002:0000cc90       __ehfuncinfo$?_Make_iterator@?$_Vector_alloc@U?$_Vec_base_types@PAVDisplayableObject@@V?$allocator@PAVDisplayableObject@@@std@@@std@@@std@@QAE?AV?$_Vector_iterator@V?$_Vector_val@U?$_Simple_types@PAVDisplayableObject@@@std@@@std@@@2@QAPAVDisplayableObject@@@Z 00461c90     KSP2D.obj
 0002:0000ccb4       __unwindtable$?insert@?$vector@PAVDisplayableObject@@V?$allocator@PAVDisplayableObject@@@std@@@std@@QAE?AV?$_Vector_iterator@V?$_Vector_val@U?$_Simple_types@PAVDisplayableObject@@@std@@@std@@@2@V?$_Vector_const_iterator@V?$_Vector_val@U?$_Simple_types@PAVDisplayableObject@@@std@@@std@@@2@ABQAVDisplayableObject@@@Z 00461cb4     KSP2D.obj
 0002:0000ccbc       __ehfuncinfo$?insert@?$vector@PAVDisplayableObject@@V?$allocator@PAVDisplayableObject@@@std@@@std@@QAE?AV?$_Vector_iterator@V?$_Vector_val@U?$_Simple_types@PAVDisplayableObject@@@std@@@std@@@2@V?$_Vector_const_iterator@V?$_Vector_val@U?$_Simple_types@PAVDisplayableObject@@@std@@@std@@@2@ABQAVDisplayableObject@@@Z 00461cbc     KSP2D.obj
 0002:0000cce0       __unwindtable$?init@SimpleTrig@@SAXXZ 00461ce0     KSP2D.obj
 0002:0000cce8       __ehfuncinfo$?init@SimpleTrig@@SAXXZ 00461ce8     KSP2D.obj
 0002:0000cd0c       __unwindtable$?applyGravity@PhysBody@@QAEXPAV1@@Z 00461d0c     KSP2D.obj
 0002:0000cd1c       __ehfuncinfo$?applyGravity@PhysBody@@QAEXPAV1@@Z 00461d1c     KSP2D.obj
 0002:0000cd40       __ehfuncinfo$??0Planet@@QAE@PAVBaseEngine@@PBD11OOOOPAVVec2D@@NONPAVCelestialBody@@@Z 00461d40     KSP2D.obj
 0002:0000cd64       __unwindtable$??0Planet@@QAE@PAVBaseEngine@@PBD11OOOOPAVVec2D@@NONPAVCelestialBody@@@Z 00461d64     KSP2D.obj
 0002:0000cd94       __ehfuncinfo$??0Sun@@QAE@PAVBaseEngine@@PBD11OOOOPAVVec2D@@@Z 00461d94     KSP2D.obj
 0002:0000cdb8       __unwindtable$??0Sun@@QAE@PAVBaseEngine@@PBD11OOOOPAVVec2D@@@Z 00461db8     KSP2D.obj
 0002:0000cde8       __unwindtable$?drawForegroundArrow@KSP2D@@QAEXHHVVec2D@@HI@Z 00461de8     KSP2D.obj
 0002:0000cdf0       __ehfuncinfo$?addNewSpacecraft@KSP2D@@QAEXXZ 00461df0     KSP2D.obj
 0002:0000ce14       __ehfuncinfo$?drawForegroundArrow@KSP2D@@QAEXHHVVec2D@@HI@Z 00461e14     KSP2D.obj
 0002:0000ce38       __ehfuncinfo$?virtInitialiseObjects@KSP2D@@UAEHXZ 00461e38     KSP2D.obj
 0002:0000ce5c       __ehfuncinfo$??0KSP2D@@QAE@XZ 00461e5c     KSP2D.obj
 0002:0000ce80       __unwindtable$?addNewSpacecraft@KSP2D@@QAEXXZ 00461e80     KSP2D.obj
 0002:0000cea8       __unwindtable$??0KSP2D@@QAE@XZ 00461ea8     KSP2D.obj
 0002:0000cee0       __unwindtable$?virtInitialiseObjects@KSP2D@@UAEHXZ 00461ee0     KSP2D.obj
 0002:0000cf58       __ehfuncinfo$??1?$_Vector_alloc@U?$_Vec_base_types@PAVCelestialBody@@V?$allocator@PAVCelestialBody@@@std@@@std@@@std@@QAE@XZ 00461f58     KSP2D.obj
 0002:0000cf7c       __ehfuncinfo$??0?$vector@PAVCelestialBody@@V?$allocator@PAVCelestialBody@@@std@@@std@@QAE@XZ 00461f7c     KSP2D.obj
 0002:0000cfa0       __ehfuncinfo$??1?$vector@PAVCelestialBody@@V?$allocator@PAVCelestialBody@@@std@@@std@@QAE@XZ 00461fa0     KSP2D.obj
 0002:0000cfc4       __unwindtable$?_Orphan_range@?$vector@PAVCelestialBody@@V?$allocator@PAVCelestialBody@@@std@@@std@@ABEXPAPAVCelestialBody@@0@Z 00461fc4     KSP2D.obj
 0002:0000cfcc       __ehfuncinfo$?_Orphan_range@?$vector@PAVCelestialBody@@V?$allocator@PAVCelestialBody@@@std@@@std@@ABEXPAPAVCelestialBody@@0@Z 00461fcc     KSP2D.obj
 0002:0000cff0       __ehfuncinfo$??1?$_Vector_alloc@U?$_Vec_base_types@PAVPlanetObject@@V?$allocator@PAVPlanetObject@@@std@@@std@@@std@@QAE@XZ 00461ff0     KSP2D.obj
 0002:0000d014       __ehfuncinfo$??0?$vector@PAVPlanetObject@@V?$allocator@PAVPlanetObject@@@std@@@std@@QAE@XZ 00462014     KSP2D.obj
 0002:0000d038       __ehfuncinfo$??1?$vector@PAVPlanetObject@@V?$allocator@PAVPlanetObject@@@std@@@std@@QAE@XZ 00462038     KSP2D.obj
 0002:0000d05c       __unwindtable$?_Orphan_range@?$vector@PAVPlanetObject@@V?$allocator@PAVPlanetObject@@@std@@@std@@ABEXPAPAVPlanetObject@@0@Z 0046205c     KSP2D.obj
 0002:0000d064       __ehfuncinfo$?_Orphan_range@?$vector@PAVPlanetObject@@V?$allocator@PAVPlanetObject@@@std@@@std@@ABEXPAPAVPlanetObject@@0@Z 00462064     KSP2D.obj
 0002:0000d088       __ehfuncinfo$??1?$_Vector_alloc@U?$_Vec_base_types@PAVBasicSpacecraft@@V?$allocator@PAVBasicSpacecraft@@@std@@@std@@@std@@QAE@XZ 00462088     KSP2D.obj
 0002:0000d0ac       __ehfuncinfo$??0?$vector@PAVBasicSpacecraft@@V?$allocator@PAVBasicSpacecraft@@@std@@@std@@QAE@XZ 004620ac     KSP2D.obj
 0002:0000d0d0       __ehfuncinfo$??1?$vector@PAVBasicSpacecraft@@V?$allocator@PAVBasicSpacecraft@@@std@@@std@@QAE@XZ 004620d0     KSP2D.obj
 0002:0000d0f4       __unwindtable$?_Orphan_range@?$vector@PAVBasicSpacecraft@@V?$allocator@PAVBasicSpacecraft@@@std@@@std@@ABEXPAPAVBasicSpacecraft@@0@Z 004620f4     KSP2D.obj
 0002:0000d0fc       __ehfuncinfo$?_Orphan_range@?$vector@PAVBasicSpacecraft@@V?$allocator@PAVBasicSpacecraft@@@std@@@std@@ABEXPAPAVBasicSpacecraft@@0@Z 004620fc     KSP2D.obj
 0002:0000d120       __unwindtable$?init@GUIManager@@SAXPAVKSP2D@@@Z 00462120     KSP2D.obj
 0002:0000d128       __ehfuncinfo$?init@GUIManager@@SAXPAVKSP2D@@@Z 00462128     KSP2D.obj
 0002:0000d14c       __catchsym$??$_Emplace_reallocate@ABQAVBasicSpacecraft@@@?$vector@PAVBasicSpacecraft@@V?$allocator@PAVBasicSpacecraft@@@std@@@std@@QAEPAPAVBasicSpacecraft@@QAPAV2@ABQAV2@@Z$2 0046214c     KSP2D.obj
 0002:0000d15c       __unwindtable$??$_Emplace_reallocate@ABQAVBasicSpacecraft@@@?$vector@PAVBasicSpacecraft@@V?$allocator@PAVBasicSpacecraft@@@std@@@std@@QAEPAPAVBasicSpacecraft@@QAPAV2@ABQAV2@@Z 0046215c     KSP2D.obj
 0002:0000d16c       __tryblocktable$??$_Emplace_reallocate@ABQAVBasicSpacecraft@@@?$vector@PAVBasicSpacecraft@@V?$allocator@PAVBasicSpacecraft@@@std@@@std@@QAEPAPAVBasicSpacecraft@@QAPAV2@ABQAV2@@Z 0046216c     KSP2D.obj
 0002:0000d180       __ehfuncinfo$??$_Emplace_reallocate@ABQAVBasicSpacecraft@@@?$vector@PAVBasicSpacecraft@@V?$allocator@PAVBasicSpacecraft@@@std@@@std@@QAEPAPAVBasicSpacecraft@@QAPAV2@ABQAV2@@Z 00462180     KSP2D.obj
 0002:0000d1a4       __catchsym$??$_Emplace_reallocate@PAVPlanetObject@@@?$vector@PAVPlanetObject@@V?$allocator@PAVPlanetObject@@@std@@@std@@QAEPAPAVPlanetObject@@QAPAV2@$$QAPAV2@@Z$2 004621a4     KSP2D.obj
 0002:0000d1b4       __unwindtable$??$_Emplace_reallocate@PAVPlanetObject@@@?$vector@PAVPlanetObject@@V?$allocator@PAVPlanetObject@@@std@@@std@@QAEPAPAVPlanetObject@@QAPAV2@$$QAPAV2@@Z 004621b4     KSP2D.obj
 0002:0000d1c4       __tryblocktable$??$_Emplace_reallocate@PAVPlanetObject@@@?$vector@PAVPlanetObject@@V?$allocator@PAVPlanetObject@@@std@@@std@@QAEPAPAVPlanetObject@@QAPAV2@$$QAPAV2@@Z 004621c4     KSP2D.obj
 0002:0000d1d8       __ehfuncinfo$??$_Emplace_reallocate@PAVPlanetObject@@@?$vector@PAVPlanetObject@@V?$allocator@PAVPlanetObject@@@std@@@std@@QAEPAPAVPlanetObject@@QAPAV2@$$QAPAV2@@Z 004621d8     KSP2D.obj
 0002:0000d1fc       __catchsym$??$_Emplace_reallocate@PAVCelestialBody@@@?$vector@PAVCelestialBody@@V?$allocator@PAVCelestialBody@@@std@@@std@@QAEPAPAVCelestialBody@@QAPAV2@$$QAPAV2@@Z$2 004621fc     KSP2D.obj
 0002:0000d20c       __unwindtable$??$_Emplace_reallocate@PAVCelestialBody@@@?$vector@PAVCelestialBody@@V?$allocator@PAVCelestialBody@@@std@@@std@@QAEPAPAVCelestialBody@@QAPAV2@$$QAPAV2@@Z 0046220c     KSP2D.obj
 0002:0000d21c       __tryblocktable$??$_Emplace_reallocate@PAVCelestialBody@@@?$vector@PAVCelestialBody@@V?$allocator@PAVCelestialBody@@@std@@@std@@QAEPAPAVCelestialBody@@QAPAV2@$$QAPAV2@@Z 0046221c     KSP2D.obj
 0002:0000d230       __ehfuncinfo$??$_Emplace_reallocate@PAVCelestialBody@@@?$vector@PAVCelestialBody@@V?$allocator@PAVCelestialBody@@@std@@@std@@QAEPAPAVCelestialBody@@QAPAV2@$$QAPAV2@@Z 00462230     KSP2D.obj
 0002:0000d254       __catchsym$??$_Resize@V<lambda_2afd52570c452b238925c6f475a76105>@@@?$vector@PAVDisplayableObject@@V?$allocator@PAVDisplayableObject@@@std@@@std@@AAEXIV<lambda_2afd52570c452b238925c6f475a76105>@@@Z$2 00462254     KSP2D.obj
 0002:0000d264       __unwindtable$??$_Resize@V<lambda_2afd52570c452b238925c6f475a76105>@@@?$vector@PAVDisplayableObject@@V?$allocator@PAVDisplayableObject@@@std@@@std@@AAEXIV<lambda_2afd52570c452b238925c6f475a76105>@@@Z 00462264     KSP2D.obj
 0002:0000d274       __tryblocktable$??$_Resize@V<lambda_2afd52570c452b238925c6f475a76105>@@@?$vector@PAVDisplayableObject@@V?$allocator@PAVDisplayableObject@@@std@@@std@@AAEXIV<lambda_2afd52570c452b238925c6f475a76105>@@@Z 00462274     KSP2D.obj
 0002:0000d288       __ehfuncinfo$??$_Resize@V<lambda_2afd52570c452b238925c6f475a76105>@@@?$vector@PAVDisplayableObject@@V?$allocator@PAVDisplayableObject@@@std@@@std@@AAEXIV<lambda_2afd52570c452b238925c6f475a76105>@@@Z 00462288     KSP2D.obj
 0002:0000d2ac       __unwindtable$??$emplace@ABQAVDisplayableObject@@@?$vector@PAVDisplayableObject@@V?$allocator@PAVDisplayableObject@@@std@@@std@@QAE?AV?$_Vector_iterator@V?$_Vector_val@U?$_Simple_types@PAVDisplayableObject@@@std@@@std@@@1@V?$_Vector_const_iterator@V?$_Vector_val@U?$_Simple_types@PAVDisplayableObject@@@std@@@std@@@1@ABQAVDisplayableObject@@@Z 004622ac     KSP2D.obj
 0002:0000d2b4       __ehfuncinfo$??$emplace@ABQAVDisplayableObject@@@?$vector@PAVDisplayableObject@@V?$allocator@PAVDisplayableObject@@@std@@@std@@QAE?AV?$_Vector_iterator@V?$_Vector_val@U?$_Simple_types@PAVDisplayableObject@@@std@@@std@@@1@V?$_Vector_const_iterator@V?$_Vector_val@U?$_Simple_types@PAVDisplayableObject@@@std@@@std@@@1@ABQAVDisplayableObject@@@Z 004622b4     KSP2D.obj
 0002:0000d2d8       __unwindtable$?doProgram@@YAHHQAPAD@Z 004622d8     main.obj
 0002:0000d2e0       __ehfuncinfo$?doProgram@@YAHHQAPAD@Z 004622e0     main.obj
 0002:0000d304       __unwindtable$?getPositionOnSurface@CelestialBody@@QAE?AVVec2D@@NO@Z 00462304     CelestialBody.obj
 0002:0000d30c       __unwindtable$?isOnScreen@CelestialBody@@SA_NAAVVec2D@@O@Z 0046230c     CelestialBody.obj
 0002:0000d314       __ehfuncinfo$?getPositionOnSurface@CelestialBody@@QAE?AVVec2D@@NO@Z 00462314     CelestialBody.obj
 0002:0000d338       __ehfuncinfo$?isOnScreen@CelestialBody@@SA_NAAVVec2D@@O@Z 00462338     CelestialBody.obj
 0002:0000d35c       __ehfuncinfo$??0CelestialBody@@QAE@PAVBaseEngine@@OOPBD11OPAVVec2D@@@Z 0046235c     CelestialBody.obj
 0002:0000d380       __unwindtable$??0CelestialBody@@QAE@PAVBaseEngine@@OOPBD11OPAVVec2D@@@Z 00462380     CelestialBody.obj
 0002:0000d3d0       __unwindtable$?updatePosition@RailedPhysBody@@UAEXO@Z 004623d0     PhysObject.obj
 0002:0000d3d8       __unwindtable$??0PhysObject@@QAE@PAVVec2D@@@Z 004623d8     PhysObject.obj
 0002:0000d3e0       __unwindtable$??0RailedPhysBody@@QAE@PAVPhysObject@@OABVVec2D@@1PAVPhysBody@@NON@Z 004623e0     PhysObject.obj
 0002:0000d3f8       __unwindtable$??0PhysBody@@QAE@PAVPhysObject@@OABVVec2D@@1@Z 004623f8     PhysObject.obj
 0002:0000d410       __ehfuncinfo$?updatePosition@RailedPhysBody@@UAEXO@Z 00462410     PhysObject.obj
 0002:0000d434       __ehfuncinfo$??0RailedPhysBody@@QAE@PAVPhysObject@@OABVVec2D@@1PAVPhysBody@@NON@Z 00462434     PhysObject.obj
 0002:0000d458       __ehfuncinfo$?OBBCircleCollision@PhysBody@@SA_NAAUCollisionManifold@@@Z 00462458     PhysObject.obj
 0002:0000d47c       __ehfuncinfo$?resolveCollision@PhysBody@@SAXABUCollisionManifold@@@Z 0046247c     PhysObject.obj
 0002:0000d4a0       __ehfuncinfo$??0PhysBody@@QAE@PAVPhysObject@@OABVVec2D@@1@Z 004624a0     PhysObject.obj
 0002:0000d4c4       __ehfuncinfo$??0PhysObject@@QAE@PAVVec2D@@@Z 004624c4     PhysObject.obj
 0002:0000d4e8       __unwindtable$?resolveCollision@PhysBody@@SAXABUCollisionManifold@@@Z 004624e8     PhysObject.obj
 0002:0000d528       __unwindtable$?OBBCircleCollision@PhysBody@@SA_NAAUCollisionManifold@@@Z 00462528     PhysObject.obj
 0002:0000d588       __unwindtable$?applyImpulse@PhysBody@@QAEXO@Z 00462588     PhysObject.obj
 0002:0000d598       __ehfuncinfo$?applyImpulse@PhysBody@@QAEXO@Z 00462598     PhysObject.obj
 0002:0000d5bc       __unwindtable$?updatePosition@PhysBody@@UAEXO@Z 004625bc     PhysObject.obj
 0002:0000d5c4       __ehfuncinfo$?updatePosition@PhysBody@@UAEXO@Z 004625c4     PhysObject.obj
 0002:0000d5e8       __ehfuncinfo$?projectCircle@Projection@@SA?AV1@ABVVec2D@@0O@Z 004625e8     PhysObject.obj
 0002:0000d60c       __unwindtable$?projectCircle@Projection@@SA?AV1@ABVVec2D@@0O@Z 0046260c     PhysObject.obj
 0002:0000d64c       __ehfuncinfo$??1?$_Vector_alloc@U?$_Vec_base_types@VVec2D@@V?$allocator@VVec2D@@@std@@@std@@@std@@QAE@XZ 0046264c     PhysObject.obj
 0002:0000d670       __ehfuncinfo$??0?$vector@VVec2D@@V?$allocator@VVec2D@@@std@@@std@@QAE@XZ 00462670     PhysObject.obj
 0002:0000d694       __ehfuncinfo$??1?$vector@VVec2D@@V?$allocator@VVec2D@@@std@@@std@@QAE@XZ 00462694     PhysObject.obj
 0002:0000d6b8       __unwindtable$?_Orphan_range@?$vector@VVec2D@@V?$allocator@VVec2D@@@std@@@std@@ABEXPAVVec2D@@0@Z 004626b8     PhysObject.obj
 0002:0000d6c0       __ehfuncinfo$?_Orphan_range@?$vector@VVec2D@@V?$allocator@VVec2D@@@std@@@std@@ABEXPAVVec2D@@0@Z 004626c0     PhysObject.obj
 0002:0000d6e4       __catchsym$??$_Emplace_reallocate@VVec2D@@@?$vector@VVec2D@@V?$allocator@VVec2D@@@std@@@std@@QAEPAVVec2D@@QAV2@$$QAV2@@Z$2 004626e4     PhysObject.obj
 0002:0000d6f4       __unwindtable$??$_Emplace_reallocate@VVec2D@@@?$vector@VVec2D@@V?$allocator@VVec2D@@@std@@@std@@QAEPAVVec2D@@QAV2@$$QAV2@@Z 004626f4     PhysObject.obj
 0002:0000d704       __tryblocktable$??$_Emplace_reallocate@VVec2D@@@?$vector@VVec2D@@V?$allocator@VVec2D@@@std@@@std@@QAEPAVVec2D@@QAV2@$$QAV2@@Z 00462704     PhysObject.obj
 0002:0000d718       __ehfuncinfo$??$_Emplace_reallocate@VVec2D@@@?$vector@VVec2D@@V?$allocator@VVec2D@@@std@@@std@@QAEPAVVec2D@@QAV2@$$QAV2@@Z 00462718     PhysObject.obj
 0002:0000d73c       __catchsym$??$_Emplace_reallocate@ABVVec2D@@@?$vector@VVec2D@@V?$allocator@VVec2D@@@std@@@std@@QAEPAVVec2D@@QAV2@ABV2@@Z$2 0046273c     PhysObject.obj
 0002:0000d74c       __unwindtable$??$_Emplace_reallocate@ABVVec2D@@@?$vector@VVec2D@@V?$allocator@VVec2D@@@std@@@std@@QAEPAVVec2D@@QAV2@ABV2@@Z 0046274c     PhysObject.obj
 0002:0000d75c       __tryblocktable$??$_Emplace_reallocate@ABVVec2D@@@?$vector@VVec2D@@V?$allocator@VVec2D@@@std@@@std@@QAEPAVVec2D@@QAV2@ABV2@@Z 0046275c     PhysObject.obj
 0002:0000d770       __ehfuncinfo$??$_Emplace_reallocate@ABVVec2D@@@?$vector@VVec2D@@V?$allocator@VVec2D@@@std@@@std@@QAEPAVVec2D@@QAV2@ABV2@@Z 00462770     PhysObject.obj
 0002:0000d794       __unwindtable$??$_Uninitialized_move_al_unchecked@PAVVec2D@@PAV1@V?$allocator@VVec2D@@@std@@@std@@YAPAVVec2D@@PAV1@QAV1@1AAV?$allocator@VVec2D@@@0@U_General_ptr_iterator_tag@0@U_Unused_parameter@0@@Z 00462794     PhysObject.obj
 0002:0000d79c       __ehfuncinfo$??$_Uninitialized_move_al_unchecked@PAVVec2D@@PAV1@V?$allocator@VVec2D@@@std@@@std@@YAPAVVec2D@@PAV1@QAV1@1AAV?$allocator@VVec2D@@@0@U_General_ptr_iterator_tag@0@U_Unused_parameter@0@@Z 0046279c     PhysObject.obj
 0002:0000d7c0       __ehfuncinfo$??1?$_Uninitialized_backout_al@PAVVec2D@@V?$allocator@VVec2D@@@std@@@std@@QAE@XZ 004627c0     PhysObject.obj
 0002:0000d7e4       __ehfuncinfo$??0PlanetObject@@QAE@PAVBaseEngine@@PAVCelestialBody@@NV?$basic_string@DU?$char_traits@D@std@@V?$allocator@D@2@@std@@OOO@Z 004627e4     PlanetObject.obj
 0002:0000d808       __unwindtable$??0PlanetObject@@QAE@PAVBaseEngine@@PAVCelestialBody@@NV?$basic_string@DU?$char_traits@D@std@@V?$allocator@D@2@@std@@OOO@Z 00462808     PlanetObject.obj
 0002:0000d838       __ehfuncinfo$?_Equal@?$basic_string@DU?$char_traits@D@std@@V?$allocator@D@2@@std@@QBE_NQBD@Z 00462838     KSPMetaManager.obj
 0002:0000d85c       __catchsym$?_Buynode0@?$_Tree_comp_alloc@V?$_Tmap_traits@V?$basic_string@DU?$char_traits@D@std@@V?$allocator@D@2@@std@@V?$shared_ptr@UPartData@@@2@U?$less@V?$basic_string@DU?$char_traits@D@std@@V?$allocator@D@2@@std@@@2@V?$allocator@U?$pair@$$CBV?$basic_string@DU?$char_traits@D@std@@V?$allocator@D@2@@std@@V?$shared_ptr@UPartData@@@2@@std@@@2@$0A@@std@@@std@@QAEPAU?$_Tree_node@U?$pair@$$CBV?$basic_string@DU?$char_traits@D@std@@V?$allocator@D@2@@std@@V?$shared_ptr@UPartData@@@2@@std@@PAX@2@XZ$2 0046285c     KSPMetaManager.obj
 0002:0000d86c       __unwindtable$?_Buynode0@?$_Tree_comp_alloc@V?$_Tmap_traits@V?$basic_string@DU?$char_traits@D@std@@V?$allocator@D@2@@std@@V?$shared_ptr@UPartData@@@2@U?$less@V?$basic_string@DU?$char_traits@D@std@@V?$allocator@D@2@@std@@@2@V?$allocator@U?$pair@$$CBV?$basic_string@DU?$char_traits@D@std@@V?$allocator@D@2@@std@@V?$shared_ptr@UPartData@@@2@@std@@@2@$0A@@std@@@std@@QAEPAU?$_Tree_node@U?$pair@$$CBV?$basic_string@DU?$char_traits@D@std@@V?$allocator@D@2@@std@@V?$shared_ptr@UPartData@@@2@@std@@PAX@2@XZ 0046286c     KSPMetaManager.obj
 0002:0000d87c       __tryblocktable$?_Buynode0@?$_Tree_comp_alloc@V?$_Tmap_traits@V?$basic_string@DU?$char_traits@D@std@@V?$allocator@D@2@@std@@V?$shared_ptr@UPartData@@@2@U?$less@V?$basic_string@DU?$char_traits@D@std@@V?$allocator@D@2@@std@@@2@V?$allocator@U?$pair@$$CBV?$basic_string@DU?$char_traits@D@std@@V?$allocator@D@2@@std@@V?$shared_ptr@UPartData@@@2@@std@@@2@$0A@@std@@@std@@QAEPAU?$_Tree_node@U?$pair@$$CBV?$basic_string@DU?$char_traits@D@std@@V?$allocator@D@2@@std@@V?$shared_ptr@UPartData@@@2@@std@@PAX@2@XZ 0046287c     KSPMetaManager.obj
 0002:0000d890       __ehfuncinfo$?_Buynode0@?$_Tree_comp_alloc@V?$_Tmap_traits@V?$basic_string@DU?$char_traits@D@std@@V?$allocator@D@2@@std@@V?$shared_ptr@UPartData@@@2@U?$less@V?$basic_string@DU?$char_traits@D@std@@V?$allocator@D@2@@std@@@2@V?$allocator@U?$pair@$$CBV?$basic_string@DU?$char_traits@D@std@@V?$allocator@D@2@@std@@V?$shared_ptr@UPartData@@@2@@std@@@2@$0A@@std@@@std@@QAEPAU?$_Tree_node@U?$pair@$$CBV?$basic_string@DU?$char_traits@D@std@@V?$allocator@D@2@@std@@V?$shared_ptr@UPartData@@@2@@std@@PAX@2@XZ 00462890     KSPMetaManager.obj
 0002:0000d8b4       __ehfuncinfo$?begin@?$_Tree@V?$_Tmap_traits@V?$basic_string@DU?$char_traits@D@std@@V?$allocator@D@2@@std@@V?$shared_ptr@UPartData@@@2@U?$less@V?$basic_string@DU?$char_traits@D@std@@V?$allocator@D@2@@std@@@2@V?$allocator@U?$pair@$$CBV?$basic_string@DU?$char_traits@D@std@@V?$allocator@D@2@@std@@V?$shared_ptr@UPartData@@@2@@std@@@2@$0A@@std@@@std@@QAE?AV?$_Tree_iterator@V?$_Tree_val@U?$_Tree_simple_types@U?$pair@$$CBV?$basic_string@DU?$char_traits@D@std@@V?$allocator@D@2@@std@@V?$shared_ptr@UPartData@@@2@@std@@@std@@@std@@@2@XZ 004628b4     KSPMetaManager.obj
 0002:0000d8d8       __ehfuncinfo$?end@?$_Tree@V?$_Tmap_traits@V?$basic_string@DU?$char_traits@D@std@@V?$allocator@D@2@@std@@V?$shared_ptr@UPartData@@@2@U?$less@V?$basic_string@DU?$char_traits@D@std@@V?$allocator@D@2@@std@@@2@V?$allocator@U?$pair@$$CBV?$basic_string@DU?$char_traits@D@std@@V?$allocator@D@2@@std@@V?$shared_ptr@UPartData@@@2@@std@@@2@$0A@@std@@@std@@QAE?AV?$_Tree_iterator@V?$_Tree_val@U?$_Tree_simple_types@U?$pair@$$CBV?$basic_string@DU?$char_traits@D@std@@V?$allocator@D@2@@std@@V?$shared_ptr@UPartData@@@2@@std@@@std@@@std@@@2@XZ 004628d8     KSPMetaManager.obj
 0002:0000d8fc       __unwindtable$?find@?$_Tree@V?$_Tmap_traits@V?$basic_string@DU?$char_traits@D@std@@V?$allocator@D@2@@std@@V?$shared_ptr@UPartData@@@2@U?$less@V?$basic_string@DU?$char_traits@D@std@@V?$allocator@D@2@@std@@@2@V?$allocator@U?$pair@$$CBV?$basic_string@DU?$char_traits@D@std@@V?$allocator@D@2@@std@@V?$shared_ptr@UPartData@@@2@@std@@@2@$0A@@std@@@std@@QAE?AV?$_Tree_iterator@V?$_Tree_val@U?$_Tree_simple_types@U?$pair@$$CBV?$basic_string@DU?$char_traits@D@std@@V?$allocator@D@2@@std@@V?$shared_ptr@UPartData@@@2@@std@@@std@@@std@@@2@ABV?$basic_string@DU?$char_traits@D@std@@V?$allocator@D@2@@2@@Z 004628fc     KSPMetaManager.obj
 0002:0000d90c       __ehfuncinfo$?find@?$_Tree@V?$_Tmap_traits@V?$basic_string@DU?$char_traits@D@std@@V?$allocator@D@2@@std@@V?$shared_ptr@UPartData@@@2@U?$less@V?$basic_string@DU?$char_traits@D@std@@V?$allocator@D@2@@std@@@2@V?$allocator@U?$pair@$$CBV?$basic_string@DU?$char_traits@D@std@@V?$allocator@D@2@@std@@V?$shared_ptr@UPartData@@@2@@std@@@2@$0A@@std@@@std@@QAE?AV?$_Tree_iterator@V?$_Tree_val@U?$_Tree_simple_types@U?$pair@$$CBV?$basic_string@DU?$char_traits@D@std@@V?$allocator@D@2@@std@@V?$shared_ptr@UPartData@@@2@@std@@@std@@@std@@@2@ABV?$basic_string@DU?$char_traits@D@std@@V?$allocator@D@2@@2@@Z 0046290c     KSPMetaManager.obj
 0002:0000d930       __unwindtable$?getPartDataCopy@KSPMetaManager@@QAEPAUPartData@@ABV?$basic_string@DU?$char_traits@D@std@@V?$allocator@D@2@@std@@_N@Z 00462930     KSPMetaManager.obj
 0002:0000d938       __ehfuncinfo$?newGadget@KSPMetaManager@@SAPAVGadget@@ABV?$basic_string@DU?$char_traits@D@std@@V?$allocator@D@2@@std@@ABH@Z 00462938     KSPMetaManager.obj
 0002:0000d95c       __ehfuncinfo$?getPartDataCopy@KSPMetaManager@@QAEPAUPartData@@ABV?$basic_string@DU?$char_traits@D@std@@V?$allocator@D@2@@std@@_N@Z 0046295c     KSPMetaManager.obj
 0002:0000d980       __ehfuncinfo$?getPartData@KSPMetaManager@@QAE?AV?$shared_ptr@UPartData@@@std@@ABV?$basic_string@DU?$char_traits@D@std@@V?$allocator@D@2@@3@_N@Z 00462980     KSPMetaManager.obj
 0002:0000d9a4       __unwindtable$?newGadget@KSPMetaManager@@SAPAVGadget@@ABV?$basic_string@DU?$char_traits@D@std@@V?$allocator@D@2@@std@@ABH@Z 004629a4     KSPMetaManager.obj
 0002:0000d9ec       __unwindtable$?getPartData@KSPMetaManager@@QAE?AV?$shared_ptr@UPartData@@@std@@ABV?$basic_string@DU?$char_traits@D@std@@V?$allocator@D@2@@3@_N@Z 004629ec     KSPMetaManager.obj
 0002:0000da34       __ehfuncinfo$??0?$shared_ptr@UPartData@@@std@@QAE@ABV01@@Z 00462a34     KSPMetaManager.obj
 0002:0000da58       __ehfuncinfo$??0?$vector@PAVGadget@@V?$allocator@PAVGadget@@@std@@@std@@QAE@XZ 00462a58     KSPMetaManager.obj
 0002:0000da7c       __unwindtable$?_Orphan_range@?$vector@PAVGadget@@V?$allocator@PAVGadget@@@std@@@std@@ABEXPAPAVGadget@@0@Z 00462a7c     KSPMetaManager.obj
 0002:0000da84       __ehfuncinfo$?_Orphan_range@?$vector@PAVGadget@@V?$allocator@PAVGadget@@@std@@@std@@ABEXPAPAVGadget@@0@Z 00462a84     KSPMetaManager.obj
 0002:0000daa8       __catchsym$??$_Emplace_reallocate@PAVGadget@@@?$vector@PAVGadget@@V?$allocator@PAVGadget@@@std@@@std@@QAEPAPAVGadget@@QAPAV2@$$QAPAV2@@Z$2 00462aa8     KSPMetaManager.obj
 0002:0000dab8       __unwindtable$??$_Emplace_reallocate@PAVGadget@@@?$vector@PAVGadget@@V?$allocator@PAVGadget@@@std@@@std@@QAEPAPAVGadget@@QAPAV2@$$QAPAV2@@Z 00462ab8     KSPMetaManager.obj
 0002:0000dac8       __tryblocktable$??$_Emplace_reallocate@PAVGadget@@@?$vector@PAVGadget@@V?$allocator@PAVGadget@@@std@@@std@@QAEPAPAVGadget@@QAPAV2@$$QAPAV2@@Z 00462ac8     KSPMetaManager.obj
 0002:0000dadc       __ehfuncinfo$??$_Emplace_reallocate@PAVGadget@@@?$vector@PAVGadget@@V?$allocator@PAVGadget@@@std@@@std@@QAEPAPAVGadget@@QAPAV2@$$QAPAV2@@Z 00462adc     KSPMetaManager.obj
 0002:0000db00       __catchsym$??$_Setp@UPartData@@@?$shared_ptr@UPartData@@@std@@AAEXPAUPartData@@U?$integral_constant@_N$0A@@1@@Z$3 00462b00     KSPMetaManager.obj
 0002:0000db10       __tryblocktable$??$_Setp@UPartData@@@?$shared_ptr@UPartData@@@std@@AAEXPAUPartData@@U?$integral_constant@_N$0A@@1@@Z 00462b10     KSPMetaManager.obj
 0002:0000db24       __unwindtable$??$_Setp@UPartData@@@?$shared_ptr@UPartData@@@std@@AAEXPAUPartData@@U?$integral_constant@_N$0A@@1@@Z 00462b24     KSPMetaManager.obj
 0002:0000db3c       __ehfuncinfo$??$_Setp@UPartData@@@?$shared_ptr@UPartData@@@std@@AAEXPAUPartData@@U?$integral_constant@_N$0A@@1@@Z 00462b3c     KSPMetaManager.obj
 0002:0000db60       __catchsym$??$_Buynode@U?$pair@V?$basic_string@DU?$char_traits@D@std@@V?$allocator@D@2@@std@@V?$shared_ptr@UPartData@@@2@@std@@@?$_Tree_comp_alloc@V?$_Tmap_traits@V?$basic_string@DU?$char_traits@D@std@@V?$allocator@D@2@@std@@V?$shared_ptr@UPartData@@@2@U?$less@V?$basic_string@DU?$char_traits@D@std@@V?$allocator@D@2@@std@@@2@V?$allocator@U?$pair@$$CBV?$basic_string@DU?$char_traits@D@std@@V?$allocator@D@2@@std@@V?$shared_ptr@UPartData@@@2@@std@@@2@$0A@@std@@@std@@QAEPAU?$_Tree_node@U?$pair@$$CBV?$basic_string@DU?$char_traits@D@std@@V?$allocator@D@2@@std@@V?$shared_ptr@UPartData@@@2@@std@@PAX@1@$$QAU?$pair@V?$basic_string@DU?$char_traits@D@std@@V?$allocator@D@2@@std@@V?$shared_ptr@UPartData@@@2@@1@@Z$2 00462b60     KSPMetaManager.obj
 0002:0000db70       __unwindtable$??$_Buynode@U?$pair@V?$basic_string@DU?$char_traits@D@std@@V?$allocator@D@2@@std@@V?$shared_ptr@UPartData@@@2@@std@@@?$_Tree_comp_alloc@V?$_Tmap_traits@V?$basic_string@DU?$char_traits@D@std@@V?$allocator@D@2@@std@@V?$shared_ptr@UPartData@@@2@U?$less@V?$basic_string@DU?$char_traits@D@std@@V?$allocator@D@2@@std@@@2@V?$allocator@U?$pair@$$CBV?$basic_string@DU?$char_traits@D@std@@V?$allocator@D@2@@std@@V?$shared_ptr@UPartData@@@2@@std@@@2@$0A@@std@@@std@@QAEPAU?$_Tree_node@U?$pair@$$CBV?$basic_string@DU?$char_traits@D@std@@V?$allocator@D@2@@std@@V?$shared_ptr@UPartData@@@2@@std@@PAX@1@$$QAU?$pair@V?$basic_string@DU?$char_traits@D@std@@V?$allocator@D@2@@std@@V?$shared_ptr@UPartData@@@2@@1@@Z 00462b70     KSPMetaManager.obj
 0002:0000db80       __tryblocktable$??$_Buynode@U?$pair@V?$basic_string@DU?$char_traits@D@std@@V?$allocator@D@2@@std@@V?$shared_ptr@UPartData@@@2@@std@@@?$_Tree_comp_alloc@V?$_Tmap_traits@V?$basic_string@DU?$char_traits@D@std@@V?$allocator@D@2@@std@@V?$shared_ptr@UPartData@@@2@U?$less@V?$basic_string@DU?$char_traits@D@std@@V?$allocator@D@2@@std@@@2@V?$allocator@U?$pair@$$CBV?$basic_string@DU?$char_traits@D@std@@V?$allocator@D@2@@std@@V?$shared_ptr@UPartData@@@2@@std@@@2@$0A@@std@@@std@@QAEPAU?$_Tree_node@U?$pair@$$CBV?$basic_string@DU?$char_traits@D@std@@V?$allocator@D@2@@std@@V?$shared_ptr@UPartData@@@2@@std@@PAX@1@$$QAU?$pair@V?$basic_string@DU?$char_traits@D@std@@V?$allocator@D@2@@std@@V?$shared_ptr@UPartData@@@2@@1@@Z 00462b80     KSPMetaManager.obj
 0002:0000db94       __ehfuncinfo$??$_Buynode@U?$pair@V?$basic_string@DU?$char_traits@D@std@@V?$allocator@D@2@@std@@V?$shared_ptr@UPartData@@@2@@std@@@?$_Tree_comp_alloc@V?$_Tmap_traits@V?$basic_string@DU?$char_traits@D@std@@V?$allocator@D@2@@std@@V?$shared_ptr@UPartData@@@2@U?$less@V?$basic_string@DU?$char_traits@D@std@@V?$allocator@D@2@@std@@@2@V?$allocator@U?$pair@$$CBV?$basic_string@DU?$char_traits@D@std@@V?$allocator@D@2@@std@@V?$shared_ptr@UPartData@@@2@@std@@@2@$0A@@std@@@std@@QAEPAU?$_Tree_node@U?$pair@$$CBV?$basic_string@DU?$char_traits@D@std@@V?$allocator@D@2@@std@@V?$shared_ptr@UPartData@@@2@@std@@PAX@1@$$QAU?$pair@V?$basic_string@DU?$char_traits@D@std@@V?$allocator@D@2@@std@@V?$shared_ptr@UPartData@@@2@@1@@Z 00462b94     KSPMetaManager.obj
 0002:0000dbb8       __catchsym$??$_Insert_nohint@AAU?$pair@$$CBV?$basic_string@DU?$char_traits@D@std@@V?$allocator@D@2@@std@@V?$shared_ptr@UPartData@@@2@@std@@PAU?$_Tree_node@U?$pair@$$CBV?$basic_string@DU?$char_traits@D@std@@V?$allocator@D@2@@std@@V?$shared_ptr@UPartData@@@2@@std@@PAX@2@@?$_Tree@V?$_Tmap_traits@V?$basic_string@DU?$char_traits@D@std@@V?$allocator@D@2@@std@@V?$shared_ptr@UPartData@@@2@U?$less@V?$basic_string@DU?$char_traits@D@std@@V?$allocator@D@2@@std@@@2@V?$allocator@U?$pair@$$CBV?$basic_string@DU?$char_traits@D@std@@V?$allocator@D@2@@std@@V?$shared_ptr@UPartData@@@2@@std@@@2@$0A@@std@@@std@@IAE?AU?$pair@V?$_Tree_iterator@V?$_Tree_val@U?$_Tree_simple_types@U?$pair@$$CBV?$basic_string@DU?$char_traits@D@std@@V?$allocator@D@2@@std@@V?$shared_ptr@UPartData@@@2@@std@@@std@@@std@@@std@@_N@1@_NAAU?$pair@$$CBV?$basic_string@DU?$char_traits@D@std@@V?$allocator@D@2@@std@@V?$shared_ptr@UPartData@@@2@@1@PAU?$_Tree_node@U?$pair@$$CBV?$basic_string@DU?$char_traits@D@std@@V?$allocator@D@2@@std@@V?$shared_ptr@UPartData@@@2@@std@@PAX@1@@Z$8 00462bb8     KSPMetaManager.obj
 0002:0000dbc8       __tryblocktable$??$_Insert_nohint@AAU?$pair@$$CBV?$basic_string@DU?$char_traits@D@std@@V?$allocator@D@2@@std@@V?$shared_ptr@UPartData@@@2@@std@@PAU?$_Tree_node@U?$pair@$$CBV?$basic_string@DU?$char_traits@D@std@@V?$allocator@D@2@@std@@V?$shared_ptr@UPartData@@@2@@std@@PAX@2@@?$_Tree@V?$_Tmap_traits@V?$basic_string@DU?$char_traits@D@std@@V?$allocator@D@2@@std@@V?$shared_ptr@UPartData@@@2@U?$less@V?$basic_string@DU?$char_traits@D@std@@V?$allocator@D@2@@std@@@2@V?$allocator@U?$pair@$$CBV?$basic_string@DU?$char_traits@D@std@@V?$allocator@D@2@@std@@V?$shared_ptr@UPartData@@@2@@std@@@2@$0A@@std@@@std@@IAE?AU?$pair@V?$_Tree_iterator@V?$_Tree_val@U?$_Tree_simple_types@U?$pair@$$CBV?$basic_string@DU?$char_traits@D@std@@V?$allocator@D@2@@std@@V?$shared_ptr@UPartData@@@2@@std@@@std@@@std@@@std@@_N@1@_NAAU?$pair@$$CBV?$basic_string@DU?$char_traits@D@std@@V?$allocator@D@2@@std@@V?$shared_ptr@UPartData@@@2@@1@PAU?$_Tree_node@U?$pair@$$CBV?$basic_string@DU?$char_traits@D@std@@V?$allocator@D@2@@std@@V?$shared_ptr@UPartData@@@2@@std@@PAX@1@@Z 00462bc8     KSPMetaManager.obj
 0002:0000dbdc       __unwindtable$??$_Insert_nohint@AAU?$pair@$$CBV?$basic_string@DU?$char_traits@D@std@@V?$allocator@D@2@@std@@V?$shared_ptr@UPartData@@@2@@std@@PAU?$_Tree_node@U?$pair@$$CBV?$basic_string@DU?$char_traits@D@std@@V?$allocator@D@2@@std@@V?$shared_ptr@UPartData@@@2@@std@@PAX@2@@?$_Tree@V?$_Tmap_traits@V?$basic_string@DU?$char_traits@D@std@@V?$allocator@D@2@@std@@V?$shared_ptr@UPartData@@@2@U?$less@V?$basic_string@DU?$char_traits@D@std@@V?$allocator@D@2@@std@@@2@V?$allocator@U?$pair@$$CBV?$basic_string@DU?$char_traits@D@std@@V?$allocator@D@2@@std@@V?$shared_ptr@UPartData@@@2@@std@@@2@$0A@@std@@@std@@IAE?AU?$pair@V?$_Tree_iterator@V?$_Tree_val@U?$_Tree_simple_types@U?$pair@$$CBV?$basic_string@DU?$char_traits@D@std@@V?$allocator@D@2@@std@@V?$shared_ptr@UPartData@@@2@@std@@@std@@@std@@@std@@_N@1@_NAAU?$pair@$$CBV?$basic_string@DU?$char_traits@D@std@@V?$allocator@D@2@@std@@V?$shared_ptr@UPartData@@@2@@1@PAU?$_Tree_node@U?$pair@$$CBV?$basic_string@DU?$char_traits@D@std@@V?$allocator@D@2@@std@@V?$shared_ptr@UPartData@@@2@@std@@PAX@1@@Z 00462bdc     KSPMetaManager.obj
 0002:0000dbfc       __ehfuncinfo$??$_Insert_nohint@AAU?$pair@$$CBV?$basic_string@DU?$char_traits@D@std@@V?$allocator@D@2@@std@@V?$shared_ptr@UPartData@@@2@@std@@PAU?$_Tree_node@U?$pair@$$CBV?$basic_string@DU?$char_traits@D@std@@V?$allocator@D@2@@std@@V?$shared_ptr@UPartData@@@2@@std@@PAX@2@@?$_Tree@V?$_Tmap_traits@V?$basic_string@DU?$char_traits@D@std@@V?$allocator@D@2@@std@@V?$shared_ptr@UPartData@@@2@U?$less@V?$basic_string@DU?$char_traits@D@std@@V?$allocator@D@2@@std@@@2@V?$allocator@U?$pair@$$CBV?$basic_string@DU?$char_traits@D@std@@V?$allocator@D@2@@std@@V?$shared_ptr@UPartData@@@2@@std@@@2@$0A@@std@@@std@@IAE?AU?$pair@V?$_Tree_iterator@V?$_Tree_val@U?$_Tree_simple_types@U?$pair@$$CBV?$basic_string@DU?$char_traits@D@std@@V?$allocator@D@2@@std@@V?$shared_ptr@UPartData@@@2@@std@@@std@@@std@@@std@@_N@1@_NAAU?$pair@$$CBV?$basic_string@DU?$char_traits@D@std@@V?$allocator@D@2@@std@@V?$shared_ptr@UPartData@@@2@@1@PAU?$_Tree_node@U?$pair@$$CBV?$basic_string@DU?$char_traits@D@std@@V?$allocator@D@2@@std@@V?$shared_ptr@UPartData@@@2@@std@@PAX@1@@Z 00462bfc     KSPMetaManager.obj
 0002:0000dc20       __ehfuncinfo$??1PartSprite@@UAE@XZ 00462c20     PartSprite.obj
 0002:0000dc44       __ehfuncinfo$??0PartSprite@@QAE@V?$basic_string@DU?$char_traits@D@std@@V?$allocator@D@2@@std@@PAVBaseEngine@@HH@Z 00462c44     PartSprite.obj
 0002:0000dc68       __unwindtable$??0PartSprite@@QAE@V?$basic_string@DU?$char_traits@D@std@@V?$allocator@D@2@@std@@PAVBaseEngine@@HH@Z 00462c68     PartSprite.obj
 0002:0000dc98       __ehfuncinfo$??1RocketPart@@QAE@XZ 00462c98     RocketPart.obj
 0002:0000dcbc       __ehfuncinfo$??1?$_Vector_alloc@U?$_Vec_base_types@PAVGadget@@V?$allocator@PAVGadget@@@std@@@std@@@std@@QAE@XZ 00462cbc     RocketPart.obj
 0002:0000dce0       __ehfuncinfo$??1?$vector@PAVGadget@@V?$allocator@PAVGadget@@@std@@@std@@QAE@XZ 00462ce0     RocketPart.obj
 0002:0000dd04       __ehfuncinfo$??0?$vector@PAVRocketPart@@V?$allocator@PAVRocketPart@@@std@@@std@@QAE@XZ 00462d04     SpacecraftParts.obj
 0002:0000dd28       __unwindtable$?erase@?$vector@PAVRocketPart@@V?$allocator@PAVRocketPart@@@std@@@std@@QAE?AV?$_Vector_iterator@V?$_Vector_val@U?$_Simple_types@PAVRocketPart@@@std@@@std@@@2@V?$_Vector_const_iterator@V?$_Vector_val@U?$_Simple_types@PAVRocketPart@@@std@@@std@@@2@@Z 00462d28     SpacecraftParts.obj
 0002:0000dd30       __ehfuncinfo$?erase@?$vector@PAVRocketPart@@V?$allocator@PAVRocketPart@@@std@@@std@@QAE?AV?$_Vector_iterator@V?$_Vector_val@U?$_Simple_types@PAVRocketPart@@@std@@@std@@@2@V?$_Vector_const_iterator@V?$_Vector_val@U?$_Simple_types@PAVRocketPart@@@std@@@std@@@2@@Z 00462d30     SpacecraftParts.obj
 0002:0000dd54       __ehfuncinfo$?begin@?$vector@PAVRocketPart@@V?$allocator@PAVRocketPart@@@std@@@std@@QAE?AV?$_Vector_iterator@V?$_Vector_val@U?$_Simple_types@PAVRocketPart@@@std@@@std@@@2@XZ 00462d54     SpacecraftParts.obj
 0002:0000dd78       __ehfuncinfo$?end@?$vector@PAVRocketPart@@V?$allocator@PAVRocketPart@@@std@@@std@@QAE?AV?$_Vector_iterator@V?$_Vector_val@U?$_Simple_types@PAVRocketPart@@@std@@@std@@@2@XZ 00462d78     SpacecraftParts.obj
 0002:0000dd9c       __unwindtable$?_Orphan_range@?$vector@PAVRocketPart@@V?$allocator@PAVRocketPart@@@std@@@std@@ABEXPAPAVRocketPart@@0@Z 00462d9c     SpacecraftParts.obj
 0002:0000dda4       __ehfuncinfo$?_Orphan_range@?$vector@PAVRocketPart@@V?$allocator@PAVRocketPart@@@std@@@std@@ABEXPAPAVRocketPart@@0@Z 00462da4     SpacecraftParts.obj
 0002:0000ddc8       __unwindtable$?generateSpacecraft@SpacecraftParts@@QAEPAVSpacecraft@@PAVKSP2D@@ABVVec2D@@1OPAV4@@Z 00462dc8     SpacecraftParts.obj
 0002:0000ddd0       __unwindtable$??0SpacecraftParts@@QAE@HHPAVRocketPart@@@Z 00462dd0     SpacecraftParts.obj
 0002:0000ddd8       __unwindtable$?getDraggedPart@SpacecraftParts@@QAEPAVRocketPart@@XZ 00462dd8     SpacecraftParts.obj
 0002:0000ddf0       __ehfuncinfo$?getDraggedPart@SpacecraftParts@@QAEPAVRocketPart@@XZ 00462df0     SpacecraftParts.obj
 0002:0000de14       __ehfuncinfo$?generateSpacecraft@SpacecraftParts@@QAEPAVSpacecraft@@PAVKSP2D@@ABVVec2D@@1OPAV4@@Z 00462e14     SpacecraftParts.obj
 0002:0000de38       __ehfuncinfo$??0SpacecraftParts@@QAE@HHPAVRocketPart@@@Z 00462e38     SpacecraftParts.obj
 0002:0000de5c       __unwindtable$??E?$_Vector_iterator@V?$_Vector_val@U?$_Simple_types@PAVRocketPart@@@std@@@std@@@std@@QAE?AV01@H@Z 00462e5c     SpacecraftParts.obj
 0002:0000de64       __ehfuncinfo$??E?$_Vector_iterator@V?$_Vector_val@U?$_Simple_types@PAVRocketPart@@@std@@@std@@@std@@QAE?AV01@H@Z 00462e64     SpacecraftParts.obj
 0002:0000de88       __catchsym$??$_Emplace_reallocate@ABQAVRocketPart@@@?$vector@PAVRocketPart@@V?$allocator@PAVRocketPart@@@std@@@std@@QAEPAPAVRocketPart@@QAPAV2@ABQAV2@@Z$2 00462e88     SpacecraftParts.obj
 0002:0000de98       __unwindtable$??$_Emplace_reallocate@ABQAVRocketPart@@@?$vector@PAVRocketPart@@V?$allocator@PAVRocketPart@@@std@@@std@@QAEPAPAVRocketPart@@QAPAV2@ABQAV2@@Z 00462e98     SpacecraftParts.obj
 0002:0000dea8       __tryblocktable$??$_Emplace_reallocate@ABQAVRocketPart@@@?$vector@PAVRocketPart@@V?$allocator@PAVRocketPart@@@std@@@std@@QAEPAPAVRocketPart@@QAPAV2@ABQAV2@@Z 00462ea8     SpacecraftParts.obj
 0002:0000debc       __ehfuncinfo$??$_Emplace_reallocate@ABQAVRocketPart@@@?$vector@PAVRocketPart@@V?$allocator@PAVRocketPart@@@std@@@std@@QAEPAPAVRocketPart@@QAPAV2@ABQAV2@@Z 00462ebc     SpacecraftParts.obj
 0002:0000dee0       __ehfuncinfo$??0OBB@@QAE@ABVVec2D@@00ABVMat22@@@Z 00462ee0     BasicSpacecraft.obj
 0002:0000df04       __unwindtable$??0OBB@@QAE@ABVVec2D@@00ABVMat22@@@Z 00462f04     BasicSpacecraft.obj
 0002:0000df34       __ehfuncinfo$?updateShape@OBB@@UAEXABVVec2D@@ABVMat22@@@Z 00462f34     BasicSpacecraft.obj
 0002:0000df58       __unwindtable$?updateShape@OBB@@UAEXABVVec2D@@ABVMat22@@@Z 00462f58     BasicSpacecraft.obj
 0002:0000df88       __unwindtable$??0CollisionManifold@@QAE@PAVPhysObject@@0@Z 00462f88     BasicSpacecraft.obj
 0002:0000df90       __ehfuncinfo$??0CollisionManifold@@QAE@PAVPhysObject@@0@Z 00462f90     BasicSpacecraft.obj
 0002:0000dfb4       __unwindtable$?applyForceFromDir@PhysBody@@QAEXVMat22@@N@Z 00462fb4     BasicSpacecraft.obj
 0002:0000dfd4       __ehfuncinfo$?applyForceFromDir@PhysBody@@QAEXVMat22@@N@Z 00462fd4     BasicSpacecraft.obj
 0002:0000dff8       __unwindtable$??0AnimatedSprite@@QAE@PBDHH@Z 00462ff8     BasicSpacecraft.obj
 0002:0000e008       __ehfuncinfo$??0AnimatedSprite@@QAE@PBDHH@Z 00463008     BasicSpacecraft.obj
 0002:0000e02c       __unwindtable$?transform@FilterPointsRotate@@QAEXPAVDrawingSurface@@AAH1AAI@Z 0046302c     BasicSpacecraft.obj
 0002:0000e044       __ehfuncinfo$?transform@FilterPointsRotate@@QAEXPAVDrawingSurface@@AAH1AAI@Z 00463044     BasicSpacecraft.obj
 0002:0000e068       __unwindtable$?filter@FilterPointsZoom@@UAE_NPAVDrawingSurface@@AAH1AAI@Z 00463068     BasicSpacecraft.obj
 0002:0000e080       __ehfuncinfo$?filter@FilterPointsZoom@@UAE_NPAVDrawingSurface@@AAH1AAI@Z 00463080     BasicSpacecraft.obj
 0002:0000e0a4       __unwindtable$?checkProximityChange@BasicSpacecraft@@QAE_NPAVCelestialBody@@@Z 004630a4     BasicSpacecraft.obj
 0002:0000e0ac       __unwindtable$?checkSurfaceCollision@BasicSpacecraft@@QAEXPAVCelestialBody@@@Z 004630ac     BasicSpacecraft.obj
 0002:0000e0bc       __ehfuncinfo$?checkSurfaceCollision@BasicSpacecraft@@QAEXPAVCelestialBody@@@Z 004630bc     BasicSpacecraft.obj
 0002:0000e0e0       __ehfuncinfo$?checkProximityChange@BasicSpacecraft@@QAE_NPAVCelestialBody@@@Z 004630e0     BasicSpacecraft.obj
 0002:0000e104       __ehfuncinfo$??0BasicSpacecraft@@QAE@PAVKSP2D@@V?$basic_string@DU?$char_traits@D@std@@V?$allocator@D@2@@std@@ABVVec2D@@2OPAV4@@Z 00463104     BasicSpacecraft.obj
 0002:0000e128       __unwindtable$??0BasicSpacecraft@@QAE@PAVKSP2D@@V?$basic_string@DU?$char_traits@D@std@@V?$allocator@D@2@@std@@ABVVec2D@@2OPAV4@@Z 00463128     BasicSpacecraft.obj
 0002:0000e1a0       __unwindtable$?checkProximityChange@Spacecraft@@QAE_NPAVCelestialBody@@@Z 004631a0     Spacecraft.obj
 0002:0000e1a8       __unwindtable$?checkSurfaceCollision@Spacecraft@@QAEXPAVCelestialBody@@@Z 004631a8     Spacecraft.obj
 0002:0000e1b8       __ehfuncinfo$?checkSurfaceCollision@Spacecraft@@QAEXPAVCelestialBody@@@Z 004631b8     Spacecraft.obj
 0002:0000e1dc       __ehfuncinfo$?checkProximityChange@Spacecraft@@QAE_NPAVCelestialBody@@@Z 004631dc     Spacecraft.obj
 0002:0000e200       __ehfuncinfo$??0Spacecraft@@QAE@PAVKSP2D@@ABVVec2D@@1OPAV2@AAV?$vector@PAVRocketPart@@V?$allocator@PAVRocketPart@@@std@@@std@@@Z 00463200     Spacecraft.obj
 0002:0000e224       __unwindtable$??0Spacecraft@@QAE@PAVKSP2D@@ABVVec2D@@1OPAV2@AAV?$vector@PAVRocketPart@@V?$allocator@PAVRocketPart@@@std@@@std@@@Z 00463224     Spacecraft.obj
 0002:0000e284       __ehfuncinfo$??1DisplayableObjectContainer@@UAE@XZ 00463284     BaseEngine.obj
 0002:0000e2a8       __ehfuncinfo$??1?$_Vector_alloc@U?$_Vec_base_types@PAVDisplayableObject@@V?$allocator@PAVDisplayableObject@@@std@@@std@@@std@@QAE@XZ 004632a8     BaseEngine.obj
 0002:0000e2cc       __catchsym$??0?$vector@PAVDisplayableObject@@V?$allocator@PAVDisplayableObject@@@std@@@std@@QAE@IABV?$allocator@PAVDisplayableObject@@@1@@Z$3 004632cc     BaseEngine.obj
 0002:0000e2dc       __tryblocktable$??0?$vector@PAVDisplayableObject@@V?$allocator@PAVDisplayableObject@@@std@@@std@@QAE@IABV?$allocator@PAVDisplayableObject@@@1@@Z 004632dc     BaseEngine.obj
 0002:0000e2f0       __unwindtable$??0?$vector@PAVDisplayableObject@@V?$allocator@PAVDisplayableObject@@@std@@@std@@QAE@IABV?$allocator@PAVDisplayableObject@@@1@@Z 004632f0     BaseEngine.obj
 0002:0000e308       __ehfuncinfo$??0?$vector@PAVDisplayableObject@@V?$allocator@PAVDisplayableObject@@@std@@@std@@QAE@IABV?$allocator@PAVDisplayableObject@@@1@@Z 00463308     BaseEngine.obj
 0002:0000e32c       __ehfuncinfo$??1?$vector@PAVDisplayableObject@@V?$allocator@PAVDisplayableObject@@@std@@@std@@QAE@XZ 0046332c     BaseEngine.obj
 0002:0000e350       __unwindtable$??E?$_Vector_iterator@V?$_Vector_val@U?$_Simple_types@PAVDisplayableObject@@@std@@@std@@@std@@QAE?AV01@H@Z 00463350     BaseEngine.obj
 0002:0000e358       __ehfuncinfo$??E?$_Vector_iterator@V?$_Vector_val@U?$_Simple_types@PAVDisplayableObject@@@std@@@std@@@std@@QAE?AV01@H@Z 00463358     BaseEngine.obj
 0002:0000e37c       __unwindtable$??0BaseEngine@@QAE@XZ 0046337c     BaseEngine.obj
 0002:0000e394       __unwindtable$?updateAllObjects@BaseEngine@@UAEXH@Z 00463394     BaseEngine.obj
 0002:0000e3b4       __unwindtable$?drawAllObjects@BaseEngine@@UAEXXZ 004633b4     BaseEngine.obj
 0002:0000e3d4       __unwindtable$?handleEvent@BaseEngine@@QAE_NPATSDL_Event@@@Z 004633d4     BaseEngine.obj
 0002:0000e3f4       __ehfuncinfo$?updateAllObjects@BaseEngine@@UAEXH@Z 004633f4     BaseEngine.obj
 0002:0000e418       __ehfuncinfo$?drawAllObjects@BaseEngine@@UAEXXZ 00463418     BaseEngine.obj
 0002:0000e43c       __ehfuncinfo$?handleEvent@BaseEngine@@QAE_NPATSDL_Event@@@Z 0046343c     BaseEngine.obj
 0002:0000e460       __ehfuncinfo$??0BaseEngine@@QAE@XZ 00463460     BaseEngine.obj
 0002:0000e484       __unwindtable$??$for_each@V?$_Vector_iterator@V?$_Vector_val@U?$_Simple_types@PAVDisplayableObject@@@std@@@std@@@std@@V<lambda_93a465d5bb5690ea0824b19da678a0f2>@@@std@@YA?AV<lambda_93a465d5bb5690ea0824b19da678a0f2>@@V?$_Vector_iterator@V?$_Vector_val@U?$_Simple_types@PAVDisplayableObject@@@std@@@std@@@0@0V1@@Z 00463484     BaseEngine.obj
 0002:0000e494       __ehfuncinfo$??$for_each@V?$_Vector_iterator@V?$_Vector_val@U?$_Simple_types@PAVDisplayableObject@@@std@@@std@@@std@@V<lambda_93a465d5bb5690ea0824b19da678a0f2>@@@std@@YA?AV<lambda_93a465d5bb5690ea0824b19da678a0f2>@@V?$_Vector_iterator@V?$_Vector_val@U?$_Simple_types@PAVDisplayableObject@@@std@@@std@@@0@0V1@@Z 00463494     BaseEngine.obj
 0002:0000e4b8       __unwindtable$??$for_each@V?$_Vector_iterator@V?$_Vector_val@U?$_Simple_types@PAVDisplayableObject@@@std@@@std@@@std@@V<lambda_bcac8b0bc9596c88896ad01f260fa24a>@@@std@@YA?AV<lambda_bcac8b0bc9596c88896ad01f260fa24a>@@V?$_Vector_iterator@V?$_Vector_val@U?$_Simple_types@PAVDisplayableObject@@@std@@@std@@@0@0V1@@Z 004634b8     BaseEngine.obj
 0002:0000e4c8       __ehfuncinfo$??$for_each@V?$_Vector_iterator@V?$_Vector_val@U?$_Simple_types@PAVDisplayableObject@@@std@@@std@@@std@@V<lambda_bcac8b0bc9596c88896ad01f260fa24a>@@@std@@YA?AV<lambda_bcac8b0bc9596c88896ad01f260fa24a>@@V?$_Vector_iterator@V?$_Vector_val@U?$_Simple_types@PAVDisplayableObject@@@std@@@std@@@0@0V1@@Z 004634c8     BaseEngine.obj
 0002:0000e4ec       __unwindtable$??$for_each@V?$_Vector_iterator@V?$_Vector_val@U?$_Simple_types@PAVDisplayableObject@@@std@@@std@@@std@@V<lambda_497fa3cc95cba17f614bb29ddf1eb27b>@@@std@@YA?AV<lambda_497fa3cc95cba17f614bb29ddf1eb27b>@@V?$_Vector_iterator@V?$_Vector_val@U?$_Simple_types@PAVDisplayableObject@@@std@@@std@@@0@0V1@@Z 004634ec     BaseEngine.obj
 0002:0000e4fc       __ehfuncinfo$??$for_each@V?$_Vector_iterator@V?$_Vector_val@U?$_Simple_types@PAVDisplayableObject@@@std@@@std@@@std@@V<lambda_497fa3cc95cba17f614bb29ddf1eb27b>@@@std@@YA?AV<lambda_497fa3cc95cba17f614bb29ddf1eb27b>@@V?$_Vector_iterator@V?$_Vector_val@U?$_Simple_types@PAVDisplayableObject@@@std@@@std@@@0@0V1@@Z 004634fc     BaseEngine.obj
 0002:0000e520       __unwindtable$?getFont@FontManager@@QAEPAVFont@@PBDH@Z 00463520     FontManager.obj
 0002:0000e528       __ehfuncinfo$?getFont@FontManager@@QAEPAVFont@@PBDH@Z 00463528     FontManager.obj
 0002:0000e54c       __unwindtable$??0RawImageData@@QAE@HHHHABV?$shared_ptr@VRawImageData@@@std@@@Z 0046354c     RawImage.obj
 0002:0000e554       __unwindtable$??0RawImageData@@QAE@HHABV?$shared_ptr@VRawImageData@@@std@@@Z 00463554     RawImage.obj
 0002:0000e55c       __unwindtable$??0RawImageData@@QAE@ABV?$shared_ptr@VRawImageData@@@std@@H@Z 0046355c     RawImage.obj
 0002:0000e564       __ehfuncinfo$??0RawImageData@@QAE@HHHHABV?$shared_ptr@VRawImageData@@@std@@@Z 00463564     RawImage.obj
 0002:0000e588       __ehfuncinfo$??0RawImageData@@QAE@HHABV?$shared_ptr@VRawImageData@@@std@@@Z 00463588     RawImage.obj
 0002:0000e5ac       __ehfuncinfo$??0RawImageData@@QAE@ABV?$shared_ptr@VRawImageData@@@std@@H@Z 004635ac     RawImage.obj
 0002:0000e5d0       __sehtable$?__scrt_common_main_seh@@YAHXZ 004635d0     MSVCRTD:exe_main.obj
 0002:0000e5f0       __sehtable$___scrt_is_nonwritable_in_current_image 004635f0     MSVCRTD:utility.obj
 0002:0000e60c       __ehfuncinfo$?__scrt_initialize_thread_safe_statics_platform_specific@@YAXXZ 0046360c     MSVCRTD:thread_safe_statics.obj
 0002:0000e630       __ehfuncinfo$?__scrt_uninitialize_thread_safe_statics@@YAXXZ 00463630     MSVCRTD:thread_safe_statics.obj
 0002:0000ed60       .idata$6                   00463d60     SDL2:SDL2.dll
 0002:0000ed76       .idata$6                   00463d76     SDL2_image:SDL2_image.dll
 0002:0000edd6       .idata$6                   00463dd6     SDL2_ttf:SDL2_ttf.dll
 0002:0000f2a8       .idata$6                   004642a8     msvcprtd:MSVCP140D.dll
 0002:0000f394       .idata$6                   00464394     vcruntimed:VCRUNTIME140D.dll
 0002:0000f76c       .idata$6                   0046476c     ucrtd:ucrtbased.dll
 0002:0000f9c0       .idata$6                   004649c0     kernel32:KERNEL32.dll
 0003:00000000       _gfxPrimitivesFontdata     00465000     SDL2_gfxPrimitives.obj
 0003:00000800       _currentFontdata           00465800     SDL2_gfxPrimitives.obj
 0003:00000804       _charWidth                 00465804     SDL2_gfxPrimitives.obj
 0003:00000808       _charHeight                00465808     SDL2_gfxPrimitives.obj
 0003:0000080c       _charWidthLocal            0046580c     SDL2_gfxPrimitives.obj
 0003:00000810       _charHeightLocal           00465810     SDL2_gfxPrimitives.obj
 0003:00000814       _charPitch                 00465814     SDL2_gfxPrimitives.obj
 0003:00000818       _charSize                  00465818     SDL2_gfxPrimitives.obj
 0003:0000081c       _SDL_imageFilterUseMMX     0046581c     SDL2_imageFilter.obj
 0003:00000820       ?Mask@?1??SDL_imageFilterMean@@9@9 00465820     SDL2_imageFilter.obj
 0003:00000828       ?Mask@?1??SDL_imageFilterAddByteToHalf@@9@9 00465828     SDL2_imageFilter.obj
 0003:00000830       ?Mask@?1??SDL_imageFilterShiftRight@@9@9 00465830     SDL2_imageFilter.obj
 0003:00000838       ?Mask@?1??SDL_imageFilterShiftLeftByte@@9@9 00465838     SDL2_imageFilter.obj
 0003:00000840       $SG32025                   00465840     SDL2_rotozoom.obj
 0003:00000870       $SG32027                   00465870     SDL2_rotozoom.obj
 0003:00000894       $SG32032                   00465894     SDL2_rotozoom.obj
 0003:000008b9       ?firstClick@?1??handleEvent@BaseEngine@@QAE_NPATSDL_Event@@@Z@4_NA 004658b9     BaseEngine.obj
 0003:00000920       ??_R0?AV<lambda_8e08e5546d00afac20621fd5d0739336>@@@8 00465920     BuilderUI.obj
 0003:00000958       ??_R0?AV<lambda_3a905bc70563c738712533e87930e958>@@@8 00465958     BuilderUI.obj
 0003:00000990       ??_R0?AV<lambda_7c2dbb44a5d32349ebb3491b2c88eec0>@@@8 00465990     BuilderUI.obj
 0003:00000b00       ??_R0?AV?$_Func_impl_no_alloc@V<lambda_7c2dbb44a5d32349ebb3491b2c88eec0>@@X$$V@std@@@8 00465b00     BuilderUI.obj
 0003:00000b60       ??_R0?AV?$_Func_impl_no_alloc@V<lambda_3a905bc70563c738712533e87930e958>@@X$$V@std@@@8 00465b60     BuilderUI.obj
 0003:00000bc0       ??_R0?AV?$_Func_impl_no_alloc@V<lambda_8e08e5546d00afac20621fd5d0739336>@@X$$V@std@@@8 00465bc0     BuilderUI.obj
 0003:00000c1c       ??_R0?AV<lambda_1947b0fcc41a160ce2363252446458a1>@@@8 00465c1c     SpacecraftControls.obj
 0003:00000c54       ??_R0?AV<lambda_7ea10a720369ab96e6aeba8866acc821>@@@8 00465c54     SpacecraftControls.obj
 0003:00000d30       ??_R0?AV?$_Func_impl_no_alloc@V<lambda_7ea10a720369ab96e6aeba8866acc821>@@XO@std@@@8 00465d30     SpacecraftControls.obj
 0003:00000d88       ??_R0?AV?$_Func_impl_no_alloc@V<lambda_1947b0fcc41a160ce2363252446458a1>@@XO@std@@@8 00465d88     SpacecraftControls.obj
 0003:000012b0       ?rotationNormalAxis@@3VVec2D@@B 004662b0     BuilderUI.obj
 0003:000012c0       ?screenDimensions@@3VVec2D@@B 004662c0     BuilderUI.obj
 0003:000012d0       ?screenViewRadius@@3NB     004662d0     BuilderUI.obj
 0003:000012d8       ?screenCenter@@3VVec2D@@B  004662d8     BuilderUI.obj
 0003:000012e8       ?rotationNormalAxisMag@@3NB 004662e8     BuilderUI.obj
 0003:00001308       ?rotationNormalAxis@@3VVec2D@@B 00466308     GUIManager.obj
 0003:00001318       ?screenDimensions@@3VVec2D@@B 00466318     GUIManager.obj
 0003:00001328       ?screenViewRadius@@3NB     00466328     GUIManager.obj
 0003:00001330       ?screenCenter@@3VVec2D@@B  00466330     GUIManager.obj
 0003:00001340       ?rotationNormalAxisMag@@3NB 00466340     GUIManager.obj
 0003:00001348       ?rotationNormalAxis@@3VVec2D@@B 00466348     SpacecraftControls.obj
 0003:00001358       ?screenDimensions@@3VVec2D@@B 00466358     SpacecraftControls.obj
 0003:00001368       ?screenViewRadius@@3NB     00466368     SpacecraftControls.obj
 0003:00001370       ?screenCenter@@3VVec2D@@B  00466370     SpacecraftControls.obj
 0003:00001380       ?rotationNormalAxisMag@@3NB 00466380     SpacecraftControls.obj
 0003:00001390       ?rotationNormalAxis@@3VVec2D@@B 00466390     KSP2D.obj
 0003:000013a0       ?screenDimensions@@3VVec2D@@B 004663a0     KSP2D.obj
 0003:000013b0       ?screenViewRadius@@3NB     004663b0     KSP2D.obj
 0003:000013b8       ?screenCenter@@3VVec2D@@B  004663b8     KSP2D.obj
 0003:000013c8       ?rotationNormalAxisMag@@3NB 004663c8     KSP2D.obj
 0003:000013d0       ?rotationNormalAxis@@3VVec2D@@B 004663d0     main.obj
 0003:000013e0       ?screenDimensions@@3VVec2D@@B 004663e0     main.obj
 0003:000013f0       ?screenViewRadius@@3NB     004663f0     main.obj
 0003:000013f8       ?screenCenter@@3VVec2D@@B  004663f8     main.obj
 0003:00001408       ?rotationNormalAxisMag@@3NB 00466408     main.obj
 0003:00001410       ?rotationNormalAxis@@3VVec2D@@B 00466410     CelestialBody.obj
 0003:00001420       ?screenDimensions@@3VVec2D@@B 00466420     CelestialBody.obj
 0003:00001430       ?screenViewRadius@@3NB     00466430     CelestialBody.obj
 0003:00001438       ?screenCenter@@3VVec2D@@B  00466438     CelestialBody.obj
 0003:00001448       ?rotationNormalAxisMag@@3NB 00466448     CelestialBody.obj
 0003:00001450       ?rotationNormalAxis@@3VVec2D@@B 00466450     PhysObject.obj
 0003:00001460       ?screenDimensions@@3VVec2D@@B 00466460     PhysObject.obj
 0003:00001478       ?screenViewRadius@@3NB     00466478     PhysObject.obj
 0003:00001480       ?screenCenter@@3VVec2D@@B  00466480     PhysObject.obj
 0003:00001490       ?rotationNormalAxisMag@@3NB 00466490     PhysObject.obj
 0003:00001498       ?rotationNormalAxis@@3VVec2D@@B 00466498     PlanetObject.obj
 0003:000014a8       ?screenDimensions@@3VVec2D@@B 004664a8     PlanetObject.obj
 0003:000014b8       ?screenViewRadius@@3NB     004664b8     PlanetObject.obj
 0003:000014c0       ?screenCenter@@3VVec2D@@B  004664c0     PlanetObject.obj
 0003:000014d0       ?rotationNormalAxisMag@@3NB 004664d0     PlanetObject.obj
 0003:000014e0       ?rotationNormalAxis@@3VVec2D@@B 004664e0     SpacecraftParts.obj
 0003:000014f0       ?screenDimensions@@3VVec2D@@B 004664f0     SpacecraftParts.obj
 0003:00001500       ?screenViewRadius@@3NB     00466500     SpacecraftParts.obj
 0003:00001508       ?screenCenter@@3VVec2D@@B  00466508     SpacecraftParts.obj
 0003:00001518       ?rotationNormalAxisMag@@3NB 00466518     SpacecraftParts.obj
 0003:00001520       ?rotationNormalAxis@@3VVec2D@@B 00466520     BasicSpacecraft.obj
 0003:00001530       ?screenDimensions@@3VVec2D@@B 00466530     BasicSpacecraft.obj
 0003:00001540       ?screenViewRadius@@3NB     00466540     BasicSpacecraft.obj
 0003:00001548       ?screenCenter@@3VVec2D@@B  00466548     BasicSpacecraft.obj
 0003:00001558       ?rotationNormalAxisMag@@3NB 00466558     BasicSpacecraft.obj
 0003:00001560       ?rotationNormalAxis@@3VVec2D@@B 00466560     Spacecraft.obj
 0003:00001570       ?screenDimensions@@3VVec2D@@B 00466570     Spacecraft.obj
 0003:00001580       ?screenViewRadius@@3NB     00466580     Spacecraft.obj
 0003:00001588       ?screenCenter@@3VVec2D@@B  00466588     Spacecraft.obj
 0003:00001598       ?rotationNormalAxisMag@@3NB 00466598     Spacecraft.obj
 0003:000015a0       _gfxPrimitivesPolyIntsGlobal 004665a0     SDL2_gfxPrimitives.obj
 0003:000015a4       _gfxPrimitivesPolyAllocatedGlobal 004665a4     SDL2_gfxPrimitives.obj
 0003:000015a8       _gfxPrimitivesFont         004665a8     SDL2_gfxPrimitives.obj
 0003:000019a8       _charRotation              004669a8     SDL2_gfxPrimitives.obj
 0003:000019b0       ?nullMapping@@3VCroppedCoordinateMapping@@A 004669b0     SimpleImage.obj
 0003:000019bc       ?is_initialized_as_dll@@3_NA 004669bc     MSVCRTD:utility.obj
 0003:000019bd       ?module_local_atexit_table_initialized@@3_NA 004669bd     MSVCRTD:utility.obj
 0003:000019c0       ?module_local_atexit_table@@3U_onexit_table_t@@A 004669c0     MSVCRTD:utility.obj
 0003:000019cc       ?module_local_at_quick_exit_table@@3U_onexit_table_t@@A 004669cc     MSVCRTD:utility.obj
 0003:000019d8       ?_Tss_mutex@@3U_RTL_CRITICAL_SECTION@@A 004669d8     MSVCRTD:thread_safe_statics.obj
 0003:000019f0       ?_Tss_cv@@3U_RTL_CONDITION_VARIABLE@@A 004669f0     MSVCRTD:thread_safe_statics.obj
 0003:000019f4       ?_Tss_event@@3PAXA         004669f4     MSVCRTD:thread_safe_statics.obj
 0003:000019f8       ?encoded_sleep_condition_variable_cs@@3P6GHPAU_RTL_CONDITION_VARIABLE@@PAU_RTL_CRITICAL_SECTION@@K@ZA 004669f8     MSVCRTD:thread_safe_statics.obj
 0003:000019fc       ?encoded_wake_all_condition_variable@@3P6GXPAU_RTL_CONDITION_VARIABLE@@@ZA 004669fc     MSVCRTD:thread_safe_statics.obj
 0003:00001a28       _GS_ExceptionRecord        00466a28     MSVCRTD:gs_report.obj
 0003:00001a78       _GS_ContextRecord          00466a78     MSVCRTD:gs_report.obj
 0004:00000060       $R000000                   00467060     * linker generated manifest res *
